---
triple:          'arm64-apple-darwin'
binary-path:     silly_debug
relocations:
  - { offsetInCU: 0x3B, offset: 0x3B, size: 0x8, addend: 0x0, symName: _.str, symObjAddr: 0x19580, symBinAddr: 0x1000F9280, symSize: 0x0 }
  - { offsetInCU: 0x6B, offset: 0x6B, size: 0x8, addend: 0x0, symName: ___func__._ZNK5Field2asINSt3__112basic_stringIcNS1_11char_traitsIcEENS1_9allocatorIcEEEEEENS1_11conditionalIXsr12is_fast_passINS1_5decayIT_E4typeEEE5valueESC_NS1_20add_lvalue_referenceINS1_9add_constISC_E4typeEE4typeEE4typeEv, symObjAddr: 0x195E0, symBinAddr: 0x1000F92E0, symSize: 0x0 }
  - { offsetInCU: 0x88, offset: 0x88, size: 0x8, addend: 0x0, symName: _.str.1, symObjAddr: 0x19600, symBinAddr: 0x1000F9300, symSize: 0x0 }
  - { offsetInCU: 0xA5, offset: 0xA5, size: 0x8, addend: 0x0, symName: _.str.2, symObjAddr: 0x19680, symBinAddr: 0x1000F9380, symSize: 0x0 }
  - { offsetInCU: 0xB6, offset: 0xB6, size: 0x8, addend: 0x0, symName: _.str.3, symObjAddr: 0x196E0, symBinAddr: 0x1000F93E0, symSize: 0x0 }
  - { offsetInCU: 0xC7, offset: 0xC7, size: 0x8, addend: 0x0, symName: _.str.4, symObjAddr: 0x19760, symBinAddr: 0x1000F9460, symSize: 0x0 }
  - { offsetInCU: 0xE4, offset: 0xE4, size: 0x8, addend: 0x0, symName: _.str.5, symObjAddr: 0x197C0, symBinAddr: 0x1000F94C0, symSize: 0x0 }
  - { offsetInCU: 0x101, offset: 0x101, size: 0x8, addend: 0x0, symName: _.str.6, symObjAddr: 0x19840, symBinAddr: 0x1000F9540, symSize: 0x0 }
  - { offsetInCU: 0x112, offset: 0x112, size: 0x8, addend: 0x0, symName: _.str.7, symObjAddr: 0x198A0, symBinAddr: 0x1000F95A0, symSize: 0x0 }
  - { offsetInCU: 0x12F, offset: 0x12F, size: 0x8, addend: 0x0, symName: _.str.13, symObjAddr: 0x19920, symBinAddr: 0x1000F9620, symSize: 0x0 }
  - { offsetInCU: 0x14C, offset: 0x14C, size: 0x8, addend: 0x0, symName: ___func__._ZNK5Field7compareINSt3__14lessEEEbRKS_, symObjAddr: 0x19980, symBinAddr: 0x1000F9680, symSize: 0x0 }
  - { offsetInCU: 0x169, offset: 0x169, size: 0x8, addend: 0x0, symName: _.str.14, symObjAddr: 0x199A0, symBinAddr: 0x1000F96A0, symSize: 0x0 }
  - { offsetInCU: 0x17A, offset: 0x17A, size: 0x8, addend: 0x0, symName: _.str.15, symObjAddr: 0x199C0, symBinAddr: 0x1000F96C0, symSize: 0x0 }
  - { offsetInCU: 0x30B6, offset: 0x30B6, size: 0x8, addend: 0x0, symName: __ZNSt3__124__put_character_sequenceB7v160006IcNS_11char_traitsIcEEEERNS_13basic_ostreamIT_T0_EES7_PKS4_m, symObjAddr: 0xF590, symBinAddr: 0x100012B90, symSize: 0x103C }
  - { offsetInCU: 0x4E89, offset: 0x4E89, size: 0x8, addend: 0x0, symName: __ZNSt3__1lsB7v160006IcNS_11char_traitsIcEENS_9allocatorIcEEEERNS_13basic_ostreamIT_T0_EES9_RKNS_12basic_stringIS6_S7_T1_EE, symObjAddr: 0x5F24, symBinAddr: 0x100009524, symSize: 0x12C }
  - { offsetInCU: 0x4EE1, offset: 0x4EE1, size: 0x8, addend: 0x0, symName: __ZNSt3__119__debug_db_insert_cB7v160006INS_12basic_stringIcNS_11char_traitsIcEENS_9allocatorIcEEEEEEvPT_, symObjAddr: 0x65E8, symBinAddr: 0x100009BE8, symSize: 0x10 }
  - { offsetInCU: 0x4F12, offset: 0x4F12, size: 0x8, addend: 0x0, symName: __ZNSt3__118__constexpr_strlenB7v160006EPKc, symObjAddr: 0x68B4, symBinAddr: 0x100009EB4, symSize: 0x24 }
  - { offsetInCU: 0x4F3E, offset: 0x4F3E, size: 0x8, addend: 0x0, symName: __ZNSt3__115__debug_db_swapB7v160006INS_12basic_stringIcNS_11char_traitsIcEENS_9allocatorIcEEEEEEvPT_S8_, symObjAddr: 0x6E80, symBinAddr: 0x10000A480, symSize: 0x14 }
  - { offsetInCU: 0x5125, offset: 0x5125, size: 0x8, addend: 0x0, symName: __ZNSt3__1ltB7v160006IcNS_11char_traitsIcEENS_9allocatorIcEEEEbRKNS_12basic_stringIT_T0_T1_EESB_, symObjAddr: 0x76E8, symBinAddr: 0x10000ACE8, symSize: 0xAC }
  - { offsetInCU: 0x51A1, offset: 0x51A1, size: 0x8, addend: 0x0, symName: __ZNSt3__13minB7v160006ImEERKT_S3_S3_, symObjAddr: 0x84F4, symBinAddr: 0x10000BAF4, symSize: 0x104 }
  - { offsetInCU: 0x51E4, offset: 0x51E4, size: 0x8, addend: 0x0, symName: __ZNSt3__118__constexpr_memcmpB7v160006IcEEiPKT_S3_m, symObjAddr: 0x8A00, symBinAddr: 0x10000C000, symSize: 0x34 }
  - { offsetInCU: 0x5235, offset: 0x5235, size: 0x8, addend: 0x0, symName: __ZNSt3__112__to_addressB7v160006IKcEEPT_S3_, symObjAddr: 0x8A34, symBinAddr: 0x10000C034, symSize: 0x14 }
  - { offsetInCU: 0x529D, offset: 0x529D, size: 0x8, addend: 0x0, symName: __ZNSt3__13minB7v160006ImNS_6__lessImmEEEERKT_S5_S5_T0_, symObjAddr: 0x8EC8, symBinAddr: 0x10000C4C8, symSize: 0x2C0 }
  - { offsetInCU: 0x5420, offset: 0x5420, size: 0x8, addend: 0x0, symName: __ZNSt3__1gtB7v160006IcNS_11char_traitsIcEENS_9allocatorIcEEEEbRKNS_12basic_stringIT_T0_T1_EESB_, symObjAddr: 0x98D8, symBinAddr: 0x10000CED8, symSize: 0xC0 }
  - { offsetInCU: 0x5560, offset: 0x5560, size: 0x8, addend: 0x0, symName: __ZNSt3__1eqB7v160006INS_9allocatorIcEEEEbRKNS_12basic_stringIcNS_11char_traitsIcEET_EES9_, symObjAddr: 0x9E4C, symBinAddr: 0x10000D44C, symSize: 0x458 }
  - { offsetInCU: 0x56BB, offset: 0x56BB, size: 0x8, addend: 0x0, symName: __ZNSt3__1neB7v160006IcNS_11char_traitsIcEENS_9allocatorIcEEEEbRKNS_12basic_stringIT_T0_T1_EESB_, symObjAddr: 0xA758, symBinAddr: 0x10000DD58, symSize: 0xC4 }
  - { offsetInCU: 0x5713, offset: 0x5713, size: 0x8, addend: 0x0, symName: __ZNSt3__116__do_string_hashB7v160006IPKcEEmT_S3_, symObjAddr: 0xA81C, symBinAddr: 0x10000DE1C, symSize: 0x1EC }
  - { offsetInCU: 0x575B, offset: 0x575B, size: 0x8, addend: 0x0, symName: __ZNSt3__110__loadwordB7v160006ImEET_PKv, symObjAddr: 0xDF80, symBinAddr: 0x100011580, symSize: 0x214 }
  - { offsetInCU: 0x57A3, offset: 0x57A3, size: 0x8, addend: 0x0, symName: __ZNSt3__14swapB7v160006ImEENS_9enable_ifIXaasr21is_move_constructibleIT_EE5valuesr18is_move_assignableIS2_EE5valueEvE4typeERS2_S5_, symObjAddr: 0xEA14, symBinAddr: 0x100012014, symSize: 0x1C0 }
  - { offsetInCU: 0x57F4, offset: 0x57F4, size: 0x8, addend: 0x0, symName: __ZNSt3__110__loadwordB7v160006IjEET_PKv, symObjAddr: 0xED20, symBinAddr: 0x100012320, symSize: 0x240 }
  - { offsetInCU: 0x583C, offset: 0x583C, size: 0x8, addend: 0x0, symName: __ZNSt3__116__pad_and_outputB7v160006IcNS_11char_traitsIcEEEENS_19ostreambuf_iteratorIT_T0_EES6_PKS4_S8_S8_RNS_8ios_baseES4_, symObjAddr: 0x106D0, symBinAddr: 0x100013CD0, symSize: 0xB88 }
  - { offsetInCU: 0x5919, offset: 0x5919, size: 0x8, addend: 0x0, symName: __ZNSt3__112__to_addressB7v160006IcEEPT_S2_, symObjAddr: 0x121E8, symBinAddr: 0x1000157E8, symSize: 0x14 }
  - { offsetInCU: 0x5981, offset: 0x5981, size: 0x8, addend: 0x0, symName: __ZNSt3__19use_facetB7v160006INS_5ctypeIcEEEERKT_RKNS_6localeE, symObjAddr: 0x13068, symBinAddr: 0x100016668, symSize: 0x188 }
  - { offsetInCU: 0x8750, offset: 0x8750, size: 0x8, addend: 0x0, symName: __ZN5FieldC2EPKc, symObjAddr: 0x0, symBinAddr: 0x100003600, symSize: 0xEC }
  - { offsetInCU: 0x878C, offset: 0x878C, size: 0x8, addend: 0x0, symName: __ZNSt3__112basic_stringIcNS_11char_traitsIcEENS_9allocatorIcEEEC1B7v160006IDnEEPKc, symObjAddr: 0xEC, symBinAddr: 0x1000036EC, symSize: 0x80 }
  - { offsetInCU: 0x87C8, offset: 0x87C8, size: 0x8, addend: 0x0, symName: __ZN5FieldC1EPKc, symObjAddr: 0x16C, symBinAddr: 0x10000376C, symSize: 0x80 }
  - { offsetInCU: 0x87FF, offset: 0x87FF, size: 0x8, addend: 0x0, symName: __ZN5FieldC2ERKNSt3__112basic_stringIcNS0_11char_traitsIcEENS0_9allocatorIcEEEE, symObjAddr: 0x1EC, symBinAddr: 0x1000037EC, symSize: 0x13C }
  - { offsetInCU: 0x8836, offset: 0x8836, size: 0x8, addend: 0x0, symName: __ZN5FieldC1ERKNSt3__112basic_stringIcNS0_11char_traitsIcEENS0_9allocatorIcEEEE, symObjAddr: 0x328, symBinAddr: 0x100003928, symSize: 0x80 }
  - { offsetInCU: 0x886D, offset: 0x886D, size: 0x8, addend: 0x0, symName: __ZN5FieldC2EONSt3__112basic_stringIcNS0_11char_traitsIcEENS0_9allocatorIcEEEE, symObjAddr: 0x3A8, symBinAddr: 0x1000039A8, symSize: 0x13C }
  - { offsetInCU: 0x88A4, offset: 0x88A4, size: 0x8, addend: 0x0, symName: __ZNSt3__112basic_stringIcNS_11char_traitsIcEENS_9allocatorIcEEEC1B7v160006EOS5_, symObjAddr: 0x4E4, symBinAddr: 0x100003AE4, symSize: 0x80 }
  - { offsetInCU: 0x88DB, offset: 0x88DB, size: 0x8, addend: 0x0, symName: __ZN5FieldC1EONSt3__112basic_stringIcNS0_11char_traitsIcEENS0_9allocatorIcEEEE, symObjAddr: 0x564, symBinAddr: 0x100003B64, symSize: 0x80 }
  - { offsetInCU: 0x8912, offset: 0x8912, size: 0x8, addend: 0x0, symName: __ZN5FieldC2Ed, symObjAddr: 0x5E4, symBinAddr: 0x100003BE4, symSize: 0x128 }
  - { offsetInCU: 0x8949, offset: 0x8949, size: 0x8, addend: 0x0, symName: __ZN5FieldC1Ed, symObjAddr: 0x70C, symBinAddr: 0x100003D0C, symSize: 0x80 }
  - { offsetInCU: 0x8980, offset: 0x8980, size: 0x8, addend: 0x0, symName: __ZN5FieldC2Ei, symObjAddr: 0x78C, symBinAddr: 0x100003D8C, symSize: 0x150 }
  - { offsetInCU: 0x89B7, offset: 0x89B7, size: 0x8, addend: 0x0, symName: __ZN5FieldC1Ei, symObjAddr: 0x8DC, symBinAddr: 0x100003EDC, symSize: 0x80 }
  - { offsetInCU: 0x89EE, offset: 0x89EE, size: 0x8, addend: 0x0, symName: __ZN5FieldC2Eb, symObjAddr: 0x95C, symBinAddr: 0x100003F5C, symSize: 0x194 }
  - { offsetInCU: 0x8A25, offset: 0x8A25, size: 0x8, addend: 0x0, symName: __ZN5FieldC1Eb, symObjAddr: 0xAF0, symBinAddr: 0x1000040F0, symSize: 0xBC }
  - { offsetInCU: 0x8A5D, offset: 0x8A5D, size: 0x8, addend: 0x0, symName: __ZN5FieldC2ERKS_, symObjAddr: 0xBAC, symBinAddr: 0x1000041AC, symSize: 0x1C8 }
  - { offsetInCU: 0x8A96, offset: 0x8A96, size: 0x8, addend: 0x0, symName: __ZN5Field14construct_fromIRKS_EEvOT_, symObjAddr: 0xD74, symBinAddr: 0x100004374, symSize: 0x684 }
  - { offsetInCU: 0x8AD2, offset: 0x8AD2, size: 0x8, addend: 0x0, symName: __ZN5FieldC1ERKS_, symObjAddr: 0x1408, symBinAddr: 0x100004A08, symSize: 0x80 }
  - { offsetInCU: 0x8B0B, offset: 0x8B0B, size: 0x8, addend: 0x0, symName: __ZN5FieldC2EOS_, symObjAddr: 0x1488, symBinAddr: 0x100004A88, symSize: 0x1DC }
  - { offsetInCU: 0x8B44, offset: 0x8B44, size: 0x8, addend: 0x0, symName: __ZN5Field14construct_fromIS_EEvOT_, symObjAddr: 0x1664, symBinAddr: 0x100004C64, symSize: 0x684 }
  - { offsetInCU: 0x8B80, offset: 0x8B80, size: 0x8, addend: 0x0, symName: __ZN5FieldC1EOS_, symObjAddr: 0x1D04, symBinAddr: 0x100005304, symSize: 0x80 }
  - { offsetInCU: 0x8BB9, offset: 0x8BB9, size: 0x8, addend: 0x0, symName: __ZN5FieldD2Ev, symObjAddr: 0x1D84, symBinAddr: 0x100005384, symSize: 0x144 }
  - { offsetInCU: 0x8BE4, offset: 0x8BE4, size: 0x8, addend: 0x0, symName: __ZN5FieldD1Ev, symObjAddr: 0x1EC8, symBinAddr: 0x1000054C8, symSize: 0x78 }
  - { offsetInCU: 0x8C0F, offset: 0x8C0F, size: 0x8, addend: 0x0, symName: __ZNK5FieldltERKS_, symObjAddr: 0x1F40, symBinAddr: 0x100005540, symSize: 0xC0 }
  - { offsetInCU: 0x8C44, offset: 0x8C44, size: 0x8, addend: 0x0, symName: __ZNK5Field7compareINSt3__14lessEEEbRKS_, symObjAddr: 0x2000, symBinAddr: 0x100005600, symSize: 0x888 }
  - { offsetInCU: 0x8C82, offset: 0x8C82, size: 0x8, addend: 0x0, symName: __ZNK5FieldgtERKS_, symObjAddr: 0x2898, symBinAddr: 0x100005E98, symSize: 0xC0 }
  - { offsetInCU: 0x8CB7, offset: 0x8CB7, size: 0x8, addend: 0x0, symName: __ZNK5Field7compareINSt3__17greaterEEEbRKS_, symObjAddr: 0x2958, symBinAddr: 0x100005F58, symSize: 0x888 }
  - { offsetInCU: 0x8CF5, offset: 0x8CF5, size: 0x8, addend: 0x0, symName: __ZNK5FieldeqERKS_, symObjAddr: 0x31F0, symBinAddr: 0x1000067F0, symSize: 0xC0 }
  - { offsetInCU: 0x8D2A, offset: 0x8D2A, size: 0x8, addend: 0x0, symName: __ZNK5Field7compareINSt3__18equal_toEEEbRKS_, symObjAddr: 0x32B0, symBinAddr: 0x1000068B0, symSize: 0x888 }
  - { offsetInCU: 0x8D68, offset: 0x8D68, size: 0x8, addend: 0x0, symName: __ZNK5FieldneERKS_, symObjAddr: 0x3B48, symBinAddr: 0x100007148, symSize: 0xC0 }
  - { offsetInCU: 0x8D9D, offset: 0x8D9D, size: 0x8, addend: 0x0, symName: __ZNK5Field7compareINSt3__112not_equal_toEEEbRKS_, symObjAddr: 0x3C08, symBinAddr: 0x100007208, symSize: 0x888 }
  - { offsetInCU: 0x8DDB, offset: 0x8DDB, size: 0x8, addend: 0x0, symName: __ZNK5Field2asINSt3__112basic_stringIcNS1_11char_traitsIcEENS1_9allocatorIcEEEEEENS1_11conditionalIXsr12is_fast_passINS1_5decayIT_E4typeEEE5valueESC_NS1_20add_lvalue_referenceINS1_9add_constISC_E4typeEE4typeEE4typeEv, symObjAddr: 0x44A0, symBinAddr: 0x100007AA0, symSize: 0x1A8 }
  - { offsetInCU: 0x8E0D, offset: 0x8E0D, size: 0x8, addend: 0x0, symName: __ZNK5Field2asIdEENSt3__111conditionalIXsr12is_fast_passINS1_5decayIT_E4typeEEE5valueES6_NS1_20add_lvalue_referenceINS1_9add_constIS6_E4typeEE4typeEE4typeEv, symObjAddr: 0x4648, symBinAddr: 0x100007C48, symSize: 0x1DC }
  - { offsetInCU: 0x8E3F, offset: 0x8E3F, size: 0x8, addend: 0x0, symName: __ZNK5Field2asIiEENSt3__111conditionalIXsr12is_fast_passINS1_5decayIT_E4typeEEE5valueES6_NS1_20add_lvalue_referenceINS1_9add_constIS6_E4typeEE4typeEE4typeEv, symObjAddr: 0x4824, symBinAddr: 0x100007E24, symSize: 0x204 }
  - { offsetInCU: 0x8E71, offset: 0x8E71, size: 0x8, addend: 0x0, symName: __ZNK5Field2asIbEENSt3__111conditionalIXsr12is_fast_passINS1_5decayIT_E4typeEEE5valueES6_NS1_20add_lvalue_referenceINS1_9add_constIS6_E4typeEE4typeEE4typeEv, symObjAddr: 0x4A28, symBinAddr: 0x100008028, symSize: 0x234 }
  - { offsetInCU: 0x8EAD, offset: 0x8EAD, size: 0x8, addend: 0x0, symName: __ZNKSt3__14hashI5FieldEclERKS1_, symObjAddr: 0x4C5C, symBinAddr: 0x10000825C, symSize: 0x6F0 }
  - { offsetInCU: 0x8EEE, offset: 0x8EEE, size: 0x8, addend: 0x0, symName: __ZNKSt3__113__string_hashIcNS_9allocatorIcEEEclERKNS_12basic_stringIcNS_11char_traitsIcEES2_EE, symObjAddr: 0x535C, symBinAddr: 0x10000895C, symSize: 0x1EC }
  - { offsetInCU: 0x8F36, offset: 0x8F36, size: 0x8, addend: 0x0, symName: __ZNKSt3__14hashIdEclB7v160006Ed, symObjAddr: 0x5548, symBinAddr: 0x100008B48, symSize: 0x80 }
  - { offsetInCU: 0x8F74, offset: 0x8F74, size: 0x8, addend: 0x0, symName: __ZNKSt3__14hashIiEclB7v160006Ei, symObjAddr: 0x55C8, symBinAddr: 0x100008BC8, symSize: 0x50 }
  - { offsetInCU: 0x8FB2, offset: 0x8FB2, size: 0x8, addend: 0x0, symName: __ZNKSt3__14hashIbEclB7v160006Eb, symObjAddr: 0x5618, symBinAddr: 0x100008C18, symSize: 0x8C }
  - { offsetInCU: 0x8FE5, offset: 0x8FE5, size: 0x8, addend: 0x0, symName: __ZlsRNSt3__113basic_ostreamIcNS_11char_traitsIcEEEERK5Field, symObjAddr: 0x56A4, symBinAddr: 0x100008CA4, symSize: 0x870 }
  - { offsetInCU: 0x9020, offset: 0x9020, size: 0x8, addend: 0x0, symName: __ZNKSt3__113__scalar_hashIdLm1EEclB7v160006Ed, symObjAddr: 0x6050, symBinAddr: 0x100009650, symSize: 0x250 }
  - { offsetInCU: 0x908A, offset: 0x908A, size: 0x8, addend: 0x0, symName: __ZNSt3__112basic_stringIcNS_11char_traitsIcEENS_9allocatorIcEEEC2B7v160006IDnEEPKc, symObjAddr: 0x62A0, symBinAddr: 0x1000098A0, symSize: 0x280 }
  - { offsetInCU: 0x90CD, offset: 0x90CD, size: 0x8, addend: 0x0, symName: __ZNSt3__117__compressed_pairINS_12basic_stringIcNS_11char_traitsIcEENS_9allocatorIcEEE5__repES5_EC1B7v160006INS_18__default_init_tagESA_EEOT_OT0_, symObjAddr: 0x6520, symBinAddr: 0x100009B20, symSize: 0x88 }
  - { offsetInCU: 0x9124, offset: 0x9124, size: 0x8, addend: 0x0, symName: __ZNSt3__111char_traitsIcE6lengthEPKc, symObjAddr: 0x65A8, symBinAddr: 0x100009BA8, symSize: 0x40 }
  - { offsetInCU: 0x9146, offset: 0x9146, size: 0x8, addend: 0x0, symName: __ZNSt3__117__compressed_pairINS_12basic_stringIcNS_11char_traitsIcEENS_9allocatorIcEEE5__repES5_EC2B7v160006INS_18__default_init_tagESA_EEOT_OT0_, symObjAddr: 0x65F8, symBinAddr: 0x100009BF8, symSize: 0xF4 }
  - { offsetInCU: 0x919C, offset: 0x919C, size: 0x8, addend: 0x0, symName: __ZNSt3__122__compressed_pair_elemINS_12basic_stringIcNS_11char_traitsIcEENS_9allocatorIcEEE5__repELi0ELb0EEC2B7v160006ENS_18__default_init_tagE, symObjAddr: 0x66EC, symBinAddr: 0x100009CEC, symSize: 0x6C }
  - { offsetInCU: 0x91CF, offset: 0x91CF, size: 0x8, addend: 0x0, symName: __ZNSt3__122__compressed_pair_elemINS_9allocatorIcEELi1ELb1EEC2B7v160006ENS_18__default_init_tagE, symObjAddr: 0x6758, symBinAddr: 0x100009D58, symSize: 0x84 }
  - { offsetInCU: 0x9202, offset: 0x9202, size: 0x8, addend: 0x0, symName: __ZNSt3__19allocatorIcEC2B7v160006Ev, symObjAddr: 0x67DC, symBinAddr: 0x100009DDC, symSize: 0x84 }
  - { offsetInCU: 0x922A, offset: 0x922A, size: 0x8, addend: 0x0, symName: __ZNSt3__116__non_trivial_ifILb1ENS_9allocatorIcEEEC2B7v160006Ev, symObjAddr: 0x6860, symBinAddr: 0x100009E60, symSize: 0x54 }
  - { offsetInCU: 0x9252, offset: 0x9252, size: 0x8, addend: 0x0, symName: __ZNSt3__112basic_stringIcNS_11char_traitsIcEENS_9allocatorIcEEEC2B7v160006EOS5_, symObjAddr: 0x68D8, symBinAddr: 0x100009ED8, symSize: 0xF8 }
  - { offsetInCU: 0x928A, offset: 0x928A, size: 0x8, addend: 0x0, symName: __ZNSt3__112basic_stringIcNS_11char_traitsIcEENS_9allocatorIcEEE14__default_initB7v160006Ev, symObjAddr: 0x69D0, symBinAddr: 0x100009FD0, symSize: 0x2B4 }
  - { offsetInCU: 0x92B0, offset: 0x92B0, size: 0x8, addend: 0x0, symName: __ZNKSt3__112basic_stringIcNS_11char_traitsIcEENS_9allocatorIcEEE9__is_longB7v160006Ev, symObjAddr: 0x6C84, symBinAddr: 0x10000A284, symSize: 0x1FC }
  - { offsetInCU: 0x92D5, offset: 0x92D5, size: 0x8, addend: 0x0, symName: __ZNSt3__117__compressed_pairINS_12basic_stringIcNS_11char_traitsIcEENS_9allocatorIcEEE5__repES5_E5firstB7v160006Ev, symObjAddr: 0x6E94, symBinAddr: 0x10000A494, symSize: 0x124 }
  - { offsetInCU: 0x92FA, offset: 0x92FA, size: 0x8, addend: 0x0, symName: __ZNSt3__122__compressed_pair_elemINS_12basic_stringIcNS_11char_traitsIcEENS_9allocatorIcEEE5__repELi0ELb0EE5__getB7v160006Ev, symObjAddr: 0x6FB8, symBinAddr: 0x10000A5B8, symSize: 0xAC }
  - { offsetInCU: 0x931F, offset: 0x931F, size: 0x8, addend: 0x0, symName: __ZNKSt3__117__compressed_pairINS_12basic_stringIcNS_11char_traitsIcEENS_9allocatorIcEEE5__repES5_E5firstB7v160006Ev, symObjAddr: 0x7064, symBinAddr: 0x10000A664, symSize: 0x124 }
  - { offsetInCU: 0x9344, offset: 0x9344, size: 0x8, addend: 0x0, symName: __ZNKSt3__122__compressed_pair_elemINS_12basic_stringIcNS_11char_traitsIcEENS_9allocatorIcEEE5__repELi0ELb0EE5__getB7v160006Ev, symObjAddr: 0x7188, symBinAddr: 0x10000A788, symSize: 0xAC }
  - { offsetInCU: 0x9373, offset: 0x9373, size: 0x8, addend: 0x0, symName: __ZNKSt3__14lessINS_12basic_stringIcNS_11char_traitsIcEENS_9allocatorIcEEEEEclB7v160006ERKS6_S9_, symObjAddr: 0x7234, symBinAddr: 0x10000A834, symSize: 0xF0 }
  - { offsetInCU: 0x93CA, offset: 0x93CA, size: 0x8, addend: 0x0, symName: __ZNKSt3__14lessIdEclB7v160006ERKdS3_, symObjAddr: 0x7324, symBinAddr: 0x10000A924, symSize: 0xEC }
  - { offsetInCU: 0x9421, offset: 0x9421, size: 0x8, addend: 0x0, symName: __ZNKSt3__14lessIiEclB7v160006ERKiS3_, symObjAddr: 0x7410, symBinAddr: 0x10000AA10, symSize: 0x13C }
  - { offsetInCU: 0x9473, offset: 0x9473, size: 0x8, addend: 0x0, symName: __ZNKSt3__14lessIbEclB7v160006ERKbS3_, symObjAddr: 0x754C, symBinAddr: 0x10000AB4C, symSize: 0x19C }
  - { offsetInCU: 0x94B6, offset: 0x94B6, size: 0x8, addend: 0x0, symName: __ZNKSt3__112basic_stringIcNS_11char_traitsIcEENS_9allocatorIcEEE7compareB7v160006ERKS5_, symObjAddr: 0x7794, symBinAddr: 0x10000AD94, symSize: 0x2A8 }
  - { offsetInCU: 0x94EE, offset: 0x94EE, size: 0x8, addend: 0x0, symName: __ZNKSt3__112basic_stringIcNS_11char_traitsIcEENS_9allocatorIcEEE7compareINS_17basic_string_viewIcS2_EEEENS_9enable_ifIXsr33__can_be_converted_to_string_viewIcS2_T_EE5valueEiE4typeERKSA_, symObjAddr: 0x7A3C, symBinAddr: 0x10000B03C, symSize: 0x570 }
  - { offsetInCU: 0x9578, offset: 0x9578, size: 0x8, addend: 0x0, symName: __ZNKSt3__112basic_stringIcNS_11char_traitsIcEENS_9allocatorIcEEEcvNS_17basic_string_viewIcS2_EEB7v160006Ev, symObjAddr: 0x7FAC, symBinAddr: 0x10000B5AC, symSize: 0x26C }
  - { offsetInCU: 0x959E, offset: 0x959E, size: 0x8, addend: 0x0, symName: __ZNKSt3__112basic_stringIcNS_11char_traitsIcEENS_9allocatorIcEEE4sizeB7v160006Ev, symObjAddr: 0x8218, symBinAddr: 0x10000B818, symSize: 0x98 }
  - { offsetInCU: 0x95C3, offset: 0x95C3, size: 0x8, addend: 0x0, symName: __ZNKSt3__117basic_string_viewIcNS_11char_traitsIcEEE4sizeB7v160006Ev, symObjAddr: 0x82B0, symBinAddr: 0x10000B8B0, symSize: 0xB0 }
  - { offsetInCU: 0x95E8, offset: 0x95E8, size: 0x8, addend: 0x0, symName: __ZNSt3__111char_traitsIcE7compareEPKcS3_m, symObjAddr: 0x8360, symBinAddr: 0x10000B960, symSize: 0x78 }
  - { offsetInCU: 0x9627, offset: 0x9627, size: 0x8, addend: 0x0, symName: __ZNKSt3__112basic_stringIcNS_11char_traitsIcEENS_9allocatorIcEEE4dataB7v160006Ev, symObjAddr: 0x83D8, symBinAddr: 0x10000B9D8, symSize: 0x70 }
  - { offsetInCU: 0x964C, offset: 0x964C, size: 0x8, addend: 0x0, symName: __ZNKSt3__117basic_string_viewIcNS_11char_traitsIcEEE4dataB7v160006Ev, symObjAddr: 0x8448, symBinAddr: 0x10000BA48, symSize: 0xAC }
  - { offsetInCU: 0x9671, offset: 0x9671, size: 0x8, addend: 0x0, symName: __ZNKSt3__112basic_stringIcNS_11char_traitsIcEENS_9allocatorIcEEE15__get_long_sizeB7v160006Ev, symObjAddr: 0x85F8, symBinAddr: 0x10000BBF8, symSize: 0x210 }
  - { offsetInCU: 0x9696, offset: 0x9696, size: 0x8, addend: 0x0, symName: __ZNKSt3__112basic_stringIcNS_11char_traitsIcEENS_9allocatorIcEEE16__get_short_sizeB7v160006Ev, symObjAddr: 0x8808, symBinAddr: 0x10000BE08, symSize: 0x1F8 }
  - { offsetInCU: 0x96BB, offset: 0x96BB, size: 0x8, addend: 0x0, symName: __ZNKSt3__112basic_stringIcNS_11char_traitsIcEENS_9allocatorIcEEE13__get_pointerB7v160006Ev, symObjAddr: 0x8A48, symBinAddr: 0x10000C048, symSize: 0x98 }
  - { offsetInCU: 0x96E0, offset: 0x96E0, size: 0x8, addend: 0x0, symName: __ZNKSt3__112basic_stringIcNS_11char_traitsIcEENS_9allocatorIcEEE18__get_long_pointerB7v160006Ev, symObjAddr: 0x8AE0, symBinAddr: 0x10000C0E0, symSize: 0x208 }
  - { offsetInCU: 0x9705, offset: 0x9705, size: 0x8, addend: 0x0, symName: __ZNKSt3__112basic_stringIcNS_11char_traitsIcEENS_9allocatorIcEEE19__get_short_pointerB7v160006Ev, symObjAddr: 0x8CE8, symBinAddr: 0x10000C2E8, symSize: 0x1CC }
  - { offsetInCU: 0x972A, offset: 0x972A, size: 0x8, addend: 0x0, symName: __ZNSt3__114pointer_traitsIPKcE10pointer_toB7v160006ERS1_, symObjAddr: 0x8EB4, symBinAddr: 0x10000C4B4, symSize: 0x14 }
  - { offsetInCU: 0x975C, offset: 0x975C, size: 0x8, addend: 0x0, symName: __ZNKSt3__16__lessImmEclB7v160006ERKmS3_, symObjAddr: 0x9188, symBinAddr: 0x10000C788, symSize: 0xEC }
  - { offsetInCU: 0x979C, offset: 0x979C, size: 0x8, addend: 0x0, symName: __ZNSt3__117basic_string_viewIcNS_11char_traitsIcEEEC1B7v160006EPKcm, symObjAddr: 0x9274, symBinAddr: 0x10000C874, symSize: 0x88 }
  - { offsetInCU: 0x97E2, offset: 0x97E2, size: 0x8, addend: 0x0, symName: __ZNSt3__117basic_string_viewIcNS_11char_traitsIcEEEC2B7v160006EPKcm, symObjAddr: 0x92FC, symBinAddr: 0x10000C8FC, symSize: 0x128 }
  - { offsetInCU: 0x9833, offset: 0x9833, size: 0x8, addend: 0x0, symName: __ZNKSt3__17greaterINS_12basic_stringIcNS_11char_traitsIcEENS_9allocatorIcEEEEEclB7v160006ERKS6_S9_, symObjAddr: 0x9424, symBinAddr: 0x10000CA24, symSize: 0xF0 }
  - { offsetInCU: 0x9880, offset: 0x9880, size: 0x8, addend: 0x0, symName: __ZNKSt3__17greaterIdEclB7v160006ERKdS3_, symObjAddr: 0x9514, symBinAddr: 0x10000CB14, symSize: 0xEC }
  - { offsetInCU: 0x98CD, offset: 0x98CD, size: 0x8, addend: 0x0, symName: __ZNKSt3__17greaterIiEclB7v160006ERKiS3_, symObjAddr: 0x9600, symBinAddr: 0x10000CC00, symSize: 0x13C }
  - { offsetInCU: 0x991A, offset: 0x991A, size: 0x8, addend: 0x0, symName: __ZNKSt3__17greaterIbEclB7v160006ERKbS3_, symObjAddr: 0x973C, symBinAddr: 0x10000CD3C, symSize: 0x19C }
  - { offsetInCU: 0x9967, offset: 0x9967, size: 0x8, addend: 0x0, symName: __ZNKSt3__18equal_toINS_12basic_stringIcNS_11char_traitsIcEENS_9allocatorIcEEEEEclB7v160006ERKS6_S9_, symObjAddr: 0x9998, symBinAddr: 0x10000CF98, symSize: 0xF0 }
  - { offsetInCU: 0x99B4, offset: 0x99B4, size: 0x8, addend: 0x0, symName: __ZNKSt3__18equal_toIdEclB7v160006ERKdS3_, symObjAddr: 0x9A88, symBinAddr: 0x10000D088, symSize: 0xEC }
  - { offsetInCU: 0x9A01, offset: 0x9A01, size: 0x8, addend: 0x0, symName: __ZNKSt3__18equal_toIiEclB7v160006ERKiS3_, symObjAddr: 0x9B74, symBinAddr: 0x10000D174, symSize: 0x13C }
  - { offsetInCU: 0x9A4E, offset: 0x9A4E, size: 0x8, addend: 0x0, symName: __ZNKSt3__18equal_toIbEclB7v160006ERKbS3_, symObjAddr: 0x9CB0, symBinAddr: 0x10000D2B0, symSize: 0x19C }
  - { offsetInCU: 0x9A9B, offset: 0x9A9B, size: 0x8, addend: 0x0, symName: __ZNKSt3__112not_equal_toINS_12basic_stringIcNS_11char_traitsIcEENS_9allocatorIcEEEEEclB7v160006ERKS6_S9_, symObjAddr: 0xA2A4, symBinAddr: 0x10000D8A4, symSize: 0xF0 }
  - { offsetInCU: 0x9AE8, offset: 0x9AE8, size: 0x8, addend: 0x0, symName: __ZNKSt3__112not_equal_toIdEclB7v160006ERKdS3_, symObjAddr: 0xA394, symBinAddr: 0x10000D994, symSize: 0xEC }
  - { offsetInCU: 0x9B35, offset: 0x9B35, size: 0x8, addend: 0x0, symName: __ZNKSt3__112not_equal_toIiEclB7v160006ERKiS3_, symObjAddr: 0xA480, symBinAddr: 0x10000DA80, symSize: 0x13C }
  - { offsetInCU: 0x9B82, offset: 0x9B82, size: 0x8, addend: 0x0, symName: __ZNKSt3__112not_equal_toIbEclB7v160006ERKbS3_, symObjAddr: 0xA5BC, symBinAddr: 0x10000DBBC, symSize: 0x19C }
  - { offsetInCU: 0x9BC5, offset: 0x9BC5, size: 0x8, addend: 0x0, symName: __ZNSt3__121__murmur2_or_cityhashImLm64EEclEPKvm, symObjAddr: 0xAA08, symBinAddr: 0x10000E008, symSize: 0x1C6C }
  - { offsetInCU: 0x9C71, offset: 0x9C71, size: 0x8, addend: 0x0, symName: __ZNSt3__121__murmur2_or_cityhashImLm64EE18__hash_len_0_to_16EPKcm, symObjAddr: 0xC674, symBinAddr: 0x10000FC74, symSize: 0x88C }
  - { offsetInCU: 0x9D52, offset: 0x9D52, size: 0x8, addend: 0x0, symName: __ZNSt3__121__murmur2_or_cityhashImLm64EE19__hash_len_17_to_32EPKcm, symObjAddr: 0xCF00, symBinAddr: 0x100010500, symSize: 0x494 }
  - { offsetInCU: 0x9DBB, offset: 0x9DBB, size: 0x8, addend: 0x0, symName: __ZNSt3__121__murmur2_or_cityhashImLm64EE19__hash_len_33_to_64EPKcm, symObjAddr: 0xD394, symBinAddr: 0x100010994, symSize: 0xBEC }
  - { offsetInCU: 0x9E6F, offset: 0x9E6F, size: 0x8, addend: 0x0, symName: __ZNSt3__121__murmur2_or_cityhashImLm64EE13__hash_len_16Emm, symObjAddr: 0xE194, symBinAddr: 0x100011794, symSize: 0xF0 }
  - { offsetInCU: 0x9ECA, offset: 0x9ECA, size: 0x8, addend: 0x0, symName: __ZNSt3__121__murmur2_or_cityhashImLm64EE29__weak_hash_len_32_with_seedsEPKcmm, symObjAddr: 0xE284, symBinAddr: 0x100011884, symSize: 0x42C }
  - { offsetInCU: 0x9F0C, offset: 0x9F0C, size: 0x8, addend: 0x0, symName: __ZNSt3__121__murmur2_or_cityhashImLm64EE8__rotateEmi, symObjAddr: 0xE6B0, symBinAddr: 0x100011CB0, symSize: 0x11C }
  - { offsetInCU: 0x9F3D, offset: 0x9F3D, size: 0x8, addend: 0x0, symName: __ZNSt3__14pairImmEaSB7v160006EOS1_, symObjAddr: 0xE7CC, symBinAddr: 0x100011DCC, symSize: 0x248 }
  - { offsetInCU: 0x9F71, offset: 0x9F71, size: 0x8, addend: 0x0, symName: __ZNSt3__121__murmur2_or_cityhashImLm64EE11__shift_mixEm, symObjAddr: 0xEBD4, symBinAddr: 0x1000121D4, symSize: 0x5C }
  - { offsetInCU: 0x9F94, offset: 0x9F94, size: 0x8, addend: 0x0, symName: __ZNSt3__121__murmur2_or_cityhashImLm64EE22__rotate_by_at_least_1Emi, symObjAddr: 0xEC30, symBinAddr: 0x100012230, symSize: 0xF0 }
  - { offsetInCU: 0x9FC5, offset: 0x9FC5, size: 0x8, addend: 0x0, symName: __ZNSt3__121__murmur2_or_cityhashImLm64EE29__weak_hash_len_32_with_seedsEmmmmmm, symObjAddr: 0xEF60, symBinAddr: 0x100012560, symSize: 0x398 }
  - { offsetInCU: 0xA047, offset: 0xA047, size: 0x8, addend: 0x0, symName: __ZNSt3__14pairImmEC1B7v160006ImmLPv0EEEOT_OT0_, symObjAddr: 0xF2F8, symBinAddr: 0x1000128F8, symSize: 0x88 }
  - { offsetInCU: 0xA0A3, offset: 0xA0A3, size: 0x8, addend: 0x0, symName: __ZNSt3__14pairImmEC2B7v160006ImmLPv0EEEOT_OT0_, symObjAddr: 0xF380, symBinAddr: 0x100012980, symSize: 0x210 }
  - { offsetInCU: 0xA11E, offset: 0xA11E, size: 0x8, addend: 0x0, symName: __ZNKSt3__113basic_ostreamIcNS_11char_traitsIcEEE6sentrycvbB7v160006Ev, symObjAddr: 0x105CC, symBinAddr: 0x100013BCC, symSize: 0x104 }
  - { offsetInCU: 0xA142, offset: 0xA142, size: 0x8, addend: 0x0, symName: __ZNSt3__119ostreambuf_iteratorIcNS_11char_traitsIcEEEC1B7v160006ERNS_13basic_ostreamIcS2_EE, symObjAddr: 0x11258, symBinAddr: 0x100014858, symSize: 0x80 }
  - { offsetInCU: 0xA179, offset: 0xA179, size: 0x8, addend: 0x0, symName: __ZNKSt3__18ios_base5flagsB7v160006Ev, symObjAddr: 0x112D8, symBinAddr: 0x1000148D8, symSize: 0x160 }
  - { offsetInCU: 0xA1A0, offset: 0xA1A0, size: 0x8, addend: 0x0, symName: __ZNKSt3__19basic_iosIcNS_11char_traitsIcEEE4fillB7v160006Ev, symObjAddr: 0x11438, symBinAddr: 0x100014A38, symSize: 0x39C }
  - { offsetInCU: 0xA1C7, offset: 0xA1C7, size: 0x8, addend: 0x0, symName: __ZNKSt3__119ostreambuf_iteratorIcNS_11char_traitsIcEEE6failedB7v160006Ev, symObjAddr: 0x117D4, symBinAddr: 0x100014DD4, symSize: 0xB8 }
  - { offsetInCU: 0xA1EC, offset: 0xA1EC, size: 0x8, addend: 0x0, symName: __ZNSt3__19basic_iosIcNS_11char_traitsIcEEE8setstateB7v160006Ej, symObjAddr: 0x1188C, symBinAddr: 0x100014E8C, symSize: 0x128 }
  - { offsetInCU: 0xA220, offset: 0xA220, size: 0x8, addend: 0x0, symName: __ZNKSt3__18ios_base5widthB7v160006Ev, symObjAddr: 0x119B4, symBinAddr: 0x100014FB4, symSize: 0x138 }
  - { offsetInCU: 0xA247, offset: 0xA247, size: 0x8, addend: 0x0, symName: __ZNSt3__115basic_streambufIcNS_11char_traitsIcEEE5sputnB7v160006EPKcl, symObjAddr: 0x11AEC, symBinAddr: 0x1000150EC, symSize: 0x198 }
  - { offsetInCU: 0xA287, offset: 0xA287, size: 0x8, addend: 0x0, symName: __ZNSt3__112basic_stringIcNS_11char_traitsIcEENS_9allocatorIcEEEC1B7v160006Emc, symObjAddr: 0x11C84, symBinAddr: 0x100015284, symSize: 0x88 }
  - { offsetInCU: 0xA2CE, offset: 0xA2CE, size: 0x8, addend: 0x0, symName: __ZNSt3__112basic_stringIcNS_11char_traitsIcEENS_9allocatorIcEEE4dataB7v160006Ev, symObjAddr: 0x11D0C, symBinAddr: 0x10001530C, symSize: 0x70 }
  - { offsetInCU: 0xA2F3, offset: 0xA2F3, size: 0x8, addend: 0x0, symName: __ZNSt3__18ios_base5widthB7v160006El, symObjAddr: 0x11D7C, symBinAddr: 0x10001537C, symSize: 0x1F8 }
  - { offsetInCU: 0xA337, offset: 0xA337, size: 0x8, addend: 0x0, symName: __ZNSt3__112basic_stringIcNS_11char_traitsIcEENS_9allocatorIcEEEC2B7v160006Emc, symObjAddr: 0x11F74, symBinAddr: 0x100015574, symSize: 0x274 }
  - { offsetInCU: 0xA381, offset: 0xA381, size: 0x8, addend: 0x0, symName: __ZNSt3__112basic_stringIcNS_11char_traitsIcEENS_9allocatorIcEEE13__get_pointerB7v160006Ev, symObjAddr: 0x121FC, symBinAddr: 0x1000157FC, symSize: 0x98 }
  - { offsetInCU: 0xA3A6, offset: 0xA3A6, size: 0x8, addend: 0x0, symName: __ZNSt3__112basic_stringIcNS_11char_traitsIcEENS_9allocatorIcEEE18__get_long_pointerB7v160006Ev, symObjAddr: 0x12294, symBinAddr: 0x100015894, symSize: 0x208 }
  - { offsetInCU: 0xA3CB, offset: 0xA3CB, size: 0x8, addend: 0x0, symName: __ZNSt3__112basic_stringIcNS_11char_traitsIcEENS_9allocatorIcEEE19__get_short_pointerB7v160006Ev, symObjAddr: 0x1249C, symBinAddr: 0x100015A9C, symSize: 0x1CC }
  - { offsetInCU: 0xA3F0, offset: 0xA3F0, size: 0x8, addend: 0x0, symName: __ZNSt3__114pointer_traitsIPcE10pointer_toB7v160006ERc, symObjAddr: 0x12668, symBinAddr: 0x100015C68, symSize: 0x14 }
  - { offsetInCU: 0xA412, offset: 0xA412, size: 0x8, addend: 0x0, symName: __ZNSt3__119ostreambuf_iteratorIcNS_11char_traitsIcEEEC2B7v160006ERNS_13basic_ostreamIcS2_EE, symObjAddr: 0x1267C, symBinAddr: 0x100015C7C, symSize: 0x2E8 }
  - { offsetInCU: 0xA449, offset: 0xA449, size: 0x8, addend: 0x0, symName: __ZNKSt3__19basic_iosIcNS_11char_traitsIcEEE5rdbufB7v160006Ev, symObjAddr: 0x12964, symBinAddr: 0x100015F64, symSize: 0x120 }
  - { offsetInCU: 0xA470, offset: 0xA470, size: 0x8, addend: 0x0, symName: __ZNKSt3__18ios_base5rdbufB7v160006Ev, symObjAddr: 0x12A84, symBinAddr: 0x100016084, symSize: 0x138 }
  - { offsetInCU: 0xA495, offset: 0xA495, size: 0x8, addend: 0x0, symName: __ZNSt3__111char_traitsIcE11eq_int_typeEii, symObjAddr: 0x12BBC, symBinAddr: 0x1000161BC, symSize: 0x28 }
  - { offsetInCU: 0xA4C6, offset: 0xA4C6, size: 0x8, addend: 0x0, symName: __ZNSt3__111char_traitsIcE3eofEv, symObjAddr: 0x12BE4, symBinAddr: 0x1000161E4, symSize: 0x8 }
  - { offsetInCU: 0xA4DA, offset: 0xA4DA, size: 0x8, addend: 0x0, symName: __ZNKSt3__19basic_iosIcNS_11char_traitsIcEEE5widenB7v160006Ec, symObjAddr: 0x12BEC, symBinAddr: 0x1000161EC, symSize: 0x47C }
  - { offsetInCU: 0xA549, offset: 0xA549, size: 0x8, addend: 0x0, symName: __ZNKSt3__15ctypeIcE5widenB7v160006Ec, symObjAddr: 0x131F0, symBinAddr: 0x1000167F0, symSize: 0x18C }
  - { offsetInCU: 0xA57D, offset: 0xA57D, size: 0x8, addend: 0x0, symName: __ZNSt3__18ios_base8setstateB7v160006Ej, symObjAddr: 0x1337C, symBinAddr: 0x10001697C, symSize: 0x1E0 }
  - { offsetInCU: 0x3B, offset: 0xA6DD, size: 0x8, addend: 0x0, symName: _.str, symObjAddr: 0x1152E0, symBinAddr: 0x1000F9740, symSize: 0x0 }
  - { offsetInCU: 0x6B, offset: 0xA70D, size: 0x8, addend: 0x0, symName: _.str.1, symObjAddr: 0x115300, symBinAddr: 0x1000F9760, symSize: 0x0 }
  - { offsetInCU: 0x88, offset: 0xA72A, size: 0x8, addend: 0x0, symName: _.str.2, symObjAddr: 0x115320, symBinAddr: 0x1000F9780, symSize: 0x0 }
  - { offsetInCU: 0xA5, offset: 0xA747, size: 0x8, addend: 0x0, symName: _.str.3, symObjAddr: 0x115340, symBinAddr: 0x1000F97A0, symSize: 0x0 }
  - { offsetInCU: 0xC2, offset: 0xA764, size: 0x8, addend: 0x0, symName: _.str.4, symObjAddr: 0x1153A0, symBinAddr: 0x1000F9800, symSize: 0x0 }
  - { offsetInCU: 0xDF, offset: 0xA781, size: 0x8, addend: 0x0, symName: _.str.5, symObjAddr: 0x1153C0, symBinAddr: 0x1000F9820, symSize: 0x0 }
  - { offsetInCU: 0xFC, offset: 0xA79E, size: 0x8, addend: 0x0, symName: _.str.6, symObjAddr: 0x115420, symBinAddr: 0x1000F9880, symSize: 0x0 }
  - { offsetInCU: 0x119, offset: 0xA7BB, size: 0x8, addend: 0x0, symName: _.str.7, symObjAddr: 0x1154A0, symBinAddr: 0x1000F9900, symSize: 0x0 }
  - { offsetInCU: 0x136, offset: 0xA7D8, size: 0x8, addend: 0x0, symName: _.str.8, symObjAddr: 0x1154E0, symBinAddr: 0x1000F9940, symSize: 0x0 }
  - { offsetInCU: 0x147, offset: 0xA7E9, size: 0x8, addend: 0x0, symName: _.str.9, symObjAddr: 0x115560, symBinAddr: 0x1000F99C0, symSize: 0x0 }
  - { offsetInCU: 0x158, offset: 0xA7FA, size: 0x8, addend: 0x0, symName: _.str.10, symObjAddr: 0x115580, symBinAddr: 0x1000F99E0, symSize: 0x0 }
  - { offsetInCU: 0x175, offset: 0xA817, size: 0x8, addend: 0x0, symName: _.str.11, symObjAddr: 0x1155A0, symBinAddr: 0x1000F9A00, symSize: 0x0 }
  - { offsetInCU: 0x186, offset: 0xA828, size: 0x8, addend: 0x0, symName: _.str.12, symObjAddr: 0x1155C0, symBinAddr: 0x1000F9A20, symSize: 0x0 }
  - { offsetInCU: 0x197, offset: 0xA839, size: 0x8, addend: 0x0, symName: _.str.13, symObjAddr: 0x1155E0, symBinAddr: 0x1000F9A40, symSize: 0x0 }
  - { offsetInCU: 0x1B4, offset: 0xA856, size: 0x8, addend: 0x0, symName: _.str.14, symObjAddr: 0x115600, symBinAddr: 0x1000F9A60, symSize: 0x0 }
  - { offsetInCU: 0x1D1, offset: 0xA873, size: 0x8, addend: 0x0, symName: _.str.15, symObjAddr: 0x115660, symBinAddr: 0x1000F9AC0, symSize: 0x0 }
  - { offsetInCU: 0x1EE, offset: 0xA890, size: 0x8, addend: 0x0, symName: _.str.16, symObjAddr: 0x115680, symBinAddr: 0x1000F9AE0, symSize: 0x0 }
  - { offsetInCU: 0x20B, offset: 0xA8AD, size: 0x8, addend: 0x0, symName: _.str.17, symObjAddr: 0x1156C0, symBinAddr: 0x1000F9B20, symSize: 0x0 }
  - { offsetInCU: 0x228, offset: 0xA8CA, size: 0x8, addend: 0x0, symName: _.str.18, symObjAddr: 0x1156E0, symBinAddr: 0x1000F9B40, symSize: 0x0 }
  - { offsetInCU: 0x245, offset: 0xA8E7, size: 0x8, addend: 0x0, symName: _.str.19, symObjAddr: 0x115700, symBinAddr: 0x1000F9B60, symSize: 0x0 }
  - { offsetInCU: 0x256, offset: 0xA8F8, size: 0x8, addend: 0x0, symName: _.str.20, symObjAddr: 0x115720, symBinAddr: 0x1000F9B80, symSize: 0x0 }
  - { offsetInCU: 0x267, offset: 0xA909, size: 0x8, addend: 0x0, symName: _.str.21, symObjAddr: 0x115760, symBinAddr: 0x1000F9BC0, symSize: 0x0 }
  - { offsetInCU: 0x278, offset: 0xA91A, size: 0x8, addend: 0x0, symName: _.str.22, symObjAddr: 0x1157C0, symBinAddr: 0x1000F9C20, symSize: 0x0 }
  - { offsetInCU: 0x289, offset: 0xA92B, size: 0x8, addend: 0x0, symName: _.str.23, symObjAddr: 0x1157E0, symBinAddr: 0x1000F9C40, symSize: 0x0 }
  - { offsetInCU: 0x29A, offset: 0xA93C, size: 0x8, addend: 0x0, symName: _.str.24, symObjAddr: 0x115800, symBinAddr: 0x1000F9C60, symSize: 0x0 }
  - { offsetInCU: 0x2B7, offset: 0xA959, size: 0x8, addend: 0x0, symName: _.str.25, symObjAddr: 0x115840, symBinAddr: 0x1000F9CA0, symSize: 0x0 }
  - { offsetInCU: 0x2C8, offset: 0xA96A, size: 0x8, addend: 0x0, symName: _.str.26, symObjAddr: 0x115860, symBinAddr: 0x1000F9CC0, symSize: 0x0 }
  - { offsetInCU: 0x2E5, offset: 0xA987, size: 0x8, addend: 0x0, symName: _.str.27, symObjAddr: 0x1158C0, symBinAddr: 0x1000F9D20, symSize: 0x0 }
  - { offsetInCU: 0x302, offset: 0xA9A4, size: 0x8, addend: 0x0, symName: _.str.28, symObjAddr: 0x1158E0, symBinAddr: 0x1000F9D40, symSize: 0x0 }
  - { offsetInCU: 0x313, offset: 0xA9B5, size: 0x8, addend: 0x0, symName: _.str.29, symObjAddr: 0x115900, symBinAddr: 0x1000F9D60, symSize: 0x0 }
  - { offsetInCU: 0x324, offset: 0xA9C6, size: 0x8, addend: 0x0, symName: _.str.30, symObjAddr: 0x115920, symBinAddr: 0x1000F9D80, symSize: 0x0 }
  - { offsetInCU: 0x335, offset: 0xA9D7, size: 0x8, addend: 0x0, symName: _.str.31, symObjAddr: 0x115940, symBinAddr: 0x1000F9DA0, symSize: 0x0 }
  - { offsetInCU: 0x346, offset: 0xA9E8, size: 0x8, addend: 0x0, symName: _.str.32, symObjAddr: 0x115960, symBinAddr: 0x1000F9DC0, symSize: 0x0 }
  - { offsetInCU: 0x363, offset: 0xAA05, size: 0x8, addend: 0x0, symName: _.str.33, symObjAddr: 0x115980, symBinAddr: 0x1000F9DE0, symSize: 0x0 }
  - { offsetInCU: 0x374, offset: 0xAA16, size: 0x8, addend: 0x0, symName: _.str.34, symObjAddr: 0x1159A0, symBinAddr: 0x1000F9E00, symSize: 0x0 }
  - { offsetInCU: 0x385, offset: 0xAA27, size: 0x8, addend: 0x0, symName: _.str.35, symObjAddr: 0x1159C0, symBinAddr: 0x1000F9E20, symSize: 0x0 }
  - { offsetInCU: 0x396, offset: 0xAA38, size: 0x8, addend: 0x0, symName: _.str.36, symObjAddr: 0x1159E0, symBinAddr: 0x1000F9E40, symSize: 0x0 }
  - { offsetInCU: 0x3B3, offset: 0xAA55, size: 0x8, addend: 0x0, symName: _.str.37, symObjAddr: 0x115A20, symBinAddr: 0x1000F9E80, symSize: 0x0 }
  - { offsetInCU: 0x3D0, offset: 0xAA72, size: 0x8, addend: 0x0, symName: _.str.38, symObjAddr: 0x115A60, symBinAddr: 0x1000F9EC0, symSize: 0x0 }
  - { offsetInCU: 0x3E1, offset: 0xAA83, size: 0x8, addend: 0x0, symName: _.str.39, symObjAddr: 0x115A80, symBinAddr: 0x1000F9EE0, symSize: 0x0 }
  - { offsetInCU: 0x3F2, offset: 0xAA94, size: 0x8, addend: 0x0, symName: _.str.40, symObjAddr: 0x115AA0, symBinAddr: 0x1000F9F00, symSize: 0x0 }
  - { offsetInCU: 0x403, offset: 0xAAA5, size: 0x8, addend: 0x0, symName: _.str.41, symObjAddr: 0x115AC0, symBinAddr: 0x1000F9F20, symSize: 0x0 }
  - { offsetInCU: 0x415, offset: 0xAAB7, size: 0x8, addend: 0x0, symName: _.str.42, symObjAddr: 0x115AE0, symBinAddr: 0x1000F9F40, symSize: 0x0 }
  - { offsetInCU: 0x428, offset: 0xAACA, size: 0x8, addend: 0x0, symName: _.str.43, symObjAddr: 0x115B00, symBinAddr: 0x1000F9F60, symSize: 0x0 }
  - { offsetInCU: 0x43B, offset: 0xAADD, size: 0x8, addend: 0x0, symName: _.str.44, symObjAddr: 0x115B40, symBinAddr: 0x1000F9FA0, symSize: 0x0 }
  - { offsetInCU: 0x44E, offset: 0xAAF0, size: 0x8, addend: 0x0, symName: _.str.45, symObjAddr: 0x115B60, symBinAddr: 0x1000F9FC0, symSize: 0x0 }
  - { offsetInCU: 0x461, offset: 0xAB03, size: 0x8, addend: 0x0, symName: _.str.46, symObjAddr: 0x115BA0, symBinAddr: 0x1000FA000, symSize: 0x0 }
  - { offsetInCU: 0x474, offset: 0xAB16, size: 0x8, addend: 0x0, symName: _.str.47, symObjAddr: 0x115BC0, symBinAddr: 0x1000FA020, symSize: 0x0 }
  - { offsetInCU: 0x493, offset: 0xAB35, size: 0x8, addend: 0x0, symName: _.str.48, symObjAddr: 0x115BE0, symBinAddr: 0x1000FA040, symSize: 0x0 }
  - { offsetInCU: 0x4A6, offset: 0xAB48, size: 0x8, addend: 0x0, symName: _.str.49, symObjAddr: 0x115C00, symBinAddr: 0x1000FA060, symSize: 0x0 }
  - { offsetInCU: 0x4B9, offset: 0xAB5B, size: 0x8, addend: 0x0, symName: _.str.50, symObjAddr: 0x115C20, symBinAddr: 0x1000FA080, symSize: 0x0 }
  - { offsetInCU: 0x4CC, offset: 0xAB6E, size: 0x8, addend: 0x0, symName: _.str.51, symObjAddr: 0x115C40, symBinAddr: 0x1000FA0A0, symSize: 0x0 }
  - { offsetInCU: 0x4DF, offset: 0xAB81, size: 0x8, addend: 0x0, symName: _.str.52, symObjAddr: 0x115C80, symBinAddr: 0x1000FA0E0, symSize: 0x0 }
  - { offsetInCU: 0x4F2, offset: 0xAB94, size: 0x8, addend: 0x0, symName: _.str.53, symObjAddr: 0x115CA0, symBinAddr: 0x1000FA100, symSize: 0x0 }
  - { offsetInCU: 0x511, offset: 0xABB3, size: 0x8, addend: 0x0, symName: _.str.54, symObjAddr: 0x115CE0, symBinAddr: 0x1000FA140, symSize: 0x0 }
  - { offsetInCU: 0x524, offset: 0xABC6, size: 0x8, addend: 0x0, symName: _.str.55, symObjAddr: 0x115D00, symBinAddr: 0x1000FA160, symSize: 0x0 }
  - { offsetInCU: 0x543, offset: 0xABE5, size: 0x8, addend: 0x0, symName: _.str.56, symObjAddr: 0x115D40, symBinAddr: 0x1000FA1A0, symSize: 0x0 }
  - { offsetInCU: 0x556, offset: 0xABF8, size: 0x8, addend: 0x0, symName: _.str.57, symObjAddr: 0x115D60, symBinAddr: 0x1000FA1C0, symSize: 0x0 }
  - { offsetInCU: 0x575, offset: 0xAC17, size: 0x8, addend: 0x0, symName: _.str.58, symObjAddr: 0x115D80, symBinAddr: 0x1000FA1E0, symSize: 0x0 }
  - { offsetInCU: 0x588, offset: 0xAC2A, size: 0x8, addend: 0x0, symName: _.str.59, symObjAddr: 0x115DA0, symBinAddr: 0x1000FA200, symSize: 0x0 }
  - { offsetInCU: 0x59B, offset: 0xAC3D, size: 0x8, addend: 0x0, symName: _.str.60, symObjAddr: 0x115DC0, symBinAddr: 0x1000FA220, symSize: 0x0 }
  - { offsetInCU: 0x5BA, offset: 0xAC5C, size: 0x8, addend: 0x0, symName: _.str.61, symObjAddr: 0x115E00, symBinAddr: 0x1000FA260, symSize: 0x0 }
  - { offsetInCU: 0x5D9, offset: 0xAC7B, size: 0x8, addend: 0x0, symName: _.str.62, symObjAddr: 0x115E60, symBinAddr: 0x1000FA2C0, symSize: 0x0 }
  - { offsetInCU: 0x5EC, offset: 0xAC8E, size: 0x8, addend: 0x0, symName: _.str.63, symObjAddr: 0x115EA0, symBinAddr: 0x1000FA300, symSize: 0x0 }
  - { offsetInCU: 0x5FF, offset: 0xACA1, size: 0x8, addend: 0x0, symName: _.str.64, symObjAddr: 0x115EC0, symBinAddr: 0x1000FA320, symSize: 0x0 }
  - { offsetInCU: 0x61E, offset: 0xACC0, size: 0x8, addend: 0x0, symName: _.str.65, symObjAddr: 0x115F00, symBinAddr: 0x1000FA360, symSize: 0x0 }
  - { offsetInCU: 0x631, offset: 0xACD3, size: 0x8, addend: 0x0, symName: _.str.79, symObjAddr: 0x115F40, symBinAddr: 0x1000FA3A0, symSize: 0x0 }
  - { offsetInCU: 0x651, offset: 0xACF3, size: 0x8, addend: 0x0, symName: __ZNSt3__1L19piecewise_constructE, symObjAddr: 0xDE2C0, symBinAddr: 0x1000E9C00, symSize: 0x0 }
  - { offsetInCU: 0x178A7, offset: 0x21F49, size: 0x8, addend: 0x0, symName: __ZNSt3__111__introsortINS_17_ClassicAlgPolicyERNS_6__lessImmEENS_16reverse_iteratorINS_11__wrap_iterIPmEEEEEEvT1_SA_T0_NS_15iterator_traitsISA_E15difference_typeE, symObjAddr: 0x91ED0, symBinAddr: 0x10009C988, symSize: 0x272C }
  - { offsetInCU: 0x17A53, offset: 0x220F5, size: 0x8, addend: 0x0, symName: __ZNSt3__118__insertion_sort_3B7v160006INS_17_ClassicAlgPolicyERNS_6__lessImmEENS_16reverse_iteratorINS_11__wrap_iterIPmEEEEEEvT1_SA_T0_, symObjAddr: 0x961F8, symBinAddr: 0x1000A0CB0, symSize: 0xA90 }
  - { offsetInCU: 0x17B3C, offset: 0x221DE, size: 0x8, addend: 0x0, symName: __ZNSt3__111__sift_downB7v160006INS_17_ClassicAlgPolicyERNS_6__lessImmEENS_16reverse_iteratorINS_11__wrap_iterIPmEEEEEEvT1_OT0_NS_15iterator_traitsISA_E15difference_typeESA_, symObjAddr: 0x9CE38, symBinAddr: 0x1000A78F0, symSize: 0xF0C }
  - { offsetInCU: 0x17BFE, offset: 0x222A0, size: 0x8, addend: 0x0, symName: __ZNSt3__117__floyd_sift_downB7v160006INS_17_ClassicAlgPolicyERNS_6__lessImmEENS_16reverse_iteratorINS_11__wrap_iterIPmEEEEEET1_SA_OT0_NS_15iterator_traitsISA_E15difference_typeE, symObjAddr: 0x9E98C, symBinAddr: 0x1000A9444, symSize: 0x7B8 }
  - { offsetInCU: 0x17CA5, offset: 0x22347, size: 0x8, addend: 0x0, symName: __ZNSt3__127__insertion_sort_incompleteIRNS_6__lessImmEENS_16reverse_iteratorINS_11__wrap_iterIPmEEEEEEbT0_S9_T_, symObjAddr: 0x993AC, symBinAddr: 0x1000A3E64, symSize: 0x1568 }
  - { offsetInCU: 0x1BB98, offset: 0x2623A, size: 0x8, addend: 0x0, symName: __ZNSt3__19boolalphaB7v160006ERNS_8ios_baseE, symObjAddr: 0x690, symBinAddr: 0x100017284, symSize: 0x12C }
  - { offsetInCU: 0x1C778, offset: 0x26E1A, size: 0x8, addend: 0x0, symName: __ZNSt3__1lsB7v160006INS_11char_traitsIcEEEERNS_13basic_ostreamIcT_EES6_PKc, symObjAddr: 0x13368, symBinAddr: 0x100029F5C, symSize: 0xD0 }
  - { offsetInCU: 0x1C7BE, offset: 0x26E60, size: 0x8, addend: 0x0, symName: __ZNSt3__1lsB7v160006INS_11char_traitsIcEEEERNS_13basic_ostreamIcT_EES6_c, symObjAddr: 0x13438, symBinAddr: 0x10002A02C, symSize: 0x2AC }
  - { offsetInCU: 0x1C809, offset: 0x26EAB, size: 0x8, addend: 0x0, symName: __ZNSt3__1rsB7v160006IcNS_11char_traitsIcEENS_9allocatorIcEEEERNS_13basic_istreamIT_T0_EES9_RNS_12basic_stringIS6_S7_T1_EE, symObjAddr: 0x13858, symBinAddr: 0x10002A44C, symSize: 0x1888 }
  - { offsetInCU: 0x1C8E2, offset: 0x26F84, size: 0x8, addend: 0x0, symName: __ZNSt3__17getlineB7v160006IcNS_11char_traitsIcEENS_9allocatorIcEEEERNS_13basic_istreamIT_T0_EES9_RNS_12basic_stringIS6_S7_T1_EE, symObjAddr: 0x152C8, symBinAddr: 0x10002BEBC, symSize: 0x330 }
  - { offsetInCU: 0x1C93A, offset: 0x26FDC, size: 0x8, addend: 0x0, symName: __ZNSt3__1eqB7v160006IcNS_11char_traitsIcEENS_9allocatorIcEEEEbRKNS_12basic_stringIT_T0_T1_EEPKS6_, symObjAddr: 0x155F8, symBinAddr: 0x10002C1EC, symSize: 0x120 }
  - { offsetInCU: 0x1C9A1, offset: 0x27043, size: 0x8, addend: 0x0, symName: __ZNSt3__1neB7v160006ERKNS_19__hash_map_iteratorINS_15__hash_iteratorIPNS_11__hash_nodeINS_17__hash_value_typeINS_12basic_stringIcNS_11char_traitsIcEENS_9allocatorIcEEEEP5TableEEPvEEEEEESJ_, symObjAddr: 0x15B9C, symBinAddr: 0x10002C790, symSize: 0xC0 }
  - { offsetInCU: 0x1CBC8, offset: 0x2726A, size: 0x8, addend: 0x0, symName: __ZNSt3__1neB7v160006IPNS_12basic_stringIcNS_11char_traitsIcEENS_9allocatorIcEEEEEEbRKNS_11__wrap_iterIT_EESC_, symObjAddr: 0x16F58, symBinAddr: 0x10002DA20, symSize: 0xC4 }
  - { offsetInCU: 0x1CC0B, offset: 0x272AD, size: 0x8, addend: 0x0, symName: __ZNSt3__1eqB7v160006ERKNS_19__hash_map_iteratorINS_15__hash_iteratorIPNS_11__hash_nodeINS_17__hash_value_typeINS_12basic_stringIcNS_11char_traitsIcEENS_9allocatorIcEEEEP5TableEEPvEEEEEESJ_, symObjAddr: 0x173A8, symBinAddr: 0x10002DE70, symSize: 0xC0 }
  - { offsetInCU: 0x1CC48, offset: 0x272EA, size: 0x8, addend: 0x0, symName: __ZNSt3__1neB7v160006IcNS_11char_traitsIcEENS_9allocatorIcEEEEbRKNS_12basic_stringIT_T0_T1_EEPKS6_, symObjAddr: 0x1840C, symBinAddr: 0x10002EED4, symSize: 0x7C }
  - { offsetInCU: 0x1CCA0, offset: 0x27342, size: 0x8, addend: 0x0, symName: __ZNSt3__1neB7v160006IPNS_6vectorI5FieldNS_9allocatorIS2_EEEEEEbRKNS_11__wrap_iterIT_EESB_, symObjAddr: 0x19050, symBinAddr: 0x10002FB0C, symSize: 0xC4 }
  - { offsetInCU: 0x1CCE3, offset: 0x27385, size: 0x8, addend: 0x0, symName: __ZNSt3__1miB7v160006IPNS_12basic_stringIcNS_11char_traitsIcEENS_9allocatorIcEEEES7_EEDTmicldtfp_4baseEcldtfp0_4baseEERKNS_11__wrap_iterIT_EERKNS9_IT0_EE, symObjAddr: 0x19208, symBinAddr: 0x10002FCC4, symSize: 0x9C }
  - { offsetInCU: 0x1CD2F, offset: 0x273D1, size: 0x8, addend: 0x0, symName: __ZNSt3__14findB7v160006INS_11__wrap_iterIPNS_12basic_stringIcNS_11char_traitsIcEENS_9allocatorIcEEEEEES7_EET_SA_SA_RKT0_, symObjAddr: 0x192A4, symBinAddr: 0x10002FD60, symSize: 0x3B8 }
  - { offsetInCU: 0x1D0D8, offset: 0x2777A, size: 0x8, addend: 0x0, symName: __ZNSt3__1geB7v160006IcNS_11char_traitsIcEENS_9allocatorIcEEEEbRKNS_12basic_stringIT_T0_T1_EESB_, symObjAddr: 0x19E34, symBinAddr: 0x10003082C, symSize: 0xC4 }
  - { offsetInCU: 0x1D130, offset: 0x277D2, size: 0x8, addend: 0x0, symName: __ZNSt3__1leB7v160006IcNS_11char_traitsIcEENS_9allocatorIcEEEEbRKNS_12basic_stringIT_T0_T1_EESB_, symObjAddr: 0x19EF8, symBinAddr: 0x1000308F0, symSize: 0xC4 }
  - { offsetInCU: 0x1D193, offset: 0x27835, size: 0x8, addend: 0x0, symName: __ZNSt3__1eqB7v160006IPNS_12basic_stringIcNS_11char_traitsIcEENS_9allocatorIcEEEEEEbRKNS_11__wrap_iterIT_EESC_, symObjAddr: 0x1A2E8, symBinAddr: 0x100030CE0, symSize: 0x9C }
  - { offsetInCU: 0x1D1D6, offset: 0x27878, size: 0x8, addend: 0x0, symName: __ZNSt3__18distanceB7v160006INS_11__wrap_iterIPNS_12basic_stringIcNS_11char_traitsIcEENS_9allocatorIcEEEEEEEENS_15iterator_traitsIT_E15difference_typeESB_SB_, symObjAddr: 0x1A384, symBinAddr: 0x100030D7C, symSize: 0x350 }
  - { offsetInCU: 0x1D221, offset: 0x278C3, size: 0x8, addend: 0x0, symName: __ZNSt3__14sortB7v160006INS_16reverse_iteratorINS_11__wrap_iterIPmEEEEEEvT_S6_, symObjAddr: 0x1B2C4, symBinAddr: 0x100031CBC, symSize: 0x354 }
  - { offsetInCU: 0x1D26C, offset: 0x2790E, size: 0x8, addend: 0x0, symName: __ZNSt3__1neB7v160006IPmEEbRKNS_11__wrap_iterIT_EES6_, symObjAddr: 0x1C1B4, symBinAddr: 0x100032BAC, symSize: 0xC4 }
  - { offsetInCU: 0x1D2AF, offset: 0x27951, size: 0x8, addend: 0x0, symName: '__ZNSt3__19remove_ifB7v160006INS_11__wrap_iterIPNS_6vectorI5FieldNS_9allocatorIS3_EEEEEEZN8Database14executeCommandEvE3$_0EET_SB_SB_T0_', symObjAddr: 0x1D694, symBinAddr: 0x10003408C, symSize: 0x6A4 }
  - { offsetInCU: 0x1D32D, offset: 0x279CF, size: 0x8, addend: 0x0, symName: __ZNSt3__1neB7v160006IPNS_4pairIiNS_12basic_stringIcNS_11char_traitsIcEENS_9allocatorIcEEEEEEEEbRKNS_11__wrap_iterIT_EESE_, symObjAddr: 0x1F370, symBinAddr: 0x100035D68, symSize: 0xC4 }
  - { offsetInCU: 0x1D370, offset: 0x27A12, size: 0x8, addend: 0x0, symName: __ZNSt3__119__debug_db_insert_cB7v160006INS_13unordered_mapINS_12basic_stringIcNS_11char_traitsIcEENS_9allocatorIcEEEEP5TableNS_4hashIS7_EENS_8equal_toIS7_EENS5_INS_4pairIKS7_S9_EEEEEEEEvPT_, symObjAddr: 0x20708, symBinAddr: 0x100037100, symSize: 0x10 }
  - { offsetInCU: 0x1D407, offset: 0x27AA9, size: 0x8, addend: 0x0, symName: __ZNSt3__17launderB7v160006INS_4pairIKNS_12basic_stringIcNS_11char_traitsIcEENS_9allocatorIcEEEEP5TableEEEEPT_SD_, symObjAddr: 0x23E9C, symBinAddr: 0x10003A894, symSize: 0x24 }
  - { offsetInCU: 0x1D43E, offset: 0x27AE0, size: 0x8, addend: 0x0, symName: __ZNSt3__19__launderB7v160006INS_4pairIKNS_12basic_stringIcNS_11char_traitsIcEENS_9allocatorIcEEEEP5TableEEEEPT_SD_, symObjAddr: 0x23EC0, symBinAddr: 0x10003A8B8, symSize: 0x14 }
  - { offsetInCU: 0x1D476, offset: 0x27B18, size: 0x8, addend: 0x0, symName: __ZNSt3__119__libcpp_deallocateB7v160006EPvmm, symObjAddr: 0x253B8, symBinAddr: 0x10003BDB0, symSize: 0x60 }
  - { offsetInCU: 0x1D4DD, offset: 0x27B7F, size: 0x8, addend: 0x0, symName: __ZNSt3__124__is_overaligned_for_newB7v160006Em, symObjAddr: 0x25418, symBinAddr: 0x10003BE10, symSize: 0x20 }
  - { offsetInCU: 0x1D50C, offset: 0x27BAE, size: 0x8, addend: 0x0, symName: __ZNSt3__127__do_deallocate_handle_sizeB7v160006IJSt11align_val_tEEEvPvmDpT_, symObjAddr: 0x25438, symBinAddr: 0x10003BE30, symSize: 0x30 }
  - { offsetInCU: 0x1D561, offset: 0x27C03, size: 0x8, addend: 0x0, symName: __ZNSt3__127__do_deallocate_handle_sizeB7v160006IJEEEvPvmDpT_, symObjAddr: 0x25468, symBinAddr: 0x10003BE60, symSize: 0x28 }
  - { offsetInCU: 0x1D5A1, offset: 0x27C43, size: 0x8, addend: 0x0, symName: __ZNSt3__124__libcpp_operator_deleteB7v160006IJPvSt11align_val_tEEEvDpT_, symObjAddr: 0x25490, symBinAddr: 0x10003BE88, symSize: 0x2C }
  - { offsetInCU: 0x1D5EC, offset: 0x27C8E, size: 0x8, addend: 0x0, symName: __ZNSt3__124__libcpp_operator_deleteB7v160006IJPvEEEvDpT_, symObjAddr: 0x254BC, symBinAddr: 0x10003BEB4, symSize: 0x24 }
  - { offsetInCU: 0x1D623, offset: 0x27CC5, size: 0x8, addend: 0x0, symName: __ZNSt3__118__debug_db_erase_cB7v160006INS_12__hash_tableINS_17__hash_value_typeINS_12basic_stringIcNS_11char_traitsIcEENS_9allocatorIcEEEEP5TableEENS_22__unordered_map_hasherIS8_SB_NS_4hashIS8_EENS_8equal_toIS8_EELb1EEENS_21__unordered_map_equalIS8_SB_SG_SE_Lb1EEENS6_ISB_EEEEEEvPT_, symObjAddr: 0x25F3C, symBinAddr: 0x10003C934, symSize: 0x10 }
  - { offsetInCU: 0x1D654, offset: 0x27CF6, size: 0x8, addend: 0x0, symName: __ZNSt3__122__make_exception_guardB7v160006INS_6vectorINS_12basic_stringIcNS_11char_traitsIcEENS_9allocatorIcEEEENS5_IS7_EEE16__destroy_vectorEEENS_28__exception_guard_exceptionsIT_EESC_, symObjAddr: 0x27924, symBinAddr: 0x10003E31C, symSize: 0x2BC }
  - { offsetInCU: 0x1D68D, offset: 0x27D2F, size: 0x8, addend: 0x0, symName: __ZNSt3__119__debug_db_insert_cB7v160006INS_6vectorINS_12basic_stringIcNS_11char_traitsIcEENS_9allocatorIcEEEENS5_IS7_EEEEEEvPT_, symObjAddr: 0x27C60, symBinAddr: 0x10003E658, symSize: 0x10 }
  - { offsetInCU: 0x1D6BE, offset: 0x27D60, size: 0x8, addend: 0x0, symName: __ZNSt3__119__allocate_at_leastB7v160006INS_9allocatorINS_12basic_stringIcNS_11char_traitsIcEENS1_IcEEEEEEEENS_19__allocation_resultINS_16allocator_traitsIT_E7pointerEEERSA_m, symObjAddr: 0x296CC, symBinAddr: 0x1000400C4, symSize: 0x28C }
  - { offsetInCU: 0x1D703, offset: 0x27DA5, size: 0x8, addend: 0x0, symName: __ZNSt3__120__throw_length_errorB7v160006EPKc, symObjAddr: 0x2A3D8, symBinAddr: 0x100040920, symSize: 0xB4 }
  - { offsetInCU: 0x1D72C, offset: 0x27DCE, size: 0x8, addend: 0x0, symName: __ZNSt3__117__libcpp_allocateB7v160006Emm, symObjAddr: 0x2A780, symBinAddr: 0x100040CC8, symSize: 0x60 }
  - { offsetInCU: 0x1D787, offset: 0x27E29, size: 0x8, addend: 0x0, symName: __ZNSt3__121__libcpp_operator_newB7v160006IJmSt11align_val_tEEEPvDpT_, symObjAddr: 0x2A7E0, symBinAddr: 0x100040D28, symSize: 0x6C }
  - { offsetInCU: 0x1D7D5, offset: 0x27E77, size: 0x8, addend: 0x0, symName: __ZNSt3__121__libcpp_operator_newB7v160006IJmEEEPvDpT_, symObjAddr: 0x2A84C, symBinAddr: 0x100040D94, symSize: 0x24 }
  - { offsetInCU: 0x1D80F, offset: 0x27EB1, size: 0x8, addend: 0x0, symName: __ZNSt3__112__to_addressB7v160006INS_12basic_stringIcNS_11char_traitsIcEENS_9allocatorIcEEEEEEPT_S8_, symObjAddr: 0x2AE4C, symBinAddr: 0x100041394, symSize: 0x14 }
  - { offsetInCU: 0x1D844, offset: 0x27EE6, size: 0x8, addend: 0x0, symName: __ZNSt3__130__uninitialized_allocator_copyB7v160006INS_9allocatorINS_12basic_stringIcNS_11char_traitsIcEENS1_IcEEEEEEPS6_S8_S8_EET2_RT_T0_T1_S9_, symObjAddr: 0x2B1B8, symBinAddr: 0x100041700, symSize: 0x6EC }
  - { offsetInCU: 0x1D8F0, offset: 0x27F92, size: 0x8, addend: 0x0, symName: __ZNSt3__122__make_exception_guardB7v160006INS_29_AllocatorDestroyRangeReverseINS_9allocatorINS_12basic_stringIcNS_11char_traitsIcEENS2_IcEEEEEEPS7_EEEENS_28__exception_guard_exceptionsIT_EESC_, symObjAddr: 0x2C168, symBinAddr: 0x1000426B0, symSize: 0x23C }
  - { offsetInCU: 0x1D927, offset: 0x27FC9, size: 0x8, addend: 0x0, symName: __ZNSt3__119__allocator_destroyB7v160006INS_9allocatorINS_12basic_stringIcNS_11char_traitsIcEENS1_IcEEEEEENS_16reverse_iteratorIPS6_EESA_EEvRT_T0_T1_, symObjAddr: 0x2D00C, symBinAddr: 0x100043554, symSize: 0x2DC }
  - { offsetInCU: 0x1D994, offset: 0x28036, size: 0x8, addend: 0x0, symName: __ZNSt3__1neB7v160006IPNS_12basic_stringIcNS_11char_traitsIcEENS_9allocatorIcEEEES7_EEbRKNS_16reverse_iteratorIT_EERKNS8_IT0_EE, symObjAddr: 0x2D368, symBinAddr: 0x1000438B0, symSize: 0x9C }
  - { offsetInCU: 0x1D9E0, offset: 0x28082, size: 0x8, addend: 0x0, symName: __ZNSt3__112__to_addressB7v160006INS_16reverse_iteratorIPNS_12basic_stringIcNS_11char_traitsIcEENS_9allocatorIcEEEEEEvEENS_5decayIDTclsr19__to_address_helperIT_EE6__callclsr3stdE7declvalIRKSB_EEEEE4typeESD_, symObjAddr: 0x2D430, symBinAddr: 0x100043978, symSize: 0x6C }
  - { offsetInCU: 0x1DA41, offset: 0x280E3, size: 0x8, addend: 0x0, symName: __ZNSt3__118__debug_db_erase_cB7v160006INS_6vectorINS_12basic_stringIcNS_11char_traitsIcEENS_9allocatorIcEEEENS5_IS7_EEEEEEvPT_, symObjAddr: 0x2EB88, symBinAddr: 0x1000450D0, symSize: 0x10 }
  - { offsetInCU: 0x1DA72, offset: 0x28114, size: 0x8, addend: 0x0, symName: __ZNSt3__122__make_exception_guardB7v160006INS_6vectorI10ColumnTypeNS_9allocatorIS2_EEE16__destroy_vectorEEENS_28__exception_guard_exceptionsIT_EES8_, symObjAddr: 0x2F728, symBinAddr: 0x100045C70, symSize: 0x2BC }
  - { offsetInCU: 0x1DAAB, offset: 0x2814D, size: 0x8, addend: 0x0, symName: __ZNSt3__119__debug_db_insert_cB7v160006INS_6vectorI10ColumnTypeNS_9allocatorIS2_EEEEEEvPT_, symObjAddr: 0x2FA64, symBinAddr: 0x100045FAC, symSize: 0x10 }
  - { offsetInCU: 0x1DADC, offset: 0x2817E, size: 0x8, addend: 0x0, symName: __ZNSt3__119__allocate_at_leastB7v160006INS_9allocatorI10ColumnTypeEEEENS_19__allocation_resultINS_16allocator_traitsIT_E7pointerEEERS6_m, symObjAddr: 0x314C8, symBinAddr: 0x100047A10, symSize: 0x28C }
  - { offsetInCU: 0x1DB21, offset: 0x281C3, size: 0x8, addend: 0x0, symName: __ZNSt3__112__to_addressB7v160006I10ColumnTypeEEPT_S3_, symObjAddr: 0x323A8, symBinAddr: 0x1000488F0, symSize: 0x14 }
  - { offsetInCU: 0x1DB56, offset: 0x281F8, size: 0x8, addend: 0x0, symName: __ZNSt3__130__uninitialized_allocator_copyB7v160006INS_9allocatorI10ColumnTypeEEPS2_S4_S4_EET2_RT_T0_T1_S5_, symObjAddr: 0x32714, symBinAddr: 0x100048C5C, symSize: 0x6D0 }
  - { offsetInCU: 0x1DC02, offset: 0x282A4, size: 0x8, addend: 0x0, symName: __ZNSt3__122__make_exception_guardB7v160006INS_29_AllocatorDestroyRangeReverseINS_9allocatorI10ColumnTypeEEPS3_EEEENS_28__exception_guard_exceptionsIT_EES8_, symObjAddr: 0x33680, symBinAddr: 0x100049BC8, symSize: 0x23C }
  - { offsetInCU: 0x1DC39, offset: 0x282DB, size: 0x8, addend: 0x0, symName: __ZNSt3__119__allocator_destroyB7v160006INS_9allocatorI10ColumnTypeEENS_16reverse_iteratorIPS2_EES6_EEvRT_T0_T1_, symObjAddr: 0x34594, symBinAddr: 0x10004AADC, symSize: 0x2DC }
  - { offsetInCU: 0x1DCA6, offset: 0x28348, size: 0x8, addend: 0x0, symName: __ZNSt3__1neB7v160006IP10ColumnTypeS2_EEbRKNS_16reverse_iteratorIT_EERKNS3_IT0_EE, symObjAddr: 0x348F0, symBinAddr: 0x10004AE38, symSize: 0x9C }
  - { offsetInCU: 0x1DCF2, offset: 0x28394, size: 0x8, addend: 0x0, symName: __ZNSt3__112__to_addressB7v160006INS_16reverse_iteratorIP10ColumnTypeEEvEENS_5decayIDTclsr19__to_address_helperIT_EE6__callclsr3stdE7declvalIRKS6_EEEEE4typeES8_, symObjAddr: 0x349B8, symBinAddr: 0x10004AF00, symSize: 0x6C }
  - { offsetInCU: 0x1DD53, offset: 0x283F5, size: 0x8, addend: 0x0, symName: __ZNSt3__118__debug_db_erase_cB7v160006INS_6vectorI10ColumnTypeNS_9allocatorIS2_EEEEEEvPT_, symObjAddr: 0x3606C, symBinAddr: 0x10004C5B4, symSize: 0x10 }
  - { offsetInCU: 0x1DD84, offset: 0x28426, size: 0x8, addend: 0x0, symName: __ZNSt3__119__debug_db_insert_cB7v160006INS_6vectorINS1_I5FieldNS_9allocatorIS2_EEEENS3_IS5_EEEEEEvPT_, symObjAddr: 0x367A8, symBinAddr: 0x10004CCF0, symSize: 0x10 }
  - { offsetInCU: 0x1DDB5, offset: 0x28457, size: 0x8, addend: 0x0, symName: __ZNSt3__119__debug_db_insert_cB7v160006INS_13unordered_mapImNS1_I5FieldNS_6vectorImNS_9allocatorImEEEENS_4hashIS2_EENS_8equal_toIS2_EENS4_INS_4pairIKS2_S6_EEEEEENS7_ImEENS9_ImEENS4_INSB_IKmSF_EEEEEEEEvPT_, symObjAddr: 0x36C1C, symBinAddr: 0x10004D164, symSize: 0x10 }
  - { offsetInCU: 0x1DDE6, offset: 0x28488, size: 0x8, addend: 0x0, symName: __ZNSt3__1eqB7v160006IPNS_6vectorI5FieldNS_9allocatorIS2_EEEEEEbRKNS_11__wrap_iterIT_EESB_, symObjAddr: 0x385CC, symBinAddr: 0x10004EB14, symSize: 0x9C }
  - { offsetInCU: 0x1DE29, offset: 0x284CB, size: 0x8, addend: 0x0, symName: __ZNSt3__110__distanceB7v160006INS_11__wrap_iterIPNS_12basic_stringIcNS_11char_traitsIcEENS_9allocatorIcEEEEEEEENS_15iterator_traitsIT_E15difference_typeESB_SB_NS_26random_access_iterator_tagE, symObjAddr: 0x38BAC, symBinAddr: 0x10004F0F4, symSize: 0x274 }
  - { offsetInCU: 0x1DE80, offset: 0x28522, size: 0x8, addend: 0x0, symName: __ZNSt3__1eqB7v160006IPmEEbRKNS_11__wrap_iterIT_EES6_, symObjAddr: 0x38E20, symBinAddr: 0x10004F368, symSize: 0x9C }
  - { offsetInCU: 0x1DEC3, offset: 0x28565, size: 0x8, addend: 0x0, symName: __ZNSt3__118__debug_db_erase_cB7v160006INS_12__hash_tableINS_17__hash_value_typeImNS_13unordered_mapI5FieldNS_6vectorImNS_9allocatorImEEEENS_4hashIS4_EENS_8equal_toIS4_EENS6_INS_4pairIKS4_S8_EEEEEEEENS_22__unordered_map_hasherImSI_NS9_ImEENSB_ImEELb1EEENS_21__unordered_map_equalImSI_SL_SK_Lb1EEENS6_ISI_EEEEEEvPT_, symObjAddr: 0x39B1C, symBinAddr: 0x100050064, symSize: 0x10 }
  - { offsetInCU: 0x1DF27, offset: 0x285C9, size: 0x8, addend: 0x0, symName: __ZNSt3__118__debug_db_erase_cB7v160006INS_12__hash_tableINS_17__hash_value_typeI5FieldNS_6vectorImNS_9allocatorImEEEEEENS_22__unordered_map_hasherIS3_S8_NS_4hashIS3_EENS_8equal_toIS3_EELb1EEENS_21__unordered_map_equalIS3_S8_SD_SB_Lb1EEENS5_IS8_EEEEEEvPT_, symObjAddr: 0x3A860, symBinAddr: 0x100050DA8, symSize: 0x10 }
  - { offsetInCU: 0x1DF8B, offset: 0x2862D, size: 0x8, addend: 0x0, symName: __ZNSt3__118__debug_db_erase_cB7v160006INS_6vectorImNS_9allocatorImEEEEEEvPT_, symObjAddr: 0x3BAC4, symBinAddr: 0x10005200C, symSize: 0x10 }
  - { offsetInCU: 0x1DFBC, offset: 0x2865E, size: 0x8, addend: 0x0, symName: __ZNSt3__112__to_addressB7v160006ImEEPT_S2_, symObjAddr: 0x3C024, symBinAddr: 0x10005256C, symSize: 0x14 }
  - { offsetInCU: 0x1DFF1, offset: 0x28693, size: 0x8, addend: 0x0, symName: __ZNSt3__17launderB7v160006INS_4pairIK5FieldNS_6vectorImNS_9allocatorImEEEEEEEEPT_SA_, symObjAddr: 0x3C824, symBinAddr: 0x100052D6C, symSize: 0x24 }
  - { offsetInCU: 0x1E028, offset: 0x286CA, size: 0x8, addend: 0x0, symName: __ZNSt3__19__launderB7v160006INS_4pairIK5FieldNS_6vectorImNS_9allocatorImEEEEEEEEPT_SA_, symObjAddr: 0x3C848, symBinAddr: 0x100052D90, symSize: 0x14 }
  - { offsetInCU: 0x1E060, offset: 0x28702, size: 0x8, addend: 0x0, symName: __ZNSt3__17launderB7v160006INS_4pairIKmNS_13unordered_mapI5FieldNS_6vectorImNS_9allocatorImEEEENS_4hashIS4_EENS_8equal_toIS4_EENS6_INS1_IKS4_S8_EEEEEEEEEEPT_SJ_, symObjAddr: 0x3D77C, symBinAddr: 0x100053CC4, symSize: 0x24 }
  - { offsetInCU: 0x1E097, offset: 0x28739, size: 0x8, addend: 0x0, symName: __ZNSt3__19__launderB7v160006INS_4pairIKmNS_13unordered_mapI5FieldNS_6vectorImNS_9allocatorImEEEENS_4hashIS4_EENS_8equal_toIS4_EENS6_INS1_IKS4_S8_EEEEEEEEEEPT_SJ_, symObjAddr: 0x3D7A0, symBinAddr: 0x100053CE8, symSize: 0x14 }
  - { offsetInCU: 0x1E0CF, offset: 0x28771, size: 0x8, addend: 0x0, symName: __ZNSt3__118__debug_db_erase_cB7v160006INS_6vectorINS1_I5FieldNS_9allocatorIS2_EEEENS3_IS5_EEEEEEvPT_, symObjAddr: 0x3F23C, symBinAddr: 0x100055784, symSize: 0x10 }
  - { offsetInCU: 0x1E100, offset: 0x287A2, size: 0x8, addend: 0x0, symName: __ZNSt3__112__to_addressB7v160006INS_6vectorI5FieldNS_9allocatorIS2_EEEEEEPT_S7_, symObjAddr: 0x3F6A4, symBinAddr: 0x100055BEC, symSize: 0x14 }
  - { offsetInCU: 0x1E135, offset: 0x287D7, size: 0x8, addend: 0x0, symName: __ZNSt3__1eqB7v160006IPNS_4pairIiNS_12basic_stringIcNS_11char_traitsIcEENS_9allocatorIcEEEEEEEEbRKNS_11__wrap_iterIT_EESE_, symObjAddr: 0x3FE44, symBinAddr: 0x10005638C, symSize: 0x9C }
  - { offsetInCU: 0x1E178, offset: 0x2881A, size: 0x8, addend: 0x0, symName: __ZNSt3__1neB7v160006ERKNS_15__hash_iteratorIPNS_11__hash_nodeINS_17__hash_value_typeINS_12basic_stringIcNS_11char_traitsIcEENS_9allocatorIcEEEEP5TableEEPvEEEESH_, symObjAddr: 0x40704, symBinAddr: 0x100056C4C, symSize: 0xC4 }
  - { offsetInCU: 0x1E1B5, offset: 0x28857, size: 0x8, addend: 0x0, symName: __ZNSt3__1eqB7v160006ERKNS_15__hash_iteratorIPNS_11__hash_nodeINS_17__hash_value_typeINS_12basic_stringIcNS_11char_traitsIcEENS_9allocatorIcEEEEP5TableEEPvEEEESH_, symObjAddr: 0x407C8, symBinAddr: 0x100056D10, symSize: 0x114 }
  - { offsetInCU: 0x1E1F2, offset: 0x28894, size: 0x8, addend: 0x0, symName: __ZNSt3__125__debug_db_invalidate_allB7v160006INS_12basic_stringIcNS_11char_traitsIcEENS_9allocatorIcEEEEEEvPT_, symObjAddr: 0x46DDC, symBinAddr: 0x100058750, symSize: 0x10 }
  - { offsetInCU: 0x1E223, offset: 0x288C5, size: 0x8, addend: 0x0, symName: __ZNSt3__17getlineB7v160006IcNS_11char_traitsIcEENS_9allocatorIcEEEERNS_13basic_istreamIT_T0_EES9_RNS_12basic_stringIS6_S7_T1_EES6_, symObjAddr: 0x48044, symBinAddr: 0x100059518, symSize: 0xEA8 }
  - { offsetInCU: 0x1E2F5, offset: 0x28997, size: 0x8, addend: 0x0, symName: __ZNSt3__116__constrain_hashB7v160006Emm, symObjAddr: 0x4B754, symBinAddr: 0x10005CC28, symSize: 0xDC }
  - { offsetInCU: 0x1E32F, offset: 0x289D1, size: 0x8, addend: 0x0, symName: __ZNSt3__17launderB7v160006IKNS_4pairIKNS_12basic_stringIcNS_11char_traitsIcEENS_9allocatorIcEEEEP5TableEEEEPT_SE_, symObjAddr: 0x51A28, symBinAddr: 0x10005D4A4, symSize: 0x24 }
  - { offsetInCU: 0x1E366, offset: 0x28A08, size: 0x8, addend: 0x0, symName: __ZNSt3__19__launderB7v160006IKNS_4pairIKNS_12basic_stringIcNS_11char_traitsIcEENS_9allocatorIcEEEEP5TableEEEEPT_SE_, symObjAddr: 0x51A4C, symBinAddr: 0x10005D4C8, symSize: 0x14 }
  - { offsetInCU: 0x1E3D6, offset: 0x28A78, size: 0x8, addend: 0x0, symName: __ZNSt3__116forward_as_tupleB7v160006IJRKNS_12basic_stringIcNS_11char_traitsIcEENS_9allocatorIcEEEEEEENS_5tupleIJDpOT_EEESC_, symObjAddr: 0x53784, symBinAddr: 0x10005F200, symSize: 0x244 }
  - { offsetInCU: 0x1E411, offset: 0x28AB3, size: 0x8, addend: 0x0, symName: __ZNSt3__116forward_as_tupleB7v160006IJEEENS_5tupleIJDpOT_EEES4_, symObjAddr: 0x539C8, symBinAddr: 0x10005F444, symSize: 0x4 }
  - { offsetInCU: 0x1E437, offset: 0x28AD9, size: 0x8, addend: 0x0, symName: __ZNSt3__13maxB7v160006ImEERKT_S3_S3_, symObjAddr: 0x54484, symBinAddr: 0x10005FF00, symSize: 0x104 }
  - { offsetInCU: 0x1E47A, offset: 0x28B1C, size: 0x8, addend: 0x0, symName: __ZNSt3__116__is_hash_power2B7v160006Em, symObjAddr: 0x54588, symBinAddr: 0x100060004, symSize: 0x50 }
  - { offsetInCU: 0x1E4D0, offset: 0x28B72, size: 0x8, addend: 0x0, symName: __ZNSt3__13getB7v160006ILm0EJRKNS_12basic_stringIcNS_11char_traitsIcEENS_9allocatorIcEEEEEEERNS_13tuple_elementIXT_ENS_5tupleIJDpT0_EEEE4typeERSD_, symObjAddr: 0x56030, symBinAddr: 0x100061AAC, symSize: 0xE0 }
  - { offsetInCU: 0x1E514, offset: 0x28BB6, size: 0x8, addend: 0x0, symName: __ZNSt3__116__next_hash_pow2B7v160006Em, symObjAddr: 0x58004, symBinAddr: 0x100063A80, symSize: 0xCC }
  - { offsetInCU: 0x1E540, offset: 0x28BE2, size: 0x8, addend: 0x0, symName: __ZNSt3__125__debug_db_invalidate_allB7v160006INS_12__hash_tableINS_17__hash_value_typeINS_12basic_stringIcNS_11char_traitsIcEENS_9allocatorIcEEEEP5TableEENS_22__unordered_map_hasherIS8_SB_NS_4hashIS8_EENS_8equal_toIS8_EELb1EEENS_21__unordered_map_equalIS8_SB_SG_SE_Lb1EEENS6_ISB_EEEEEEvPT_, symObjAddr: 0x580D0, symBinAddr: 0x100063B4C, symSize: 0x10 }
  - { offsetInCU: 0x1E571, offset: 0x28C13, size: 0x8, addend: 0x0, symName: __ZNSt3__112__libcpp_clzB7v160006Em, symObjAddr: 0x5860C, symBinAddr: 0x100064088, symSize: 0x1C }
  - { offsetInCU: 0x1E59D, offset: 0x28C3F, size: 0x8, addend: 0x0, symName: __ZNSt3__13maxB7v160006ImNS_6__lessImmEEEERKT_S5_S5_T0_, symObjAddr: 0x58628, symBinAddr: 0x1000640A4, symSize: 0x2C0 }
  - { offsetInCU: 0x1E623, offset: 0x28CC5, size: 0x8, addend: 0x0, symName: __ZNSt3__119__debug_db_insert_cB7v160006INS_6vectorINS1_INS_12basic_stringIcNS_11char_traitsIcEENS_9allocatorIcEEEENS5_IS7_EEEENS5_IS9_EEEEEEvPT_, symObjAddr: 0x59F8C, symBinAddr: 0x100065A08, symSize: 0x10 }
  - { offsetInCU: 0x1E654, offset: 0x28CF6, size: 0x8, addend: 0x0, symName: __ZNSt3__118__debug_db_erase_cB7v160006INS_6vectorINS1_INS_12basic_stringIcNS_11char_traitsIcEENS_9allocatorIcEEEENS5_IS7_EEEENS5_IS9_EEEEEEvPT_, symObjAddr: 0x5AF14, symBinAddr: 0x100066990, symSize: 0x10 }
  - { offsetInCU: 0x1E685, offset: 0x28D27, size: 0x8, addend: 0x0, symName: __ZNSt3__112__to_addressB7v160006INS_6vectorINS_12basic_stringIcNS_11char_traitsIcEENS_9allocatorIcEEEENS5_IS7_EEEEEEPT_SB_, symObjAddr: 0x5B37C, symBinAddr: 0x100066DF8, symSize: 0x14 }
  - { offsetInCU: 0x1E6BA, offset: 0x28D5C, size: 0x8, addend: 0x0, symName: __ZNSt3__142__uninitialized_allocator_move_if_noexceptB7v160006INS_9allocatorINS_12basic_stringIcNS_11char_traitsIcEENS1_IcEEEEEENS_16reverse_iteratorIPS6_EESA_SA_EET2_RT_T0_T1_SB_, symObjAddr: 0x5E888, symBinAddr: 0x10006A304, symSize: 0x5C8 }
  - { offsetInCU: 0x1E76F, offset: 0x28E11, size: 0x8, addend: 0x0, symName: __ZNSt3__14swapB7v160006IPNS_12basic_stringIcNS_11char_traitsIcEENS_9allocatorIcEEEEEENS_9enable_ifIXaasr21is_move_constructibleIT_EE5valuesr18is_move_assignableIS9_EE5valueEvE4typeERS9_SC_, symObjAddr: 0x5EE50, symBinAddr: 0x10006A8CC, symSize: 0x1C0 }
  - { offsetInCU: 0x1E7C0, offset: 0x28E62, size: 0x8, addend: 0x0, symName: __ZNSt3__125__debug_db_invalidate_allB7v160006INS_6vectorINS_12basic_stringIcNS_11char_traitsIcEENS_9allocatorIcEEEENS5_IS7_EEEEEEvPT_, symObjAddr: 0x5F010, symBinAddr: 0x10006AA8C, symSize: 0x10 }
  - { offsetInCU: 0x1E7F1, offset: 0x28E93, size: 0x8, addend: 0x0, symName: __ZNSt3__122__make_exception_guardB7v160006INS_29_AllocatorDestroyRangeReverseINS_9allocatorINS_12basic_stringIcNS_11char_traitsIcEENS2_IcEEEEEENS_16reverse_iteratorIPS7_EEEEEENS_28__exception_guard_exceptionsIT_EESE_, symObjAddr: 0x5F020, symBinAddr: 0x10006AA9C, symSize: 0x23C }
  - { offsetInCU: 0x1E828, offset: 0x28ECA, size: 0x8, addend: 0x0, symName: __ZNSt3__119__allocator_destroyB7v160006INS_9allocatorINS_12basic_stringIcNS_11char_traitsIcEENS1_IcEEEEEENS_16reverse_iteratorINS8_IPS6_EEEESB_EEvRT_T0_T1_, symObjAddr: 0x60058, symBinAddr: 0x10006B94C, symSize: 0x1A4 }
  - { offsetInCU: 0x1E88E, offset: 0x28F30, size: 0x8, addend: 0x0, symName: __ZNSt3__1neB7v160006INS_16reverse_iteratorIPNS_12basic_stringIcNS_11char_traitsIcEENS_9allocatorIcEEEEEES9_EEbRKNS1_IT_EERKNS1_IT0_EE, symObjAddr: 0x60498, symBinAddr: 0x10006BD8C, symSize: 0x324 }
  - { offsetInCU: 0x1E8DC, offset: 0x28F7E, size: 0x8, addend: 0x0, symName: __ZNSt3__112__to_addressB7v160006INS_16reverse_iteratorINS1_IPNS_12basic_stringIcNS_11char_traitsIcEENS_9allocatorIcEEEEEEEEvEENS_5decayIDTclsr19__to_address_helperIT_EE6__callclsr3stdE7declvalIRKSC_EEEEE4typeESE_, symObjAddr: 0x607BC, symBinAddr: 0x10006C0B0, symSize: 0x6C }
  - { offsetInCU: 0x1E93D, offset: 0x28FDF, size: 0x8, addend: 0x0, symName: __ZNSt3__119__allocate_at_leastB7v160006INS_9allocatorINS_6vectorINS_12basic_stringIcNS_11char_traitsIcEENS1_IcEEEENS1_IS7_EEEEEEEENS_19__allocation_resultINS_16allocator_traitsIT_E7pointerEEERSD_m, symObjAddr: 0x65854, symBinAddr: 0x100071148, symSize: 0x28C }
  - { offsetInCU: 0x1E982, offset: 0x29024, size: 0x8, addend: 0x0, symName: __ZNSt3__142__uninitialized_allocator_move_if_noexceptB7v160006INS_9allocatorINS_6vectorINS_12basic_stringIcNS_11char_traitsIcEENS1_IcEEEENS1_IS7_EEEEEENS_16reverse_iteratorIPS9_EESD_SD_EET2_RT_T0_T1_SE_, symObjAddr: 0x66324, symBinAddr: 0x100071C18, symSize: 0x5D8 }
  - { offsetInCU: 0x1EA37, offset: 0x290D9, size: 0x8, addend: 0x0, symName: __ZNSt3__14swapB7v160006IPNS_6vectorINS_12basic_stringIcNS_11char_traitsIcEENS_9allocatorIcEEEENS5_IS7_EEEEEENS_9enable_ifIXaasr21is_move_constructibleIT_EE5valuesr18is_move_assignableISC_EE5valueEvE4typeERSC_SF_, symObjAddr: 0x66A2C, symBinAddr: 0x100072320, symSize: 0x1C0 }
  - { offsetInCU: 0x1EA88, offset: 0x2912A, size: 0x8, addend: 0x0, symName: __ZNSt3__125__debug_db_invalidate_allB7v160006INS_6vectorINS1_INS_12basic_stringIcNS_11char_traitsIcEENS_9allocatorIcEEEENS5_IS7_EEEENS5_IS9_EEEEEEvPT_, symObjAddr: 0x66F64, symBinAddr: 0x100072858, symSize: 0x10 }
  - { offsetInCU: 0x1EAB9, offset: 0x2915B, size: 0x8, addend: 0x0, symName: __ZNSt3__122__make_exception_guardB7v160006INS_29_AllocatorDestroyRangeReverseINS_9allocatorINS_6vectorINS_12basic_stringIcNS_11char_traitsIcEENS2_IcEEEENS2_IS8_EEEEEENS_16reverse_iteratorIPSA_EEEEEENS_28__exception_guard_exceptionsIT_EESH_, symObjAddr: 0x66F74, symBinAddr: 0x100072868, symSize: 0x23C }
  - { offsetInCU: 0x1EAF0, offset: 0x29192, size: 0x8, addend: 0x0, symName: __ZNSt3__1neB7v160006IPNS_6vectorINS_12basic_stringIcNS_11char_traitsIcEENS_9allocatorIcEEEENS5_IS7_EEEESA_EEbRKNS_16reverse_iteratorIT_EERKNSB_IT0_EE, symObjAddr: 0x67240, symBinAddr: 0x100072B34, symSize: 0x9C }
  - { offsetInCU: 0x1EB3C, offset: 0x291DE, size: 0x8, addend: 0x0, symName: __ZNSt3__112__to_addressB7v160006INS_16reverse_iteratorIPNS_6vectorINS_12basic_stringIcNS_11char_traitsIcEENS_9allocatorIcEEEENS6_IS8_EEEEEEvEENS_5decayIDTclsr19__to_address_helperIT_EE6__callclsr3stdE7declvalIRKSE_EEEEE4typeESG_, symObjAddr: 0x67368, symBinAddr: 0x100072C5C, symSize: 0x6C }
  - { offsetInCU: 0x1EB73, offset: 0x29215, size: 0x8, addend: 0x0, symName: __ZNSt3__115__debug_db_swapB7v160006INS_6vectorINS_12basic_stringIcNS_11char_traitsIcEENS_9allocatorIcEEEENS5_IS7_EEEEEEvPT_SB_, symObjAddr: 0x684E0, symBinAddr: 0x100073DD4, symSize: 0x14 }
  - { offsetInCU: 0x1EBDC, offset: 0x2927E, size: 0x8, addend: 0x0, symName: __ZNSt3__119__allocator_destroyB7v160006INS_9allocatorINS_6vectorINS_12basic_stringIcNS_11char_traitsIcEENS1_IcEEEENS1_IS7_EEEEEENS_16reverse_iteratorINSB_IPS9_EEEESE_EEvRT_T0_T1_, symObjAddr: 0x68B64, symBinAddr: 0x100074458, symSize: 0x1A4 }
  - { offsetInCU: 0x1EC42, offset: 0x292E4, size: 0x8, addend: 0x0, symName: __ZNSt3__1neB7v160006INS_16reverse_iteratorIPNS_6vectorINS_12basic_stringIcNS_11char_traitsIcEENS_9allocatorIcEEEENS6_IS8_EEEEEESC_EEbRKNS1_IT_EERKNS1_IT0_EE, symObjAddr: 0x68FA4, symBinAddr: 0x100074898, symSize: 0x324 }
  - { offsetInCU: 0x1EC90, offset: 0x29332, size: 0x8, addend: 0x0, symName: __ZNSt3__112__to_addressB7v160006INS_16reverse_iteratorINS1_IPNS_6vectorINS_12basic_stringIcNS_11char_traitsIcEENS_9allocatorIcEEEENS6_IS8_EEEEEEEEvEENS_5decayIDTclsr19__to_address_helperIT_EE6__callclsr3stdE7declvalIRKSF_EEEEE4typeESH_, symObjAddr: 0x692C8, symBinAddr: 0x100074BBC, symSize: 0x6C }
  - { offsetInCU: 0x1ECF1, offset: 0x29393, size: 0x8, addend: 0x0, symName: __ZNSt3__119__debug_db_insert_cB7v160006INS_6vectorI5FieldNS_9allocatorIS2_EEEEEEvPT_, symObjAddr: 0x6AB60, symBinAddr: 0x100076454, symSize: 0x10 }
  - { offsetInCU: 0x1ED22, offset: 0x293C4, size: 0x8, addend: 0x0, symName: __ZNSt3__118__debug_db_erase_cB7v160006INS_6vectorI5FieldNS_9allocatorIS2_EEEEEEvPT_, symObjAddr: 0x6BAD0, symBinAddr: 0x1000773C4, symSize: 0x10 }
  - { offsetInCU: 0x1ED53, offset: 0x293F5, size: 0x8, addend: 0x0, symName: __ZNSt3__112__to_addressB7v160006I5FieldEEPT_S3_, symObjAddr: 0x6C030, symBinAddr: 0x100077924, symSize: 0x14 }
  - { offsetInCU: 0x1ED88, offset: 0x2942A, size: 0x8, addend: 0x0, symName: __ZNSt3__119__allocate_at_leastB7v160006INS_9allocatorI5FieldEEEENS_19__allocation_resultINS_16allocator_traitsIT_E7pointerEEERS6_m, symObjAddr: 0x70650, symBinAddr: 0x10007BF44, symSize: 0x28C }
  - { offsetInCU: 0x1EDCD, offset: 0x2946F, size: 0x8, addend: 0x0, symName: __ZNSt3__142__uninitialized_allocator_move_if_noexceptB7v160006INS_9allocatorI5FieldEENS_16reverse_iteratorIPS2_EES6_S6_EET2_RT_T0_T1_S7_, symObjAddr: 0x7111C, symBinAddr: 0x10007CA10, symSize: 0x5D8 }
  - { offsetInCU: 0x1EE82, offset: 0x29524, size: 0x8, addend: 0x0, symName: __ZNSt3__14swapB7v160006IP5FieldEENS_9enable_ifIXaasr21is_move_constructibleIT_EE5valuesr18is_move_assignableIS4_EE5valueEvE4typeERS4_S7_, symObjAddr: 0x71824, symBinAddr: 0x10007D118, symSize: 0x1C0 }
  - { offsetInCU: 0x1EED3, offset: 0x29575, size: 0x8, addend: 0x0, symName: __ZNSt3__125__debug_db_invalidate_allB7v160006INS_6vectorI5FieldNS_9allocatorIS2_EEEEEEvPT_, symObjAddr: 0x71D44, symBinAddr: 0x10007D638, symSize: 0x10 }
  - { offsetInCU: 0x1EF04, offset: 0x295A6, size: 0x8, addend: 0x0, symName: __ZNSt3__122__make_exception_guardB7v160006INS_29_AllocatorDestroyRangeReverseINS_9allocatorI5FieldEENS_16reverse_iteratorIPS3_EEEEEENS_28__exception_guard_exceptionsIT_EESA_, symObjAddr: 0x71D54, symBinAddr: 0x10007D648, symSize: 0x23C }
  - { offsetInCU: 0x1EF3B, offset: 0x295DD, size: 0x8, addend: 0x0, symName: __ZNSt3__1neB7v160006IP5FieldS2_EEbRKNS_16reverse_iteratorIT_EERKNS3_IT0_EE, symObjAddr: 0x72020, symBinAddr: 0x10007D914, symSize: 0x9C }
  - { offsetInCU: 0x1EF87, offset: 0x29629, size: 0x8, addend: 0x0, symName: __ZNSt3__112__to_addressB7v160006INS_16reverse_iteratorIP5FieldEEvEENS_5decayIDTclsr19__to_address_helperIT_EE6__callclsr3stdE7declvalIRKS6_EEEEE4typeES8_, symObjAddr: 0x72148, symBinAddr: 0x10007DA3C, symSize: 0x6C }
  - { offsetInCU: 0x1EFE8, offset: 0x2968A, size: 0x8, addend: 0x0, symName: __ZNSt3__119__allocator_destroyB7v160006INS_9allocatorI5FieldEENS_16reverse_iteratorINS4_IPS2_EEEES7_EEvRT_T0_T1_, symObjAddr: 0x7311C, symBinAddr: 0x10007EA10, symSize: 0x1A4 }
  - { offsetInCU: 0x1F04E, offset: 0x296F0, size: 0x8, addend: 0x0, symName: __ZNSt3__1neB7v160006INS_16reverse_iteratorIP5FieldEES4_EEbRKNS1_IT_EERKNS1_IT0_EE, symObjAddr: 0x7355C, symBinAddr: 0x10007EE50, symSize: 0x324 }
  - { offsetInCU: 0x1F09C, offset: 0x2973E, size: 0x8, addend: 0x0, symName: __ZNSt3__112__to_addressB7v160006INS_16reverse_iteratorINS1_IP5FieldEEEEvEENS_5decayIDTclsr19__to_address_helperIT_EE6__callclsr3stdE7declvalIRKS7_EEEEE4typeES9_, symObjAddr: 0x73880, symBinAddr: 0x10007F174, symSize: 0x6C }
  - { offsetInCU: 0x1F0FD, offset: 0x2979F, size: 0x8, addend: 0x0, symName: __ZNSt3__1neB7v160006ERKNS_21__hash_const_iteratorIPNS_11__hash_nodeINS_17__hash_value_typeImNS_13unordered_mapI5FieldNS_6vectorImNS_9allocatorImEEEENS_4hashIS4_EENS_8equal_toIS4_EENS6_INS_4pairIKS4_S8_EEEEEEEEPvEEEESO_, symObjAddr: 0x792C0, symBinAddr: 0x100083D78, symSize: 0xC4 }
  - { offsetInCU: 0x1F13A, offset: 0x297DC, size: 0x8, addend: 0x0, symName: __ZNSt3__1eqB7v160006ERKNS_21__hash_const_iteratorIPNS_11__hash_nodeINS_17__hash_value_typeImNS_13unordered_mapI5FieldNS_6vectorImNS_9allocatorImEEEENS_4hashIS4_EENS_8equal_toIS4_EENS6_INS_4pairIKS4_S8_EEEEEEEEPvEEEESO_, symObjAddr: 0x79EC0, symBinAddr: 0x100084978, symSize: 0x114 }
  - { offsetInCU: 0x1F177, offset: 0x29819, size: 0x8, addend: 0x0, symName: __ZNSt3__17launderB7v160006IKNS_4pairIKmNS_13unordered_mapI5FieldNS_6vectorImNS_9allocatorImEEEENS_4hashIS4_EENS_8equal_toIS4_EENS6_INS1_IKS4_S8_EEEEEEEEEEPT_SK_, symObjAddr: 0x7B53C, symBinAddr: 0x100085FF4, symSize: 0x24 }
  - { offsetInCU: 0x1F1AE, offset: 0x29850, size: 0x8, addend: 0x0, symName: __ZNSt3__19__launderB7v160006IKNS_4pairIKmNS_13unordered_mapI5FieldNS_6vectorImNS_9allocatorImEEEENS_4hashIS4_EENS_8equal_toIS4_EENS6_INS1_IKS4_S8_EEEEEEEEEEPT_SK_, symObjAddr: 0x7B560, symBinAddr: 0x100086018, symSize: 0x14 }
  - { offsetInCU: 0x1F1E6, offset: 0x29888, size: 0x8, addend: 0x0, symName: __ZNSt3__116forward_as_tupleB7v160006IJRKmEEENS_5tupleIJDpOT_EEES6_, symObjAddr: 0x7D340, symBinAddr: 0x100087DF8, symSize: 0x244 }
  - { offsetInCU: 0x1F23F, offset: 0x298E1, size: 0x8, addend: 0x0, symName: __ZNSt3__13getB7v160006ILm0EJRKmEEERNS_13tuple_elementIXT_ENS_5tupleIJDpT0_EEEE4typeERS7_, symObjAddr: 0x8029C, symBinAddr: 0x10008AD54, symSize: 0xE0 }
  - { offsetInCU: 0x1F283, offset: 0x29925, size: 0x8, addend: 0x0, symName: __ZNSt3__119__debug_db_insert_cB7v160006INS_13unordered_mapI5FieldNS_6vectorImNS_9allocatorImEEEENS_4hashIS2_EENS_8equal_toIS2_EENS4_INS_4pairIKS2_S6_EEEEEEEEvPT_, symObjAddr: 0x805F4, symBinAddr: 0x10008B0AC, symSize: 0x10 }
  - { offsetInCU: 0x1F2B4, offset: 0x29956, size: 0x8, addend: 0x0, symName: __ZNSt3__125__debug_db_invalidate_allB7v160006INS_12__hash_tableINS_17__hash_value_typeImNS_13unordered_mapI5FieldNS_6vectorImNS_9allocatorImEEEENS_4hashIS4_EENS_8equal_toIS4_EENS6_INS_4pairIKS4_S8_EEEEEEEENS_22__unordered_map_hasherImSI_NS9_ImEENSB_ImEELb1EEENS_21__unordered_map_equalImSI_SL_SK_Lb1EEENS6_ISI_EEEEEEvPT_, symObjAddr: 0x83E1C, symBinAddr: 0x10008E8D4, symSize: 0x10 }
  - { offsetInCU: 0x1F32E, offset: 0x299D0, size: 0x8, addend: 0x0, symName: __ZNSt3__1neB7v160006ERKNS_21__hash_const_iteratorIPNS_11__hash_nodeINS_17__hash_value_typeI5FieldNS_6vectorImNS_9allocatorImEEEEEEPvEEEESE_, symObjAddr: 0x856D0, symBinAddr: 0x100090188, symSize: 0xC4 }
  - { offsetInCU: 0x1F36B, offset: 0x29A0D, size: 0x8, addend: 0x0, symName: __ZNSt3__1eqB7v160006ERKNS_21__hash_const_iteratorIPNS_11__hash_nodeINS_17__hash_value_typeI5FieldNS_6vectorImNS_9allocatorImEEEEEEPvEEEESE_, symObjAddr: 0x862D0, symBinAddr: 0x100090D88, symSize: 0x114 }
  - { offsetInCU: 0x1F3A8, offset: 0x29A4A, size: 0x8, addend: 0x0, symName: __ZNSt3__17launderB7v160006IKNS_4pairIK5FieldNS_6vectorImNS_9allocatorImEEEEEEEEPT_SB_, symObjAddr: 0x87900, symBinAddr: 0x1000923B8, symSize: 0x24 }
  - { offsetInCU: 0x1F3DF, offset: 0x29A81, size: 0x8, addend: 0x0, symName: __ZNSt3__19__launderB7v160006IKNS_4pairIK5FieldNS_6vectorImNS_9allocatorImEEEEEEEEPT_SB_, symObjAddr: 0x87924, symBinAddr: 0x1000923DC, symSize: 0x14 }
  - { offsetInCU: 0x1F417, offset: 0x29AB9, size: 0x8, addend: 0x0, symName: __ZNSt3__116forward_as_tupleB7v160006IJRK5FieldEEENS_5tupleIJDpOT_EEES7_, symObjAddr: 0x89704, symBinAddr: 0x1000941BC, symSize: 0x244 }
  - { offsetInCU: 0x1F470, offset: 0x29B12, size: 0x8, addend: 0x0, symName: __ZNSt3__13getB7v160006ILm0EJRK5FieldEEERNS_13tuple_elementIXT_ENS_5tupleIJDpT0_EEEE4typeERS8_, symObjAddr: 0x8C5E4, symBinAddr: 0x10009709C, symSize: 0xE0 }
  - { offsetInCU: 0x1F4B4, offset: 0x29B56, size: 0x8, addend: 0x0, symName: __ZNSt3__119__debug_db_insert_cB7v160006INS_6vectorImNS_9allocatorImEEEEEEvPT_, symObjAddr: 0x8CC04, symBinAddr: 0x1000976BC, symSize: 0x10 }
  - { offsetInCU: 0x1F4E5, offset: 0x29B87, size: 0x8, addend: 0x0, symName: __ZNSt3__125__debug_db_invalidate_allB7v160006INS_12__hash_tableINS_17__hash_value_typeI5FieldNS_6vectorImNS_9allocatorImEEEEEENS_22__unordered_map_hasherIS3_S8_NS_4hashIS3_EENS_8equal_toIS3_EELb1EEENS_21__unordered_map_equalIS3_S8_SD_SB_Lb1EEENS5_IS8_EEEEEEvPT_, symObjAddr: 0x8EDE4, symBinAddr: 0x10009989C, symSize: 0x10 }
  - { offsetInCU: 0x1F55F, offset: 0x29C01, size: 0x8, addend: 0x0, symName: __ZNSt3__14sortB7v160006INS_16reverse_iteratorINS_11__wrap_iterIPmEEEENS_6__lessImmEEEEvT_S8_T0_, symObjAddr: 0x90848, symBinAddr: 0x10009B300, symSize: 0x364 }
  - { offsetInCU: 0x1F5C6, offset: 0x29C68, size: 0x8, addend: 0x0, symName: __ZNSt3__111__sort_implB7v160006INS_17_ClassicAlgPolicyENS_16reverse_iteratorINS_11__wrap_iterIPmEEEENS_6__lessImmEEEEvT0_S9_RT1_, symObjAddr: 0x90BAC, symBinAddr: 0x10009B664, symSize: 0x5D8 }
  - { offsetInCU: 0x1F67A, offset: 0x29D1C, size: 0x8, addend: 0x0, symName: __ZNSt3__123__debug_randomize_rangeB7v160006INS_17_ClassicAlgPolicyENS_16reverse_iteratorINS_11__wrap_iterIPmEEEES6_EEvT0_T1_, symObjAddr: 0x91184, symBinAddr: 0x10009BC3C, symSize: 0x268 }
  - { offsetInCU: 0x1F6D4, offset: 0x29D76, size: 0x8, addend: 0x0, symName: __ZNSt3__16__sortIRNS_6__lessImmEENS_16reverse_iteratorINS_11__wrap_iterIPmEEEEEEvT0_S9_T_, symObjAddr: 0x913EC, symBinAddr: 0x10009BEA4, symSize: 0x450 }
  - { offsetInCU: 0x1F770, offset: 0x29E12, size: 0x8, addend: 0x0, symName: __ZNSt3__113__unwrap_iterB7v160006INS_16reverse_iteratorINS_11__wrap_iterIPmEEEENS_18__unwrap_iter_implIS5_Lb0EEELi0EEEDTclsrT0_8__unwrapclsr3stdE7declvalIT_EEEES9_, symObjAddr: 0x9183C, symBinAddr: 0x10009C2F4, symSize: 0x2EC }
  - { offsetInCU: 0x1F7B9, offset: 0x29E5B, size: 0x8, addend: 0x0, symName: __ZNSt3__17__log2iB7v160006IlEET_S1_, symObjAddr: 0x91B28, symBinAddr: 0x10009C5E0, symSize: 0x54 }
  - { offsetInCU: 0x1F7F0, offset: 0x29E92, size: 0x8, addend: 0x0, symName: __ZNSt3__1miB7v160006INS_11__wrap_iterIPmEES3_EEDTmicldtfp0_4baseEcldtfp_4baseEERKNS_16reverse_iteratorIT_EERKNS5_IT0_EE, symObjAddr: 0x91B7C, symBinAddr: 0x10009C634, symSize: 0x308 }
  - { offsetInCU: 0x1F874, offset: 0x29F16, size: 0x8, addend: 0x0, symName: __ZNSt3__1miB7v160006IPmS1_EEDTmicldtfp_4baseEcldtfp0_4baseEERKNS_11__wrap_iterIT_EERKNS3_IT0_EE, symObjAddr: 0x94614, symBinAddr: 0x10009F0CC, symSize: 0x9C }
  - { offsetInCU: 0x1F9C0, offset: 0x2A062, size: 0x8, addend: 0x0, symName: __ZNSt3__124__sort3_maybe_branchlessB7v160006INS_17_ClassicAlgPolicyERNS_6__lessImmEENS_16reverse_iteratorINS_11__wrap_iterIPmEEEEEENS_9enable_ifIXntsr21__use_branchless_sortIT0_T1_EE5valueEvE4typeESC_SC_SC_SB_, symObjAddr: 0x94F4C, symBinAddr: 0x10009FA04, symSize: 0x458 }
  - { offsetInCU: 0x1FA3E, offset: 0x2A0E0, size: 0x8, addend: 0x0, symName: __ZNSt3__124__sort4_maybe_branchlessB7v160006INS_17_ClassicAlgPolicyERNS_6__lessImmEENS_16reverse_iteratorINS_11__wrap_iterIPmEEEEEENS_9enable_ifIXntsr21__use_branchless_sortIT0_T1_EE5valueEvE4typeESC_SC_SC_SC_SB_, symObjAddr: 0x95700, symBinAddr: 0x1000A01B8, symSize: 0x510 }
  - { offsetInCU: 0x1FAD5, offset: 0x2A177, size: 0x8, addend: 0x0, symName: __ZNSt3__124__sort5_maybe_branchlessB7v160006INS_17_ClassicAlgPolicyERNS_6__lessImmEENS_16reverse_iteratorINS_11__wrap_iterIPmEEEEEENS_9enable_ifIXntsr21__use_branchless_sortIT0_T1_EE5valueEvE4typeESC_SC_SC_SC_SC_SB_, symObjAddr: 0x95C10, symBinAddr: 0x1000A06C8, symSize: 0x5E8 }
  - { offsetInCU: 0x1FB80, offset: 0x2A222, size: 0x8, addend: 0x0, symName: __ZNSt3__114__partial_sortB7v160006INS_17_ClassicAlgPolicyERNS_6__lessImmEENS_16reverse_iteratorINS_11__wrap_iterIPmEEEES9_EET1_SA_SA_T2_RT0_, symObjAddr: 0x96C88, symBinAddr: 0x1000A1740, symSize: 0x7C0 }
  - { offsetInCU: 0x1FC1A, offset: 0x2A2BC, size: 0x8, addend: 0x0, symName: __ZNSt3__119__sort5_wrap_policyB7v160006INS_17_ClassicAlgPolicyERNS_6__lessImmEENS_16reverse_iteratorINS_11__wrap_iterIPmEEEEEEjT1_SA_SA_SA_SA_T0_, symObjAddr: 0x97558, symBinAddr: 0x1000A2010, symSize: 0x624 }
  - { offsetInCU: 0x1FCD8, offset: 0x2A37A, size: 0x8, addend: 0x0, symName: __ZNSt3__17__sort3B7v160006INS_17_ClassicAlgPolicyERNS_6__lessImmEENS_16reverse_iteratorINS_11__wrap_iterIPmEEEEEEjT1_SA_SA_T0_, symObjAddr: 0x97B7C, symBinAddr: 0x1000A2634, symSize: 0x7F4 }
  - { offsetInCU: 0x1FD65, offset: 0x2A407, size: 0x8, addend: 0x0, symName: __ZNSt3__1eqB7v160006INS_11__wrap_iterIPmEES3_EEbRKNS_16reverse_iteratorIT_EERKNS4_IT0_EE, symObjAddr: 0x98370, symBinAddr: 0x1000A2E28, symSize: 0x30C }
  - { offsetInCU: 0x1FDB3, offset: 0x2A455, size: 0x8, addend: 0x0, symName: __ZNSt3__1geB7v160006INS_11__wrap_iterIPmEES3_EEbRKNS_16reverse_iteratorIT_EERKNS4_IT0_EE, symObjAddr: 0x9877C, symBinAddr: 0x1000A3234, symSize: 0x30C }
  - { offsetInCU: 0x1FE04, offset: 0x2A4A6, size: 0x8, addend: 0x0, symName: __ZNSt3__1ltB7v160006INS_11__wrap_iterIPmEES3_EEbRKNS_16reverse_iteratorIT_EERKNS4_IT0_EE, symObjAddr: 0x98A88, symBinAddr: 0x1000A3540, symSize: 0x30C }
  - { offsetInCU: 0x1FE52, offset: 0x2A4F4, size: 0x8, addend: 0x0, symName: __ZNSt3__1gtB7v160006INS_11__wrap_iterIPmEES3_EEbRKNS_16reverse_iteratorIT_EERKNS4_IT0_EE, symObjAddr: 0x98D94, symBinAddr: 0x1000A384C, symSize: 0x30C }
  - { offsetInCU: 0x1FEA0, offset: 0x2A542, size: 0x8, addend: 0x0, symName: __ZNSt3__1neB7v160006INS_11__wrap_iterIPmEES3_EEbRKNS_16reverse_iteratorIT_EERKNS4_IT0_EE, symObjAddr: 0x990A0, symBinAddr: 0x1000A3B58, symSize: 0x30C }
  - { offsetInCU: 0x1FEEE, offset: 0x2A590, size: 0x8, addend: 0x0, symName: __ZNSt3__19iter_swapB7v160006INS_16reverse_iteratorINS_11__wrap_iterIPmEEEES5_EEvT_T0_, symObjAddr: 0x9AAD4, symBinAddr: 0x1000A558C, symSize: 0x30C }
  - { offsetInCU: 0x1FF3F, offset: 0x2A5E1, size: 0x8, addend: 0x0, symName: __ZNSt3__17__sort4B7v160006INS_17_ClassicAlgPolicyERNS_6__lessImmEENS_16reverse_iteratorINS_11__wrap_iterIPmEEEEEEjT1_SA_SA_SA_T0_, symObjAddr: 0x9B55C, symBinAddr: 0x1000A6014, symSize: 0x7BC }
  - { offsetInCU: 0x20003, offset: 0x2A6A5, size: 0x8, addend: 0x0, symName: __ZNSt3__119__partial_sort_implB7v160006INS_17_ClassicAlgPolicyERNS_6__lessImmEENS_16reverse_iteratorINS_11__wrap_iterIPmEEEES9_EET1_SA_SA_T2_OT0_, symObjAddr: 0x9C0B4, symBinAddr: 0x1000A6B6C, symSize: 0x89C }
  - { offsetInCU: 0x200AC, offset: 0x2A74E, size: 0x8, addend: 0x0, symName: __ZNSt3__111__make_heapB7v160006INS_17_ClassicAlgPolicyERNS_6__lessImmEENS_16reverse_iteratorINS_11__wrap_iterIPmEEEEEEvT1_SA_OT0_, symObjAddr: 0x9C950, symBinAddr: 0x1000A7408, symSize: 0x4E8 }
  - { offsetInCU: 0x2015C, offset: 0x2A7FE, size: 0x8, addend: 0x0, symName: __ZNSt3__111__sort_heapB7v160006INS_17_ClassicAlgPolicyERNS_6__lessImmEENS_16reverse_iteratorINS_11__wrap_iterIPmEEEEEEvT1_SA_OT0_, symObjAddr: 0x9DD44, symBinAddr: 0x1000A87FC, symSize: 0x448 }
  - { offsetInCU: 0x201FD, offset: 0x2A89F, size: 0x8, addend: 0x0, symName: __ZNSt3__110__pop_heapB7v160006INS_17_ClassicAlgPolicyENS_6__lessImmEENS_16reverse_iteratorINS_11__wrap_iterIPmEEEEEEvT1_S9_RT0_NS_15iterator_traitsIS9_E15difference_typeE, symObjAddr: 0x9E18C, symBinAddr: 0x1000A8C44, symSize: 0x800 }
  - { offsetInCU: 0x202B6, offset: 0x2A958, size: 0x8, addend: 0x0, symName: __ZNSt3__19__sift_upB7v160006INS_17_ClassicAlgPolicyERNS_6__lessImmEENS_16reverse_iteratorINS_11__wrap_iterIPmEEEEEEvT1_SA_OT0_NS_15iterator_traitsISA_E15difference_typeE, symObjAddr: 0x9F144, symBinAddr: 0x1000A9BFC, symSize: 0x9A8 }
  - { offsetInCU: 0x2036A, offset: 0x2AA0C, size: 0x8, addend: 0x0, symName: __ZNSt3__17__sort5IRNS_6__lessImmEENS_16reverse_iteratorINS_11__wrap_iterIPmEEEEEEjT0_S9_S9_S9_S9_T_, symObjAddr: 0x9FC20, symBinAddr: 0x1000AA6D8, symSize: 0x9D4 }
  - { offsetInCU: 0x2042E, offset: 0x2AAD0, size: 0x8, addend: 0x0, symName: __ZNSt3__1leB7v160006IPmEEbRKNS_11__wrap_iterIT_EES6_, symObjAddr: 0xA05F4, symBinAddr: 0x1000AB0AC, symSize: 0xC4 }
  - { offsetInCU: 0x20471, offset: 0x2AB13, size: 0x8, addend: 0x0, symName: __ZNSt3__1ltB7v160006IPmEEbRKNS_11__wrap_iterIT_EES6_, symObjAddr: 0xA06B8, symBinAddr: 0x1000AB170, symSize: 0x9C }
  - { offsetInCU: 0x204B4, offset: 0x2AB56, size: 0x8, addend: 0x0, symName: __ZNSt3__1gtB7v160006IPmEEbRKNS_11__wrap_iterIT_EES6_, symObjAddr: 0xA0754, symBinAddr: 0x1000AB20C, symSize: 0xC0 }
  - { offsetInCU: 0x2053F, offset: 0x2ABE1, size: 0x8, addend: 0x0, symName: __ZNSt3__1miB7v160006IPKNS_6vectorI5FieldNS_9allocatorIS2_EEEES7_EEDTmicldtfp_4baseEcldtfp0_4baseEERKNS_11__wrap_iterIT_EERKNS9_IT0_EE, symObjAddr: 0xA0E28, symBinAddr: 0x1000AB8E0, symSize: 0x9C }
  - { offsetInCU: 0x2058B, offset: 0x2AC2D, size: 0x8, addend: 0x0, symName: __ZNSt3__14moveB7v160006IPNS_6vectorI5FieldNS_9allocatorIS2_EEEES6_EET0_T_S8_S7_, symObjAddr: 0xA11F0, symBinAddr: 0x1000ABCA8, symSize: 0x2B4 }
  - { offsetInCU: 0x205E8, offset: 0x2AC8A, size: 0x8, addend: 0x0, symName: __ZNSt3__16__moveB7v160006INS_17_ClassicAlgPolicyEPNS_6vectorI5FieldNS_9allocatorIS3_EEEES7_S7_EENS_4pairIT0_T2_EES9_T1_SA_, symObjAddr: 0xA1F7C, symBinAddr: 0x1000ACA34, symSize: 0x22C }
  - { offsetInCU: 0x20657, offset: 0x2ACF9, size: 0x8, addend: 0x0, symName: __ZNSt3__123__dispatch_copy_or_moveB7v160006INS_17_ClassicAlgPolicyENS_11__move_loopIS1_EENS_14__move_trivialEPNS_6vectorI5FieldNS_9allocatorIS6_EEEESA_SA_EENS_4pairIT2_T4_EESC_T3_SD_, symObjAddr: 0xA21A8, symBinAddr: 0x1000ACC60, symSize: 0x22C }
  - { offsetInCU: 0x206D8, offset: 0x2AD7A, size: 0x8, addend: 0x0, symName: __ZNSt3__121__unwrap_and_dispatchB7v160006INS_10__overloadINS_11__move_loopINS_17_ClassicAlgPolicyEEENS_14__move_trivialEEEPNS_6vectorI5FieldNS_9allocatorIS8_EEEESC_SC_Li0EEENS_4pairIT0_T2_EESE_T1_SF_, symObjAddr: 0xA23D4, symBinAddr: 0x1000ACE8C, symSize: 0x634 }
  - { offsetInCU: 0x20772, offset: 0x2AE14, size: 0x8, addend: 0x0, symName: __ZNSt3__114__unwrap_rangeB7v160006IPNS_6vectorI5FieldNS_9allocatorIS2_EEEES6_EENS_4pairIT0_S8_EET_SA_, symObjAddr: 0xA2A08, symBinAddr: 0x1000AD4C0, symSize: 0x350 }
  - { offsetInCU: 0x20925, offset: 0x2AFC7, size: 0x8, addend: 0x0, symName: __ZNSt3__113__unwrap_iterB7v160006IPNS_6vectorI5FieldNS_9allocatorIS2_EEEENS_18__unwrap_iter_implIS6_Lb1EEELi0EEEDTclsrT0_8__unwrapclsr3stdE7declvalIT_EEEESA_, symObjAddr: 0xA3394, symBinAddr: 0x1000ADE4C, symSize: 0x24 }
  - { offsetInCU: 0x2096A, offset: 0x2B00C, size: 0x8, addend: 0x0, symName: __ZNSt3__19make_pairB7v160006IPNS_6vectorI5FieldNS_9allocatorIS2_EEEES6_EENS_4pairINS_18__unwrap_ref_decayIT_E4typeENS8_IT0_E4typeEEEOS9_OSC_, symObjAddr: 0xA33B8, symBinAddr: 0x1000ADE70, symSize: 0x2A0 }
  - { offsetInCU: 0x209BB, offset: 0x2B05D, size: 0x8, addend: 0x0, symName: __ZNSt3__114__rewrap_rangeB7v160006IPNS_6vectorI5FieldNS_9allocatorIS2_EEEES6_EET_S7_T0_, symObjAddr: 0xA3658, symBinAddr: 0x1000AE110, symSize: 0x2C }
  - { offsetInCU: 0x20A07, offset: 0x2B0A9, size: 0x8, addend: 0x0, symName: __ZNSt3__113__rewrap_iterB7v160006IPNS_6vectorI5FieldNS_9allocatorIS2_EEEES6_NS_18__unwrap_iter_implIS6_Lb1EEEEET_S9_T0_, symObjAddr: 0xA3684, symBinAddr: 0x1000AE13C, symSize: 0x48 }
  - { offsetInCU: 0x20A80, offset: 0x2B122, size: 0x8, addend: 0x0, symName: __ZNSt3__115__debug_db_swapB7v160006INS_6vectorI5FieldNS_9allocatorIS2_EEEEEEvPT_S7_, symObjAddr: 0xA40E0, symBinAddr: 0x1000AEB98, symSize: 0x14 }
  - { offsetInCU: 0x20B12, offset: 0x2B1B4, size: 0x8, addend: 0x0, symName: __ZNSt3__1eqB7v160006ERKNS_15__hash_iteratorIPNS_11__hash_nodeINS_17__hash_value_typeI5FieldNS_6vectorImNS_9allocatorImEEEEEEPvEEEESE_, symObjAddr: 0xA5370, symBinAddr: 0x1000AFE28, symSize: 0x114 }
  - { offsetInCU: 0x20B4F, offset: 0x2B1F1, size: 0x8, addend: 0x0, symName: '__ZNSt3__17find_ifB7v160006INS_11__wrap_iterIPNS_6vectorI5FieldNS_9allocatorIS3_EEEEEERZN8Database14executeCommandEvE3$_0EET_SC_SC_T0_', symObjAddr: 0xA6E44, symBinAddr: 0x1000B18FC, symSize: 0x3B8 }
  - { offsetInCU: 0x20BB3, offset: 0x2B255, size: 0x8, addend: 0x0, symName: __ZNSt3__1miB7v160006IPKNS_6vectorI5FieldNS_9allocatorIS2_EEEEPS5_EEDTmicldtfp_4baseEcldtfp0_4baseEERKNS_11__wrap_iterIT_EERKNSA_IT0_EE, symObjAddr: 0xA7810, symBinAddr: 0x1000B22C8, symSize: 0x9C }
  - { offsetInCU: 0x20BFF, offset: 0x2B2A1, size: 0x8, addend: 0x0, symName: __ZNSt3__1neB7v160006IPKNS_6vectorI5FieldNS_9allocatorIS2_EEEEEEbRKNS_11__wrap_iterIT_EESC_, symObjAddr: 0xA78AC, symBinAddr: 0x1000B2364, symSize: 0xC4 }
  - { offsetInCU: 0x20C42, offset: 0x2B2E4, size: 0x8, addend: 0x0, symName: __ZNSt3__1eqB7v160006IPKNS_6vectorI5FieldNS_9allocatorIS2_EEEEEEbRKNS_11__wrap_iterIT_EESC_, symObjAddr: 0xA7970, symBinAddr: 0x1000B2428, symSize: 0x9C }
  - { offsetInCU: 0x20CB8, offset: 0x2B35A, size: 0x8, addend: 0x0, symName: __ZNSt3__119__allocate_at_leastB7v160006INS_9allocatorImEEEENS_19__allocation_resultINS_16allocator_traitsIT_E7pointerEEERS5_m, symObjAddr: 0xAD650, symBinAddr: 0x1000B8108, symSize: 0x28C }
  - { offsetInCU: 0x20CFD, offset: 0x2B39F, size: 0x8, addend: 0x0, symName: __ZNSt3__142__uninitialized_allocator_move_if_noexceptB7v160006INS_9allocatorImEENS_16reverse_iteratorIPmEES5_mvEET1_RT_T0_S9_S6_, symObjAddr: 0xAE11C, symBinAddr: 0x1000B8BD4, symSize: 0x4A8 }
  - { offsetInCU: 0x20D89, offset: 0x2B42B, size: 0x8, addend: 0x0, symName: __ZNSt3__14swapB7v160006IPmEENS_9enable_ifIXaasr21is_move_constructibleIT_EE5valuesr18is_move_assignableIS3_EE5valueEvE4typeERS3_S6_, symObjAddr: 0xAE6F4, symBinAddr: 0x1000B91AC, symSize: 0x1C0 }
  - { offsetInCU: 0x20DDA, offset: 0x2B47C, size: 0x8, addend: 0x0, symName: __ZNSt3__125__debug_db_invalidate_allB7v160006INS_6vectorImNS_9allocatorImEEEEEEvPT_, symObjAddr: 0xAEC14, symBinAddr: 0x1000B96CC, symSize: 0x10 }
  - { offsetInCU: 0x20E0B, offset: 0x2B4AD, size: 0x8, addend: 0x0, symName: __ZNSt3__14moveB7v160006INS_16reverse_iteratorIPmEES3_EET0_T_S5_S4_, symObjAddr: 0xAEC24, symBinAddr: 0x1000B96DC, symSize: 0x4B0 }
  - { offsetInCU: 0x20E72, offset: 0x2B514, size: 0x8, addend: 0x0, symName: __ZNSt3__16__moveB7v160006INS_17_ClassicAlgPolicyENS_16reverse_iteratorIPmEES4_S4_EENS_4pairIT0_T2_EES6_T1_S7_, symObjAddr: 0xAF0D4, symBinAddr: 0x1000B9B8C, symSize: 0x424 }
  - { offsetInCU: 0x20EEA, offset: 0x2B58C, size: 0x8, addend: 0x0, symName: __ZNSt3__123__dispatch_copy_or_moveB7v160006INS_17_ClassicAlgPolicyENS_11__move_loopIS1_EENS_14__move_trivialENS_16reverse_iteratorIPmEES7_S7_EENS_4pairIT2_T4_EES9_T3_SA_, symObjAddr: 0xAF4F8, symBinAddr: 0x1000B9FB0, symSize: 0x424 }
  - { offsetInCU: 0x20F74, offset: 0x2B616, size: 0x8, addend: 0x0, symName: __ZNSt3__121__unwrap_and_dispatchB7v160006INS_10__overloadINS_11__move_loopINS_17_ClassicAlgPolicyEEENS_14__move_trivialEEENS_16reverse_iteratorIPmEES9_S9_Li0EEENS_4pairIT0_T2_EESB_T1_SC_, symObjAddr: 0xAF91C, symBinAddr: 0x1000BA3D4, symSize: 0x880 }
  - { offsetInCU: 0x21019, offset: 0x2B6BB, size: 0x8, addend: 0x0, symName: __ZNSt3__114__unwrap_rangeB7v160006INS_16reverse_iteratorIPmEES3_EENS_4pairIT0_S5_EET_S7_, symObjAddr: 0xB019C, symBinAddr: 0x1000BAC54, symSize: 0x448 }
  - { offsetInCU: 0x21141, offset: 0x2B7E3, size: 0x8, addend: 0x0, symName: __ZNSt3__113__unwrap_iterB7v160006INS_16reverse_iteratorIPmEENS_18__unwrap_iter_implIS3_Lb0EEELi0EEEDTclsrT0_8__unwrapclsr3stdE7declvalIT_EEEES7_, symObjAddr: 0xB0A40, symBinAddr: 0x1000BB4F8, symSize: 0x2EC }
  - { offsetInCU: 0x2118A, offset: 0x2B82C, size: 0x8, addend: 0x0, symName: __ZNSt3__19make_pairB7v160006INS_16reverse_iteratorIPmEES3_EENS_4pairINS_18__unwrap_ref_decayIT_E4typeENS5_IT0_E4typeEEEOS6_OS9_, symObjAddr: 0xB0D2C, symBinAddr: 0x1000BB7E4, symSize: 0x108 }
  - { offsetInCU: 0x211D9, offset: 0x2B87B, size: 0x8, addend: 0x0, symName: __ZNSt3__114__rewrap_rangeB7v160006INS_16reverse_iteratorIPmEES3_EET_S4_T0_, symObjAddr: 0xB0E34, symBinAddr: 0x1000BB8EC, symSize: 0x3D4 }
  - { offsetInCU: 0x2122D, offset: 0x2B8CF, size: 0x8, addend: 0x0, symName: __ZNSt3__113__rewrap_iterB7v160006INS_16reverse_iteratorIPmEES3_NS_18__unwrap_iter_implIS3_Lb0EEEEET_S6_T0_, symObjAddr: 0xB1208, symBinAddr: 0x1000BBCC0, symSize: 0x3E8 }
  - { offsetInCU: 0x2128A, offset: 0x2B92C, size: 0x8, addend: 0x0, symName: __ZNSt3__1neB7v160006IPmS1_EEbRKNS_16reverse_iteratorIT_EERKNS2_IT0_EE, symObjAddr: 0xB15F0, symBinAddr: 0x1000BC0A8, symSize: 0x9C }
  - { offsetInCU: 0x2131E, offset: 0x2B9C0, size: 0x8, addend: 0x0, symName: __ZNSt3__119__debug_db_insert_cB7v160006INS_6vectorINS_4pairIiNS_12basic_stringIcNS_11char_traitsIcEENS_9allocatorIcEEEEEENS6_IS9_EEEEEEvPT_, symObjAddr: 0xB3060, symBinAddr: 0x1000BDB18, symSize: 0x10 }
  - { offsetInCU: 0x2134F, offset: 0x2B9F1, size: 0x8, addend: 0x0, symName: __ZNSt3__118__debug_db_erase_cB7v160006INS_6vectorINS_4pairIiNS_12basic_stringIcNS_11char_traitsIcEENS_9allocatorIcEEEEEENS6_IS9_EEEEEEvPT_, symObjAddr: 0xB3FD0, symBinAddr: 0x1000BEA88, symSize: 0x10 }
  - { offsetInCU: 0x21380, offset: 0x2BA22, size: 0x8, addend: 0x0, symName: __ZNSt3__112__to_addressB7v160006INS_4pairIiNS_12basic_stringIcNS_11char_traitsIcEENS_9allocatorIcEEEEEEEEPT_SA_, symObjAddr: 0xB4530, symBinAddr: 0x1000BEFE8, symSize: 0x14 }
  - { offsetInCU: 0x213B5, offset: 0x2BA57, size: 0x8, addend: 0x0, symName: __ZNSt3__119__allocate_at_leastB7v160006INS_9allocatorINS_4pairIiNS_12basic_stringIcNS_11char_traitsIcEENS1_IcEEEEEEEEEENS_19__allocation_resultINS_16allocator_traitsIT_E7pointerEEERSC_m, symObjAddr: 0xB8F94, symBinAddr: 0x1000C3A4C, symSize: 0x28C }
  - { offsetInCU: 0x213FA, offset: 0x2BA9C, size: 0x8, addend: 0x0, symName: __ZNSt3__142__uninitialized_allocator_move_if_noexceptB7v160006INS_9allocatorINS_4pairIiNS_12basic_stringIcNS_11char_traitsIcEENS1_IcEEEEEEEENS_16reverse_iteratorIPS8_EESC_SC_EET2_RT_T0_T1_SD_, symObjAddr: 0xB9A60, symBinAddr: 0x1000C4518, symSize: 0x5D8 }
  - { offsetInCU: 0x214AF, offset: 0x2BB51, size: 0x8, addend: 0x0, symName: __ZNSt3__14swapB7v160006IPNS_4pairIiNS_12basic_stringIcNS_11char_traitsIcEENS_9allocatorIcEEEEEEEENS_9enable_ifIXaasr21is_move_constructibleIT_EE5valuesr18is_move_assignableISB_EE5valueEvE4typeERSB_SE_, symObjAddr: 0xBA168, symBinAddr: 0x1000C4C20, symSize: 0x1C0 }
  - { offsetInCU: 0x21500, offset: 0x2BBA2, size: 0x8, addend: 0x0, symName: __ZNSt3__125__debug_db_invalidate_allB7v160006INS_6vectorINS_4pairIiNS_12basic_stringIcNS_11char_traitsIcEENS_9allocatorIcEEEEEENS6_IS9_EEEEEEvPT_, symObjAddr: 0xBA688, symBinAddr: 0x1000C5140, symSize: 0x10 }
  - { offsetInCU: 0x21531, offset: 0x2BBD3, size: 0x8, addend: 0x0, symName: __ZNSt3__122__make_exception_guardB7v160006INS_29_AllocatorDestroyRangeReverseINS_9allocatorINS_4pairIiNS_12basic_stringIcNS_11char_traitsIcEENS2_IcEEEEEEEENS_16reverse_iteratorIPS9_EEEEEENS_28__exception_guard_exceptionsIT_EESG_, symObjAddr: 0xBA698, symBinAddr: 0x1000C5150, symSize: 0x23C }
  - { offsetInCU: 0x21568, offset: 0x2BC0A, size: 0x8, addend: 0x0, symName: __ZNSt3__1neB7v160006IPNS_4pairIiNS_12basic_stringIcNS_11char_traitsIcEENS_9allocatorIcEEEEEES9_EEbRKNS_16reverse_iteratorIT_EERKNSA_IT0_EE, symObjAddr: 0xBA964, symBinAddr: 0x1000C541C, symSize: 0x9C }
  - { offsetInCU: 0x215B4, offset: 0x2BC56, size: 0x8, addend: 0x0, symName: __ZNSt3__112__to_addressB7v160006INS_16reverse_iteratorIPNS_4pairIiNS_12basic_stringIcNS_11char_traitsIcEENS_9allocatorIcEEEEEEEEvEENS_5decayIDTclsr19__to_address_helperIT_EE6__callclsr3stdE7declvalIRKSD_EEEEE4typeESF_, symObjAddr: 0xBAA8C, symBinAddr: 0x1000C5544, symSize: 0x6C }
  - { offsetInCU: 0x21615, offset: 0x2BCB7, size: 0x8, addend: 0x0, symName: __ZNSt3__119__allocator_destroyB7v160006INS_9allocatorINS_4pairIiNS_12basic_stringIcNS_11char_traitsIcEENS1_IcEEEEEEEENS_16reverse_iteratorINSA_IPS8_EEEESD_EEvRT_T0_T1_, symObjAddr: 0xBBD60, symBinAddr: 0x1000C6818, symSize: 0x1A4 }
  - { offsetInCU: 0x2167B, offset: 0x2BD1D, size: 0x8, addend: 0x0, symName: __ZNSt3__1neB7v160006INS_16reverse_iteratorIPNS_4pairIiNS_12basic_stringIcNS_11char_traitsIcEENS_9allocatorIcEEEEEEEESB_EEbRKNS1_IT_EERKNS1_IT0_EE, symObjAddr: 0xBC1A0, symBinAddr: 0x1000C6C58, symSize: 0x324 }
  - { offsetInCU: 0x216C9, offset: 0x2BD6B, size: 0x8, addend: 0x0, symName: __ZNSt3__112__to_addressB7v160006INS_16reverse_iteratorINS1_IPNS_4pairIiNS_12basic_stringIcNS_11char_traitsIcEENS_9allocatorIcEEEEEEEEEEvEENS_5decayIDTclsr19__to_address_helperIT_EE6__callclsr3stdE7declvalIRKSE_EEEEE4typeESG_, symObjAddr: 0xBC4C4, symBinAddr: 0x1000C6F7C, symSize: 0x6C }
  - { offsetInCU: 0x2172A, offset: 0x2BDCC, size: 0x8, addend: 0x0, symName: __ZNSt3__122__make_exception_guardB7v160006INS_6vectorI5FieldNS_9allocatorIS2_EEE16__destroy_vectorEEENS_28__exception_guard_exceptionsIT_EES8_, symObjAddr: 0xBFD78, symBinAddr: 0x1000CA830, symSize: 0x2BC }
  - { offsetInCU: 0x21763, offset: 0x2BE05, size: 0x8, addend: 0x0, symName: __ZNSt3__130__uninitialized_allocator_copyB7v160006INS_9allocatorI5FieldEEPS2_S4_S4_EET2_RT_T0_T1_S5_, symObjAddr: 0xC1310, symBinAddr: 0x1000CBDC8, symSize: 0x6EC }
  - { offsetInCU: 0x2180F, offset: 0x2BEB1, size: 0x8, addend: 0x0, symName: __ZNSt3__122__make_exception_guardB7v160006INS_29_AllocatorDestroyRangeReverseINS_9allocatorI5FieldEEPS3_EEEENS_28__exception_guard_exceptionsIT_EES8_, symObjAddr: 0xC19FC, symBinAddr: 0x1000CC4B4, symSize: 0x23C }
  - { offsetInCU: 0x21846, offset: 0x2BEE8, size: 0x8, addend: 0x0, symName: __ZNSt3__119__allocator_destroyB7v160006INS_9allocatorI5FieldEENS_16reverse_iteratorIPS2_EES6_EEvRT_T0_T1_, symObjAddr: 0xC28A0, symBinAddr: 0x1000CD358, symSize: 0x2DC }
  - { offsetInCU: 0x218B3, offset: 0x2BF55, size: 0x8, addend: 0x0, symName: __ZNSt3__119__allocate_at_leastB7v160006INS_9allocatorINS_6vectorI5FieldNS1_IS3_EEEEEEEENS_19__allocation_resultINS_16allocator_traitsIT_E7pointerEEERS9_m, symObjAddr: 0xC4DCC, symBinAddr: 0x1000CF884, symSize: 0x28C }
  - { offsetInCU: 0x218F8, offset: 0x2BF9A, size: 0x8, addend: 0x0, symName: __ZNSt3__142__uninitialized_allocator_move_if_noexceptB7v160006INS_9allocatorINS_6vectorI5FieldNS1_IS3_EEEEEENS_16reverse_iteratorIPS5_EES9_S9_EET2_RT_T0_T1_SA_, symObjAddr: 0xC589C, symBinAddr: 0x1000D0354, symSize: 0x5D8 }
  - { offsetInCU: 0x219AD, offset: 0x2C04F, size: 0x8, addend: 0x0, symName: __ZNSt3__14swapB7v160006IPNS_6vectorI5FieldNS_9allocatorIS2_EEEEEENS_9enable_ifIXaasr21is_move_constructibleIT_EE5valuesr18is_move_assignableIS8_EE5valueEvE4typeERS8_SB_, symObjAddr: 0xC5FA4, symBinAddr: 0x1000D0A5C, symSize: 0x1C0 }
  - { offsetInCU: 0x219FE, offset: 0x2C0A0, size: 0x8, addend: 0x0, symName: __ZNSt3__125__debug_db_invalidate_allB7v160006INS_6vectorINS1_I5FieldNS_9allocatorIS2_EEEENS3_IS5_EEEEEEvPT_, symObjAddr: 0xC64DC, symBinAddr: 0x1000D0F94, symSize: 0x10 }
  - { offsetInCU: 0x21A2F, offset: 0x2C0D1, size: 0x8, addend: 0x0, symName: __ZNSt3__122__make_exception_guardB7v160006INS_29_AllocatorDestroyRangeReverseINS_9allocatorINS_6vectorI5FieldNS2_IS4_EEEEEENS_16reverse_iteratorIPS6_EEEEEENS_28__exception_guard_exceptionsIT_EESD_, symObjAddr: 0xC64EC, symBinAddr: 0x1000D0FA4, symSize: 0x23C }
  - { offsetInCU: 0x21A66, offset: 0x2C108, size: 0x8, addend: 0x0, symName: __ZNSt3__1neB7v160006IPNS_6vectorI5FieldNS_9allocatorIS2_EEEES6_EEbRKNS_16reverse_iteratorIT_EERKNS7_IT0_EE, symObjAddr: 0xC67B8, symBinAddr: 0x1000D1270, symSize: 0x9C }
  - { offsetInCU: 0x21AB2, offset: 0x2C154, size: 0x8, addend: 0x0, symName: __ZNSt3__112__to_addressB7v160006INS_16reverse_iteratorIPNS_6vectorI5FieldNS_9allocatorIS3_EEEEEEvEENS_5decayIDTclsr19__to_address_helperIT_EE6__callclsr3stdE7declvalIRKSA_EEEEE4typeESC_, symObjAddr: 0xC68E0, symBinAddr: 0x1000D1398, symSize: 0x6C }
  - { offsetInCU: 0x21B13, offset: 0x2C1B5, size: 0x8, addend: 0x0, symName: __ZNSt3__119__allocator_destroyB7v160006INS_9allocatorINS_6vectorI5FieldNS1_IS3_EEEEEENS_16reverse_iteratorINS7_IPS5_EEEESA_EEvRT_T0_T1_, symObjAddr: 0xC80C4, symBinAddr: 0x1000D2B7C, symSize: 0x1A4 }
  - { offsetInCU: 0x21B79, offset: 0x2C21B, size: 0x8, addend: 0x0, symName: __ZNSt3__1neB7v160006INS_16reverse_iteratorIPNS_6vectorI5FieldNS_9allocatorIS3_EEEEEES8_EEbRKNS1_IT_EERKNS1_IT0_EE, symObjAddr: 0xC8504, symBinAddr: 0x1000D2FBC, symSize: 0x324 }
  - { offsetInCU: 0x21BC7, offset: 0x2C269, size: 0x8, addend: 0x0, symName: __ZNSt3__112__to_addressB7v160006INS_16reverse_iteratorINS1_IPNS_6vectorI5FieldNS_9allocatorIS3_EEEEEEEEvEENS_5decayIDTclsr19__to_address_helperIT_EE6__callclsr3stdE7declvalIRKSB_EEEEE4typeESD_, symObjAddr: 0xC8828, symBinAddr: 0x1000D32E0, symSize: 0x6C }
  - { offsetInCU: 0x222E2, offset: 0x2C984, size: 0x8, addend: 0x0, symName: __ZSt28__throw_bad_array_new_lengthB7v160006v, symObjAddr: 0x2A704, symBinAddr: 0x100040C4C, symSize: 0x7C }
  - { offsetInCU: 0x2407A, offset: 0x2E71C, size: 0x8, addend: 0x0, symName: __ZNSt3__16vectorINS_12basic_stringIcNS_11char_traitsIcEENS_9allocatorIcEEEENS4_IS6_EEE26__swap_out_circular_bufferERNS_14__split_bufferIS6_RS7_EE, symObjAddr: 0x5CFC8, symBinAddr: 0x100068A44, symSize: 0x864 }
  - { offsetInCU: 0x240FA, offset: 0x2E79C, size: 0x8, addend: 0x0, symName: __ZNSt3__16vectorINS0_INS_12basic_stringIcNS_11char_traitsIcEENS_9allocatorIcEEEENS4_IS6_EEEENS4_IS8_EEE26__swap_out_circular_bufferERNS_14__split_bufferIS8_RS9_EE, symObjAddr: 0x63FFC, symBinAddr: 0x10006F8F0, symSize: 0x864 }
  - { offsetInCU: 0x24193, offset: 0x2E835, size: 0x8, addend: 0x0, symName: __ZNSt3__16vectorI5FieldNS_9allocatorIS1_EEE26__swap_out_circular_bufferERNS_14__split_bufferIS1_RS3_EE, symObjAddr: 0x6EE0C, symBinAddr: 0x10007A700, symSize: 0x864 }
  - { offsetInCU: 0x242D1, offset: 0x2E973, size: 0x8, addend: 0x0, symName: __ZNSt3__16vectorImNS_9allocatorImEEE26__swap_out_circular_bufferERNS_14__split_bufferImRS2_EE, symObjAddr: 0xABE0C, symBinAddr: 0x1000B68C4, symSize: 0x864 }
  - { offsetInCU: 0x244B9, offset: 0x2EB5B, size: 0x8, addend: 0x0, symName: __ZNSt3__16vectorINS_4pairIiNS_12basic_stringIcNS_11char_traitsIcEENS_9allocatorIcEEEEEENS5_IS8_EEE26__swap_out_circular_bufferERNS_14__split_bufferIS8_RS9_EE, symObjAddr: 0xB7750, symBinAddr: 0x1000C2208, symSize: 0x864 }
  - { offsetInCU: 0x2458E, offset: 0x2EC30, size: 0x8, addend: 0x0, symName: __ZNSt3__16vectorINS0_I5FieldNS_9allocatorIS1_EEEENS2_IS4_EEE26__swap_out_circular_bufferERNS_14__split_bufferIS4_RS5_EE, symObjAddr: 0xC3574, symBinAddr: 0x1000CE02C, symSize: 0x864 }
  - { offsetInCU: 0x2638E, offset: 0x30A30, size: 0x8, addend: 0x0, symName: _main, symObjAddr: 0x0, symBinAddr: 0x100016BF4, symSize: 0x448 }
  - { offsetInCU: 0x26443, offset: 0x30AE5, size: 0x8, addend: 0x0, symName: __ZNSt3__113basic_istreamIcNS_11char_traitsIcEEErsB7v160006EPFRNS_8ios_baseES5_E, symObjAddr: 0x448, symBinAddr: 0x10001703C, symSize: 0x248 }
  - { offsetInCU: 0x26476, offset: 0x30B18, size: 0x8, addend: 0x0, symName: __ZNSt3__113basic_ostreamIcNS_11char_traitsIcEEElsB7v160006EPFRNS_8ios_baseES5_E, symObjAddr: 0x7BC, symBinAddr: 0x1000173B0, symSize: 0x248 }
  - { offsetInCU: 0x265FA, offset: 0x30C9C, size: 0x8, addend: 0x0, symName: __ZN8DatabaseC1Ev, symObjAddr: 0xA04, symBinAddr: 0x1000175F8, symSize: 0x78 }
  - { offsetInCU: 0x26622, offset: 0x30CC4, size: 0x8, addend: 0x0, symName: __ZN8Database11commandLineEiPPc, symObjAddr: 0xA7C, symBinAddr: 0x100017670, symSize: 0x628 }
  - { offsetInCU: 0x2669B, offset: 0x30D3D, size: 0x8, addend: 0x0, symName: __ZN8Database14executeCommandEv, symObjAddr: 0x10A4, symBinAddr: 0x100017C98, symSize: 0x1224C }
  - { offsetInCU: 0x2749C, offset: 0x31B3E, size: 0x8, addend: 0x0, symName: __ZN8DatabaseD1Ev, symObjAddr: 0x132F0, symBinAddr: 0x100029EE4, symSize: 0x78 }
  - { offsetInCU: 0x274C4, offset: 0x31B66, size: 0x8, addend: 0x0, symName: __ZNSt3__112basic_stringIcNS_11char_traitsIcEENS_9allocatorIcEEEC1B7v160006Ev, symObjAddr: 0x136E4, symBinAddr: 0x10002A2D8, symSize: 0x78 }
  - { offsetInCU: 0x274EC, offset: 0x31B8E, size: 0x8, addend: 0x0, symName: __ZNKSt3__19basic_iosIcNS_11char_traitsIcEEEcvbB7v160006Ev, symObjAddr: 0x1375C, symBinAddr: 0x10002A350, symSize: 0xFC }
  - { offsetInCU: 0x27511, offset: 0x31BB3, size: 0x8, addend: 0x0, symName: __ZNKSt3__112basic_stringIcNS_11char_traitsIcEENS_9allocatorIcEEE5emptyB7v160006Ev, symObjAddr: 0x150E0, symBinAddr: 0x10002BCD4, symSize: 0x78 }
  - { offsetInCU: 0x27536, offset: 0x31BD8, size: 0x8, addend: 0x0, symName: __ZNSt3__112basic_stringIcNS_11char_traitsIcEENS_9allocatorIcEEEixB7v160006Em, symObjAddr: 0x15158, symBinAddr: 0x10002BD4C, symSize: 0x170 }
  - { offsetInCU: 0x2756A, offset: 0x31C0C, size: 0x8, addend: 0x0, symName: __ZNSt3__16vectorINS_12basic_stringIcNS_11char_traitsIcEENS_9allocatorIcEEEENS4_IS6_EEEC1Em, symObjAddr: 0x15718, symBinAddr: 0x10002C30C, symSize: 0x80 }
  - { offsetInCU: 0x275A4, offset: 0x31C46, size: 0x8, addend: 0x0, symName: __ZNSt3__16vectorI10ColumnTypeNS_9allocatorIS1_EEEC1Em, symObjAddr: 0x15798, symBinAddr: 0x10002C38C, symSize: 0x80 }
  - { offsetInCU: 0x275DE, offset: 0x31C80, size: 0x8, addend: 0x0, symName: __ZNSt3__16vectorI10ColumnTypeNS_9allocatorIS1_EEEixB7v160006Em, symObjAddr: 0x15818, symBinAddr: 0x10002C40C, symSize: 0x1B0 }
  - { offsetInCU: 0x27614, offset: 0x31CB6, size: 0x8, addend: 0x0, symName: __ZNSt3__16vectorINS_12basic_stringIcNS_11char_traitsIcEENS_9allocatorIcEEEENS4_IS6_EEEixB7v160006Em, symObjAddr: 0x159C8, symBinAddr: 0x10002C5BC, symSize: 0x1D4 }
  - { offsetInCU: 0x2764A, offset: 0x31CEC, size: 0x8, addend: 0x0, symName: __ZNSt3__113unordered_mapINS_12basic_stringIcNS_11char_traitsIcEENS_9allocatorIcEEEEP5TableNS_4hashIS6_EENS_8equal_toIS6_EENS4_INS_4pairIKS6_S8_EEEEE4findB7v160006ERSE_, symObjAddr: 0x15C5C, symBinAddr: 0x10002C850, symSize: 0x390 }
  - { offsetInCU: 0x27680, offset: 0x31D22, size: 0x8, addend: 0x0, symName: __ZNSt3__113unordered_mapINS_12basic_stringIcNS_11char_traitsIcEENS_9allocatorIcEEEEP5TableNS_4hashIS6_EENS_8equal_toIS6_EENS4_INS_4pairIKS6_S8_EEEEE3endB7v160006Ev, symObjAddr: 0x15FEC, symBinAddr: 0x10002CBE0, symSize: 0x340 }
  - { offsetInCU: 0x276A6, offset: 0x31D48, size: 0x8, addend: 0x0, symName: __ZNSt3__114numeric_limitsIlE3maxB7v160006Ev, symObjAddr: 0x16458, symBinAddr: 0x10002CF20, symSize: 0x14 }
  - { offsetInCU: 0x276BA, offset: 0x31D5C, size: 0x8, addend: 0x0, symName: __ZN5TableC1ERKNSt3__112basic_stringIcNS0_11char_traitsIcEENS0_9allocatorIcEEEERKNS0_6vectorIS6_NS4_IS6_EEEERKNS9_I10ColumnTypeNS4_ISE_EEEE, symObjAddr: 0x1646C, symBinAddr: 0x10002CF34, symSize: 0x90 }
  - { offsetInCU: 0x2770C, offset: 0x31DAE, size: 0x8, addend: 0x0, symName: __ZNSt3__113unordered_mapINS_12basic_stringIcNS_11char_traitsIcEENS_9allocatorIcEEEEP5TableNS_4hashIS6_EENS_8equal_toIS6_EENS4_INS_4pairIKS6_S8_EEEEEixERSE_, symObjAddr: 0x164FC, symBinAddr: 0x10002CFC4, symSize: 0x4F8 }
  - { offsetInCU: 0x27744, offset: 0x31DE6, size: 0x8, addend: 0x0, symName: __ZNSt3__16vectorINS_12basic_stringIcNS_11char_traitsIcEENS_9allocatorIcEEEENS4_IS6_EEE5beginB7v160006Ev, symObjAddr: 0x169F4, symBinAddr: 0x10002D4BC, symSize: 0x2B0 }
  - { offsetInCU: 0x2776C, offset: 0x31E0E, size: 0x8, addend: 0x0, symName: __ZNSt3__16vectorINS_12basic_stringIcNS_11char_traitsIcEENS_9allocatorIcEEEENS4_IS6_EEE3endB7v160006Ev, symObjAddr: 0x16CA4, symBinAddr: 0x10002D76C, symSize: 0x2B4 }
  - { offsetInCU: 0x27794, offset: 0x31E36, size: 0x8, addend: 0x0, symName: __ZNKSt3__111__wrap_iterIPNS_12basic_stringIcNS_11char_traitsIcEENS_9allocatorIcEEEEEdeB7v160006Ev, symObjAddr: 0x1701C, symBinAddr: 0x10002DAE4, symSize: 0xF4 }
  - { offsetInCU: 0x277B9, offset: 0x31E5B, size: 0x8, addend: 0x0, symName: __ZNSt3__111__wrap_iterIPNS_12basic_stringIcNS_11char_traitsIcEENS_9allocatorIcEEEEEppB7v160006Ev, symObjAddr: 0x17110, symBinAddr: 0x10002DBD8, symSize: 0x1A8 }
  - { offsetInCU: 0x277DE, offset: 0x31E80, size: 0x8, addend: 0x0, symName: __ZNSt3__16vectorI10ColumnTypeNS_9allocatorIS1_EEED1B7v160006Ev, symObjAddr: 0x172B8, symBinAddr: 0x10002DD80, symSize: 0x78 }
  - { offsetInCU: 0x27806, offset: 0x31EA8, size: 0x8, addend: 0x0, symName: __ZNSt3__16vectorINS_12basic_stringIcNS_11char_traitsIcEENS_9allocatorIcEEEENS4_IS6_EEED1B7v160006Ev, symObjAddr: 0x17330, symBinAddr: 0x10002DDF8, symSize: 0x78 }
  - { offsetInCU: 0x2782E, offset: 0x31ED0, size: 0x8, addend: 0x0, symName: __ZNKSt3__16vectorI10ColumnTypeNS_9allocatorIS1_EEE4sizeB7v160006Ev, symObjAddr: 0x17468, symBinAddr: 0x10002DF30, symSize: 0xF0 }
  - { offsetInCU: 0x27853, offset: 0x31EF5, size: 0x8, addend: 0x0, symName: __ZNSt3__16vectorINS0_INS_12basic_stringIcNS_11char_traitsIcEENS_9allocatorIcEEEENS4_IS6_EEEENS4_IS8_EEEC1B7v160006Ev, symObjAddr: 0x17558, symBinAddr: 0x10002E020, symSize: 0x78 }
  - { offsetInCU: 0x2787B, offset: 0x31F1D, size: 0x8, addend: 0x0, symName: __ZNSt3__16vectorINS_12basic_stringIcNS_11char_traitsIcEENS_9allocatorIcEEEENS4_IS6_EEEC1B7v160006Ev, symObjAddr: 0x175D0, symBinAddr: 0x10002E098, symSize: 0x78 }
  - { offsetInCU: 0x278A3, offset: 0x31F45, size: 0x8, addend: 0x0, symName: __ZNSt3__16vectorINS_12basic_stringIcNS_11char_traitsIcEENS_9allocatorIcEEEENS4_IS6_EEE9push_backB7v160006ERKS6_, symObjAddr: 0x17648, symBinAddr: 0x10002E110, symSize: 0x1FC }
  - { offsetInCU: 0x278D9, offset: 0x31F7B, size: 0x8, addend: 0x0, symName: __ZNSt3__16vectorINS0_INS_12basic_stringIcNS_11char_traitsIcEENS_9allocatorIcEEEENS4_IS6_EEEENS4_IS8_EEE9push_backB7v160006ERKS8_, symObjAddr: 0x17844, symBinAddr: 0x10002E30C, symSize: 0x1FC }
  - { offsetInCU: 0x2790F, offset: 0x31FB1, size: 0x8, addend: 0x0, symName: __ZNKSt3__16vectorINS0_I5FieldNS_9allocatorIS1_EEEENS2_IS4_EEE4sizeB7v160006Ev, symObjAddr: 0x17A40, symBinAddr: 0x10002E508, symSize: 0xF8 }
  - { offsetInCU: 0x27934, offset: 0x31FD6, size: 0x8, addend: 0x0, symName: __ZNKSt3__16vectorINS0_INS_12basic_stringIcNS_11char_traitsIcEENS_9allocatorIcEEEENS4_IS6_EEEENS4_IS8_EEE4sizeB7v160006Ev, symObjAddr: 0x17B38, symBinAddr: 0x10002E600, symSize: 0xF8 }
  - { offsetInCU: 0x27959, offset: 0x31FFB, size: 0x8, addend: 0x0, symName: __ZNSt3__16vectorI5FieldNS_9allocatorIS1_EEEC1B7v160006Ev, symObjAddr: 0x17C30, symBinAddr: 0x10002E6F8, symSize: 0x78 }
  - { offsetInCU: 0x27981, offset: 0x32023, size: 0x8, addend: 0x0, symName: __ZNSt3__16vectorINS0_INS_12basic_stringIcNS_11char_traitsIcEENS_9allocatorIcEEEENS4_IS6_EEEENS4_IS8_EEEixB7v160006Em, symObjAddr: 0x17CA8, symBinAddr: 0x10002E770, symSize: 0x1D4 }
  - { offsetInCU: 0x279B7, offset: 0x32059, size: 0x8, addend: 0x0, symName: __ZNKSt3__16vectorINS_12basic_stringIcNS_11char_traitsIcEENS_9allocatorIcEEEENS4_IS6_EEE4sizeB7v160006Ev, symObjAddr: 0x17E7C, symBinAddr: 0x10002E944, symSize: 0xF8 }
  - { offsetInCU: 0x279E1, offset: 0x32083, size: 0x8, addend: 0x0, symName: __ZNSt3__16vectorI5FieldNS_9allocatorIS1_EEE12emplace_backIJiEEERS1_DpOT_, symObjAddr: 0x17F74, symBinAddr: 0x10002EA3C, symSize: 0x24C }
  - { offsetInCU: 0x27A28, offset: 0x320CA, size: 0x8, addend: 0x0, symName: __ZNSt3__16vectorI5FieldNS_9allocatorIS1_EEE12emplace_backIJdEEERS1_DpOT_, symObjAddr: 0x181C0, symBinAddr: 0x10002EC88, symSize: 0x24C }
  - { offsetInCU: 0x27A6F, offset: 0x32111, size: 0x8, addend: 0x0, symName: __ZNSt3__16vectorI5FieldNS_9allocatorIS1_EEE12emplace_backIJbEEERS1_DpOT_, symObjAddr: 0x18488, symBinAddr: 0x10002EF50, symSize: 0x214 }
  - { offsetInCU: 0x27AB1, offset: 0x32153, size: 0x8, addend: 0x0, symName: __ZNSt3__16vectorI5FieldNS_9allocatorIS1_EEE12emplace_backIJRNS_12basic_stringIcNS_11char_traitsIcEENS2_IcEEEEEEERS1_DpOT_, symObjAddr: 0x1869C, symBinAddr: 0x10002F164, symSize: 0x24C }
  - { offsetInCU: 0x27AF3, offset: 0x32195, size: 0x8, addend: 0x0, symName: __ZN5Table9insertRowERKNSt3__16vectorI5FieldNS0_9allocatorIS2_EEEE, symObjAddr: 0x188F4, symBinAddr: 0x10002F3B0, symSize: 0x108 }
  - { offsetInCU: 0x27B2A, offset: 0x321CC, size: 0x8, addend: 0x0, symName: __ZNSt3__16vectorI5FieldNS_9allocatorIS1_EEED1B7v160006Ev, symObjAddr: 0x189FC, symBinAddr: 0x10002F4B8, symSize: 0x78 }
  - { offsetInCU: 0x27B52, offset: 0x321F4, size: 0x8, addend: 0x0, symName: __ZNSt3__16vectorINS0_INS_12basic_stringIcNS_11char_traitsIcEENS_9allocatorIcEEEENS4_IS6_EEEENS4_IS8_EEED1B7v160006Ev, symObjAddr: 0x18A74, symBinAddr: 0x10002F530, symSize: 0x78 }
  - { offsetInCU: 0x27B7A, offset: 0x3221C, size: 0x8, addend: 0x0, symName: __ZNSt3__16vectorINS0_I5FieldNS_9allocatorIS1_EEEENS2_IS4_EEE5beginB7v160006Ev, symObjAddr: 0x18AEC, symBinAddr: 0x10002F5A8, symSize: 0x2B0 }
  - { offsetInCU: 0x27BA2, offset: 0x32244, size: 0x8, addend: 0x0, symName: __ZNSt3__16vectorINS0_I5FieldNS_9allocatorIS1_EEEENS2_IS4_EEE3endB7v160006Ev, symObjAddr: 0x18D9C, symBinAddr: 0x10002F858, symSize: 0x2B4 }
  - { offsetInCU: 0x27BCA, offset: 0x3226C, size: 0x8, addend: 0x0, symName: __ZNKSt3__111__wrap_iterIPNS_6vectorI5FieldNS_9allocatorIS2_EEEEEdeB7v160006Ev, symObjAddr: 0x19114, symBinAddr: 0x10002FBD0, symSize: 0xF4 }
  - { offsetInCU: 0x27C3F, offset: 0x322E1, size: 0x8, addend: 0x0, symName: __ZNSt3__119basic_ostringstreamIcNS_11char_traitsIcEENS_9allocatorIcEEEC1B7v160006Ev, symObjAddr: 0x1965C, symBinAddr: 0x100030118, symSize: 0x36C }
  - { offsetInCU: 0x27C67, offset: 0x32309, size: 0x8, addend: 0x0, symName: __ZNKSt3__16vectorI5FieldNS_9allocatorIS1_EEEixB7v160006Em, symObjAddr: 0x199C8, symBinAddr: 0x100030484, symSize: 0x1CC }
  - { offsetInCU: 0x27C9D, offset: 0x3233F, size: 0x8, addend: 0x0, symName: __ZNKSt3__119basic_ostringstreamIcNS_11char_traitsIcEENS_9allocatorIcEEE3strB7v160006Ev, symObjAddr: 0x19B94, symBinAddr: 0x100030650, symSize: 0x1DC }
  - { offsetInCU: 0x27CC7, offset: 0x32369, size: 0x8, addend: 0x0, symName: __ZNSt3__119basic_ostringstreamIcNS_11char_traitsIcEENS_9allocatorIcEEED1Ev, symObjAddr: 0x19FBC, symBinAddr: 0x1000309B4, symSize: 0x8C }
  - { offsetInCU: 0x27CF8, offset: 0x3239A, size: 0x8, addend: 0x0, symName: __ZNK5FieldeqIivEEbRKT_, symObjAddr: 0x1A048, symBinAddr: 0x100030A40, symSize: 0xF8 }
  - { offsetInCU: 0x27D36, offset: 0x323D8, size: 0x8, addend: 0x0, symName: __ZNSt3__111__wrap_iterIPNS_6vectorI5FieldNS_9allocatorIS2_EEEEEppB7v160006Ev, symObjAddr: 0x1A140, symBinAddr: 0x100030B38, symSize: 0x1A8 }
  - { offsetInCU: 0x27D5B, offset: 0x323FD, size: 0x8, addend: 0x0, symName: __ZNKSt3__113unordered_mapImNS0_I5FieldNS_6vectorImNS_9allocatorImEEEENS_4hashIS1_EENS_8equal_toIS1_EENS3_INS_4pairIKS1_S5_EEEEEENS6_ImEENS8_ImEENS3_INSA_IKmSE_EEEEE5countB7v160006ERSH_, symObjAddr: 0x1A6D4, symBinAddr: 0x1000310CC, symSize: 0x100 }
  - { offsetInCU: 0x27D8F, offset: 0x32431, size: 0x8, addend: 0x0, symName: __ZNSt3__113unordered_mapImNS0_I5FieldNS_6vectorImNS_9allocatorImEEEENS_4hashIS1_EENS_8equal_toIS1_EENS3_INS_4pairIKS1_S5_EEEEEENS6_ImEENS8_ImEENS3_INSA_IKmSE_EEEEEixERSH_, symObjAddr: 0x1A7D4, symBinAddr: 0x1000311CC, symSize: 0x4F8 }
  - { offsetInCU: 0x27DC7, offset: 0x32469, size: 0x8, addend: 0x0, symName: __ZNKSt3__113unordered_mapI5FieldNS_6vectorImNS_9allocatorImEEEENS_4hashIS1_EENS_8equal_toIS1_EENS3_INS_4pairIKS1_S5_EEEEE5countB7v160006ERSB_, symObjAddr: 0x1ACCC, symBinAddr: 0x1000316C4, symSize: 0x100 }
  - { offsetInCU: 0x27DFB, offset: 0x3249D, size: 0x8, addend: 0x0, symName: __ZNSt3__113unordered_mapI5FieldNS_6vectorImNS_9allocatorImEEEENS_4hashIS1_EENS_8equal_toIS1_EENS3_INS_4pairIKS1_S5_EEEEEixERSB_, symObjAddr: 0x1ADCC, symBinAddr: 0x1000317C4, symSize: 0x4F8 }
  - { offsetInCU: 0x27E33, offset: 0x324D5, size: 0x8, addend: 0x0, symName: __ZNSt3__16vectorImNS_9allocatorImEEE6rbeginB7v160006Ev, symObjAddr: 0x1B618, symBinAddr: 0x100032010, symSize: 0x31C }
  - { offsetInCU: 0x27E59, offset: 0x324FB, size: 0x8, addend: 0x0, symName: __ZNSt3__16vectorImNS_9allocatorImEEE4rendB7v160006Ev, symObjAddr: 0x1B934, symBinAddr: 0x10003232C, symSize: 0x31C }
  - { offsetInCU: 0x27E7F, offset: 0x32521, size: 0x8, addend: 0x0, symName: __ZNSt3__16vectorImNS_9allocatorImEEE5beginB7v160006Ev, symObjAddr: 0x1BC50, symBinAddr: 0x100032648, symSize: 0x2B0 }
  - { offsetInCU: 0x27EA7, offset: 0x32549, size: 0x8, addend: 0x0, symName: __ZNSt3__16vectorImNS_9allocatorImEEE3endB7v160006Ev, symObjAddr: 0x1BF00, symBinAddr: 0x1000328F8, symSize: 0x2B4 }
  - { offsetInCU: 0x27ECF, offset: 0x32571, size: 0x8, addend: 0x0, symName: __ZNKSt3__111__wrap_iterIPmEdeB7v160006Ev, symObjAddr: 0x1C278, symBinAddr: 0x100032C70, symSize: 0xF4 }
  - { offsetInCU: 0x27EF4, offset: 0x32596, size: 0x8, addend: 0x0, symName: __ZNSt3__16vectorINS0_I5FieldNS_9allocatorIS1_EEEENS2_IS4_EEE5eraseB7v160006ENS_11__wrap_iterIPKS4_EE, symObjAddr: 0x1C36C, symBinAddr: 0x100032D64, symSize: 0x65C }
  - { offsetInCU: 0x27F4F, offset: 0x325F1, size: 0x8, addend: 0x0, symName: __ZNKSt3__111__wrap_iterIPNS_6vectorI5FieldNS_9allocatorIS2_EEEEEplB7v160006El, symObjAddr: 0x1C9C8, symBinAddr: 0x1000333C0, symSize: 0x258 }
  - { offsetInCU: 0x27FA0, offset: 0x32642, size: 0x8, addend: 0x0, symName: __ZNSt3__111__wrap_iterIPKNS_6vectorI5FieldNS_9allocatorIS2_EEEEEC1B7v160006IPS5_EERKNS0_IT_EEPNS_9enable_ifIXsr14is_convertibleISB_S7_EE5valueEvE4typeE, symObjAddr: 0x1CC20, symBinAddr: 0x100033618, symSize: 0x88 }
  - { offsetInCU: 0x27FEA, offset: 0x3268C, size: 0x8, addend: 0x0, symName: __ZNSt3__111__wrap_iterIPmEppB7v160006Ev, symObjAddr: 0x1CCA8, symBinAddr: 0x1000336A0, symSize: 0x1A8 }
  - { offsetInCU: 0x2800F, offset: 0x326B1, size: 0x8, addend: 0x0, symName: __ZNSt3__113unordered_mapI5FieldNS_6vectorImNS_9allocatorImEEEENS_4hashIS1_EENS_8equal_toIS1_EENS3_INS_4pairIKS1_S5_EEEEE5eraseB7v160006ERSB_, symObjAddr: 0x1CE50, symBinAddr: 0x100033848, symSize: 0x100 }
  - { offsetInCU: 0x28043, offset: 0x326E5, size: 0x8, addend: 0x0, symName: __ZNSt3__16vectorINS0_I5FieldNS_9allocatorIS1_EEEENS2_IS4_EEE5eraseENS_11__wrap_iterIPKS4_EESA_, symObjAddr: 0x1CF50, symBinAddr: 0x100033948, symSize: 0x744 }
  - { offsetInCU: 0x280A1, offset: 0x32743, size: 0x8, addend: 0x0, symName: __ZNSt3__113unordered_mapImNS0_I5FieldNS_6vectorImNS_9allocatorImEEEENS_4hashIS1_EENS_8equal_toIS1_EENS3_INS_4pairIKS1_S5_EEEEEENS6_ImEENS8_ImEENS3_INSA_IKmSE_EEEEE5clearB7v160006Ev, symObjAddr: 0x1DD38, symBinAddr: 0x100034730, symSize: 0xB0 }
  - { offsetInCU: 0x280C6, offset: 0x32768, size: 0x8, addend: 0x0, symName: __ZNKSt3__119__hash_map_iteratorINS_15__hash_iteratorIPNS_11__hash_nodeINS_17__hash_value_typeINS_12basic_stringIcNS_11char_traitsIcEENS_9allocatorIcEEEEP5TableEEPvEEEEEptB7v160006Ev, symObjAddr: 0x1DDE8, symBinAddr: 0x1000347E0, symSize: 0x148 }
  - { offsetInCU: 0x280EB, offset: 0x3278D, size: 0x8, addend: 0x0, symName: __ZN5TableD1Ev, symObjAddr: 0x1DF30, symBinAddr: 0x100034928, symSize: 0x78 }
  - { offsetInCU: 0x28116, offset: 0x327B8, size: 0x8, addend: 0x0, symName: __ZNSt3__113unordered_mapINS_12basic_stringIcNS_11char_traitsIcEENS_9allocatorIcEEEEP5TableNS_4hashIS6_EENS_8equal_toIS6_EENS4_INS_4pairIKS6_S8_EEEEE5eraseB7v160006ENS_19__hash_map_iteratorINS_15__hash_iteratorIPNS_11__hash_nodeINS_17__hash_value_typeIS6_S8_EEPvEEEEEE, symObjAddr: 0x1DFA8, symBinAddr: 0x1000349A0, symSize: 0x408 }
  - { offsetInCU: 0x2814F, offset: 0x327F1, size: 0x8, addend: 0x0, symName: __ZNSt3__113unordered_mapI5FieldNS_6vectorImNS_9allocatorImEEEENS_4hashIS1_EENS_8equal_toIS1_EENS3_INS_4pairIKS1_S5_EEEEE5clearB7v160006Ev, symObjAddr: 0x1E3B0, symBinAddr: 0x100034DA8, symSize: 0xB0 }
  - { offsetInCU: 0x28174, offset: 0x32816, size: 0x8, addend: 0x0, symName: __ZNSt3__16vectorINS0_I5FieldNS_9allocatorIS1_EEEENS2_IS4_EEEixB7v160006Em, symObjAddr: 0x1E460, symBinAddr: 0x100034E58, symSize: 0x1D4 }
  - { offsetInCU: 0x281AA, offset: 0x3284C, size: 0x8, addend: 0x0, symName: __ZNSt3__16vectorI5FieldNS_9allocatorIS1_EEEixB7v160006Em, symObjAddr: 0x1E634, symBinAddr: 0x10003502C, symSize: 0x1CC }
  - { offsetInCU: 0x281E0, offset: 0x32882, size: 0x8, addend: 0x0, symName: __ZNSt3__16vectorImNS_9allocatorImEEE9push_backB7v160006ERKm, symObjAddr: 0x1E800, symBinAddr: 0x1000351F8, symSize: 0x1FC }
  - { offsetInCU: 0x28216, offset: 0x328B8, size: 0x8, addend: 0x0, symName: __ZNKSt3__113unordered_mapI5FieldNS_6vectorImNS_9allocatorImEEEENS_4hashIS1_EENS_8equal_toIS1_EENS3_INS_4pairIKS1_S5_EEEEE4sizeB7v160006Ev, symObjAddr: 0x1E9FC, symBinAddr: 0x1000353F4, symSize: 0xB0 }
  - { offsetInCU: 0x2823B, offset: 0x328DD, size: 0x8, addend: 0x0, symName: __ZNSt3__16vectorINS_4pairIiNS_12basic_stringIcNS_11char_traitsIcEENS_9allocatorIcEEEEEENS5_IS8_EEEC1B7v160006Ev, symObjAddr: 0x1EAAC, symBinAddr: 0x1000354A4, symSize: 0x78 }
  - { offsetInCU: 0x28263, offset: 0x32905, size: 0x8, addend: 0x0, symName: __ZNSt3__16vectorINS_4pairIiNS_12basic_stringIcNS_11char_traitsIcEENS_9allocatorIcEEEEEENS5_IS8_EEE12emplace_backIJRiRS7_EEERS8_DpOT_, symObjAddr: 0x1EB24, symBinAddr: 0x10003551C, symSize: 0x2E8 }
  - { offsetInCU: 0x282B9, offset: 0x3295B, size: 0x8, addend: 0x0, symName: __ZNSt3__16vectorINS_4pairIiNS_12basic_stringIcNS_11char_traitsIcEENS_9allocatorIcEEEEEENS5_IS8_EEE5beginB7v160006Ev, symObjAddr: 0x1EE0C, symBinAddr: 0x100035804, symSize: 0x2B0 }
  - { offsetInCU: 0x282E1, offset: 0x32983, size: 0x8, addend: 0x0, symName: __ZNSt3__16vectorINS_4pairIiNS_12basic_stringIcNS_11char_traitsIcEENS_9allocatorIcEEEEEENS5_IS8_EEE3endB7v160006Ev, symObjAddr: 0x1F0BC, symBinAddr: 0x100035AB4, symSize: 0x2B4 }
  - { offsetInCU: 0x28309, offset: 0x329AB, size: 0x8, addend: 0x0, symName: __ZNKSt3__111__wrap_iterIPNS_4pairIiNS_12basic_stringIcNS_11char_traitsIcEENS_9allocatorIcEEEEEEEdeB7v160006Ev, symObjAddr: 0x1F434, symBinAddr: 0x100035E2C, symSize: 0xF4 }
  - { offsetInCU: 0x2832E, offset: 0x329D0, size: 0x8, addend: 0x0, symName: __ZNSt3__111__wrap_iterIPNS_4pairIiNS_12basic_stringIcNS_11char_traitsIcEENS_9allocatorIcEEEEEEEppB7v160006Ev, symObjAddr: 0x1F528, symBinAddr: 0x100035F20, symSize: 0x1A8 }
  - { offsetInCU: 0x28353, offset: 0x329F5, size: 0x8, addend: 0x0, symName: __ZNSt3__16vectorINS_4pairIiNS_12basic_stringIcNS_11char_traitsIcEENS_9allocatorIcEEEEEENS5_IS8_EEED1B7v160006Ev, symObjAddr: 0x1F6D0, symBinAddr: 0x1000360C8, symSize: 0x78 }
  - { offsetInCU: 0x2837B, offset: 0x32A1D, size: 0x8, addend: 0x0, symName: __ZN8Database15readFieldByTypeE10ColumnType, symObjAddr: 0x1F748, symBinAddr: 0x100036140, symSize: 0x908 }
  - { offsetInCU: 0x28433, offset: 0x32AD5, size: 0x8, addend: 0x0, symName: __ZNSt3__16vectorINS0_I5FieldNS_9allocatorIS1_EEEENS2_IS4_EEE9push_backB7v160006ERKS4_, symObjAddr: 0x20050, symBinAddr: 0x100036A48, symSize: 0x1FC }
  - { offsetInCU: 0x28469, offset: 0x32B0B, size: 0x8, addend: 0x0, symName: __ZNSt3__18ios_base4setfB7v160006Ej, symObjAddr: 0x2024C, symBinAddr: 0x100036C44, symSize: 0x250 }
  - { offsetInCU: 0x284AE, offset: 0x32B50, size: 0x8, addend: 0x0, symName: __ZN8DatabaseC2Ev, symObjAddr: 0x2049C, symBinAddr: 0x100036E94, symSize: 0xE8 }
  - { offsetInCU: 0x284D6, offset: 0x32B78, size: 0x8, addend: 0x0, symName: __ZNSt3__113unordered_mapINS_12basic_stringIcNS_11char_traitsIcEENS_9allocatorIcEEEEP5TableNS_4hashIS6_EENS_8equal_toIS6_EENS4_INS_4pairIKS6_S8_EEEEEC1B7v160006Ev, symObjAddr: 0x20584, symBinAddr: 0x100036F7C, symSize: 0x78 }
  - { offsetInCU: 0x284FE, offset: 0x32BA0, size: 0x8, addend: 0x0, symName: __ZNSt3__113unordered_mapINS_12basic_stringIcNS_11char_traitsIcEENS_9allocatorIcEEEEP5TableNS_4hashIS6_EENS_8equal_toIS6_EENS4_INS_4pairIKS6_S8_EEEEEC2B7v160006Ev, symObjAddr: 0x205FC, symBinAddr: 0x100036FF4, symSize: 0x94 }
  - { offsetInCU: 0x28526, offset: 0x32BC8, size: 0x8, addend: 0x0, symName: __ZNSt3__112__hash_tableINS_17__hash_value_typeINS_12basic_stringIcNS_11char_traitsIcEENS_9allocatorIcEEEEP5TableEENS_22__unordered_map_hasherIS7_SA_NS_4hashIS7_EENS_8equal_toIS7_EELb1EEENS_21__unordered_map_equalIS7_SA_SF_SD_Lb1EEENS5_ISA_EEEC1Ev, symObjAddr: 0x20690, symBinAddr: 0x100037088, symSize: 0x78 }
  - { offsetInCU: 0x28551, offset: 0x32BF3, size: 0x8, addend: 0x0, symName: __ZNSt3__112__hash_tableINS_17__hash_value_typeINS_12basic_stringIcNS_11char_traitsIcEENS_9allocatorIcEEEEP5TableEENS_22__unordered_map_hasherIS7_SA_NS_4hashIS7_EENS_8equal_toIS7_EELb1EEENS_21__unordered_map_equalIS7_SA_SF_SD_Lb1EEENS5_ISA_EEEC2Ev, symObjAddr: 0x20718, symBinAddr: 0x100037110, symSize: 0x3E0 }
  - { offsetInCU: 0x2857D, offset: 0x32C1F, size: 0x8, addend: 0x0, symName: __ZNSt3__110unique_ptrIA_PNS_16__hash_node_baseIPNS_11__hash_nodeINS_17__hash_value_typeINS_12basic_stringIcNS_11char_traitsIcEENS_9allocatorIcEEEEP5TableEEPvEEEENS_25__bucket_list_deallocatorINS7_ISH_EEEEEC1B7v160006ILb1EvEEv, symObjAddr: 0x20AF8, symBinAddr: 0x1000374F0, symSize: 0x78 }
  - { offsetInCU: 0x285B1, offset: 0x32C53, size: 0x8, addend: 0x0, symName: __ZNSt3__117__compressed_pairINS_16__hash_node_baseIPNS_11__hash_nodeINS_17__hash_value_typeINS_12basic_stringIcNS_11char_traitsIcEENS_9allocatorIcEEEEP5TableEEPvEEEENS7_ISE_EEEC1B7v160006ILb1EvEEv, symObjAddr: 0x20B70, symBinAddr: 0x100037568, symSize: 0x78 }
  - { offsetInCU: 0x285EA, offset: 0x32C8C, size: 0x8, addend: 0x0, symName: __ZNSt3__117__compressed_pairImNS_22__unordered_map_hasherINS_12basic_stringIcNS_11char_traitsIcEENS_9allocatorIcEEEENS_17__hash_value_typeIS7_P5TableEENS_4hashIS7_EENS_8equal_toIS7_EELb1EEEEC1B7v160006IiNS_18__default_init_tagEEEOT_OT0_, symObjAddr: 0x20BE8, symBinAddr: 0x1000375E0, symSize: 0x88 }
  - { offsetInCU: 0x28645, offset: 0x32CE7, size: 0x8, addend: 0x0, symName: __ZNSt3__117__compressed_pairIfNS_21__unordered_map_equalINS_12basic_stringIcNS_11char_traitsIcEENS_9allocatorIcEEEENS_17__hash_value_typeIS7_P5TableEENS_8equal_toIS7_EENS_4hashIS7_EELb1EEEEC1B7v160006IfNS_18__default_init_tagEEEOT_OT0_, symObjAddr: 0x20C70, symBinAddr: 0x100037668, symSize: 0x88 }
  - { offsetInCU: 0x2869B, offset: 0x32D3D, size: 0x8, addend: 0x0, symName: __ZNSt3__110unique_ptrIA_PNS_16__hash_node_baseIPNS_11__hash_nodeINS_17__hash_value_typeINS_12basic_stringIcNS_11char_traitsIcEENS_9allocatorIcEEEEP5TableEEPvEEEENS_25__bucket_list_deallocatorINS7_ISH_EEEEEC2B7v160006ILb1EvEEv, symObjAddr: 0x20CF8, symBinAddr: 0x1000376F0, symSize: 0x268 }
  - { offsetInCU: 0x286D5, offset: 0x32D77, size: 0x8, addend: 0x0, symName: __ZNSt3__117__compressed_pairIPPNS_16__hash_node_baseIPNS_11__hash_nodeINS_17__hash_value_typeINS_12basic_stringIcNS_11char_traitsIcEENS_9allocatorIcEEEEP5TableEEPvEEEENS_25__bucket_list_deallocatorINS7_ISH_EEEEEC1B7v160006INS_16__value_init_tagESO_EEOT_OT0_, symObjAddr: 0x20F60, symBinAddr: 0x100037958, symSize: 0x88 }
  - { offsetInCU: 0x2872B, offset: 0x32DCD, size: 0x8, addend: 0x0, symName: __ZNSt3__117__compressed_pairIPPNS_16__hash_node_baseIPNS_11__hash_nodeINS_17__hash_value_typeINS_12basic_stringIcNS_11char_traitsIcEENS_9allocatorIcEEEEP5TableEEPvEEEENS_25__bucket_list_deallocatorINS7_ISH_EEEEEC2B7v160006INS_16__value_init_tagESO_EEOT_OT0_, symObjAddr: 0x20FE8, symBinAddr: 0x1000379E0, symSize: 0x118 }
  - { offsetInCU: 0x28781, offset: 0x32E23, size: 0x8, addend: 0x0, symName: __ZNSt3__122__compressed_pair_elemIPPNS_16__hash_node_baseIPNS_11__hash_nodeINS_17__hash_value_typeINS_12basic_stringIcNS_11char_traitsIcEENS_9allocatorIcEEEEP5TableEEPvEEEELi0ELb0EEC2B7v160006ENS_16__value_init_tagE, symObjAddr: 0x21100, symBinAddr: 0x100037AF8, symSize: 0xB8 }
  - { offsetInCU: 0x287B4, offset: 0x32E56, size: 0x8, addend: 0x0, symName: __ZNSt3__122__compressed_pair_elemINS_25__bucket_list_deallocatorINS_9allocatorIPNS_16__hash_node_baseIPNS_11__hash_nodeINS_17__hash_value_typeINS_12basic_stringIcNS_11char_traitsIcEENS2_IcEEEEP5TableEEPvEEEEEEEELi1ELb0EEC2B7v160006ENS_16__value_init_tagE, symObjAddr: 0x211B8, symBinAddr: 0x100037BB0, symSize: 0x78 }
  - { offsetInCU: 0x287E7, offset: 0x32E89, size: 0x8, addend: 0x0, symName: __ZNSt3__125__bucket_list_deallocatorINS_9allocatorIPNS_16__hash_node_baseIPNS_11__hash_nodeINS_17__hash_value_typeINS_12basic_stringIcNS_11char_traitsIcEENS1_IcEEEEP5TableEEPvEEEEEEEC1B7v160006Ev, symObjAddr: 0x21230, symBinAddr: 0x100037C28, symSize: 0x78 }
  - { offsetInCU: 0x2880F, offset: 0x32EB1, size: 0x8, addend: 0x0, symName: __ZNSt3__125__bucket_list_deallocatorINS_9allocatorIPNS_16__hash_node_baseIPNS_11__hash_nodeINS_17__hash_value_typeINS_12basic_stringIcNS_11char_traitsIcEENS1_IcEEEEP5TableEEPvEEEEEEEC2B7v160006Ev, symObjAddr: 0x212A8, symBinAddr: 0x100037CA0, symSize: 0x2CC }
  - { offsetInCU: 0x28838, offset: 0x32EDA, size: 0x8, addend: 0x0, symName: __ZNSt3__117__compressed_pairImNS_9allocatorIPNS_16__hash_node_baseIPNS_11__hash_nodeINS_17__hash_value_typeINS_12basic_stringIcNS_11char_traitsIcEENS1_IcEEEEP5TableEEPvEEEEEEEC1B7v160006IiNS_18__default_init_tagEEEOT_OT0_, symObjAddr: 0x21574, symBinAddr: 0x100037F6C, symSize: 0x88 }
  - { offsetInCU: 0x2888E, offset: 0x32F30, size: 0x8, addend: 0x0, symName: __ZNSt3__117__compressed_pairImNS_9allocatorIPNS_16__hash_node_baseIPNS_11__hash_nodeINS_17__hash_value_typeINS_12basic_stringIcNS_11char_traitsIcEENS1_IcEEEEP5TableEEPvEEEEEEEC2B7v160006IiNS_18__default_init_tagEEEOT_OT0_, symObjAddr: 0x215FC, symBinAddr: 0x100037FF4, symSize: 0x140 }
  - { offsetInCU: 0x288E4, offset: 0x32F86, size: 0x8, addend: 0x0, symName: __ZNSt3__122__compressed_pair_elemImLi0ELb0EEC2B7v160006IivEEOT_, symObjAddr: 0x2173C, symBinAddr: 0x100038134, symSize: 0x16C }
  - { offsetInCU: 0x28925, offset: 0x32FC7, size: 0x8, addend: 0x0, symName: __ZNSt3__122__compressed_pair_elemINS_9allocatorIPNS_16__hash_node_baseIPNS_11__hash_nodeINS_17__hash_value_typeINS_12basic_stringIcNS_11char_traitsIcEENS1_IcEEEEP5TableEEPvEEEEEELi1ELb1EEC2B7v160006ENS_18__default_init_tagE, symObjAddr: 0x218A8, symBinAddr: 0x1000382A0, symSize: 0x84 }
  - { offsetInCU: 0x28958, offset: 0x32FFA, size: 0x8, addend: 0x0, symName: __ZNSt3__19allocatorIPNS_16__hash_node_baseIPNS_11__hash_nodeINS_17__hash_value_typeINS_12basic_stringIcNS_11char_traitsIcEENS0_IcEEEEP5TableEEPvEEEEEC2B7v160006Ev, symObjAddr: 0x2192C, symBinAddr: 0x100038324, symSize: 0x84 }
  - { offsetInCU: 0x28980, offset: 0x33022, size: 0x8, addend: 0x0, symName: __ZNSt3__116__non_trivial_ifILb1ENS_9allocatorIPNS_16__hash_node_baseIPNS_11__hash_nodeINS_17__hash_value_typeINS_12basic_stringIcNS_11char_traitsIcEENS1_IcEEEEP5TableEEPvEEEEEEEC2B7v160006Ev, symObjAddr: 0x219B0, symBinAddr: 0x1000383A8, symSize: 0x54 }
  - { offsetInCU: 0x289A8, offset: 0x3304A, size: 0x8, addend: 0x0, symName: __ZNSt3__117__compressed_pairINS_16__hash_node_baseIPNS_11__hash_nodeINS_17__hash_value_typeINS_12basic_stringIcNS_11char_traitsIcEENS_9allocatorIcEEEEP5TableEEPvEEEENS7_ISE_EEEC2B7v160006ILb1EvEEv, symObjAddr: 0x21A04, symBinAddr: 0x1000383FC, symSize: 0xEC }
  - { offsetInCU: 0x289DC, offset: 0x3307E, size: 0x8, addend: 0x0, symName: __ZNSt3__122__compressed_pair_elemINS_16__hash_node_baseIPNS_11__hash_nodeINS_17__hash_value_typeINS_12basic_stringIcNS_11char_traitsIcEENS_9allocatorIcEEEEP5TableEEPvEEEELi0ELb0EEC2B7v160006ENS_16__value_init_tagE, symObjAddr: 0x21AF0, symBinAddr: 0x1000384E8, symSize: 0x78 }
  - { offsetInCU: 0x28A0F, offset: 0x330B1, size: 0x8, addend: 0x0, symName: __ZNSt3__122__compressed_pair_elemINS_9allocatorINS_11__hash_nodeINS_17__hash_value_typeINS_12basic_stringIcNS_11char_traitsIcEENS1_IcEEEEP5TableEEPvEEEELi1ELb1EEC2B7v160006ENS_16__value_init_tagE, symObjAddr: 0x21B68, symBinAddr: 0x100038560, symSize: 0x84 }
  - { offsetInCU: 0x28A42, offset: 0x330E4, size: 0x8, addend: 0x0, symName: __ZNSt3__116__hash_node_baseIPNS_11__hash_nodeINS_17__hash_value_typeINS_12basic_stringIcNS_11char_traitsIcEENS_9allocatorIcEEEEP5TableEEPvEEEC1B7v160006Ev, symObjAddr: 0x21BEC, symBinAddr: 0x1000385E4, symSize: 0x78 }
  - { offsetInCU: 0x28A6A, offset: 0x3310C, size: 0x8, addend: 0x0, symName: __ZNSt3__116__hash_node_baseIPNS_11__hash_nodeINS_17__hash_value_typeINS_12basic_stringIcNS_11char_traitsIcEENS_9allocatorIcEEEEP5TableEEPvEEEC2B7v160006Ev, symObjAddr: 0x21C64, symBinAddr: 0x10003865C, symSize: 0xB8 }
  - { offsetInCU: 0x28A92, offset: 0x33134, size: 0x8, addend: 0x0, symName: __ZNSt3__19allocatorINS_11__hash_nodeINS_17__hash_value_typeINS_12basic_stringIcNS_11char_traitsIcEENS0_IcEEEEP5TableEEPvEEEC2B7v160006Ev, symObjAddr: 0x21D1C, symBinAddr: 0x100038714, symSize: 0x84 }
  - { offsetInCU: 0x28ABA, offset: 0x3315C, size: 0x8, addend: 0x0, symName: __ZNSt3__116__non_trivial_ifILb1ENS_9allocatorINS_11__hash_nodeINS_17__hash_value_typeINS_12basic_stringIcNS_11char_traitsIcEENS1_IcEEEEP5TableEEPvEEEEEC2B7v160006Ev, symObjAddr: 0x21DA0, symBinAddr: 0x100038798, symSize: 0x54 }
  - { offsetInCU: 0x28AE2, offset: 0x33184, size: 0x8, addend: 0x0, symName: __ZNSt3__117__compressed_pairImNS_22__unordered_map_hasherINS_12basic_stringIcNS_11char_traitsIcEENS_9allocatorIcEEEENS_17__hash_value_typeIS7_P5TableEENS_4hashIS7_EENS_8equal_toIS7_EELb1EEEEC2B7v160006IiNS_18__default_init_tagEEEOT_OT0_, symObjAddr: 0x21DF4, symBinAddr: 0x1000387EC, symSize: 0x140 }
  - { offsetInCU: 0x28B38, offset: 0x331DA, size: 0x8, addend: 0x0, symName: __ZNSt3__122__compressed_pair_elemINS_22__unordered_map_hasherINS_12basic_stringIcNS_11char_traitsIcEENS_9allocatorIcEEEENS_17__hash_value_typeIS7_P5TableEENS_4hashIS7_EENS_8equal_toIS7_EELb1EEELi1ELb1EEC2B7v160006ENS_18__default_init_tagE, symObjAddr: 0x21F34, symBinAddr: 0x10003892C, symSize: 0x84 }
  - { offsetInCU: 0x28B6B, offset: 0x3320D, size: 0x8, addend: 0x0, symName: __ZNSt3__122__unordered_map_hasherINS_12basic_stringIcNS_11char_traitsIcEENS_9allocatorIcEEEENS_17__hash_value_typeIS6_P5TableEENS_4hashIS6_EENS_8equal_toIS6_EELb1EEC2B7v160006Ev, symObjAddr: 0x21FB8, symBinAddr: 0x1000389B0, symSize: 0x54 }
  - { offsetInCU: 0x28B93, offset: 0x33235, size: 0x8, addend: 0x0, symName: __ZNSt3__117__compressed_pairIfNS_21__unordered_map_equalINS_12basic_stringIcNS_11char_traitsIcEENS_9allocatorIcEEEENS_17__hash_value_typeIS7_P5TableEENS_8equal_toIS7_EENS_4hashIS7_EELb1EEEEC2B7v160006IfNS_18__default_init_tagEEEOT_OT0_, symObjAddr: 0x2200C, symBinAddr: 0x100038A04, symSize: 0x140 }
  - { offsetInCU: 0x28BE9, offset: 0x3328B, size: 0x8, addend: 0x0, symName: __ZNSt3__122__compressed_pair_elemIfLi0ELb0EEC2B7v160006IfvEEOT_, symObjAddr: 0x2214C, symBinAddr: 0x100038B44, symSize: 0x194 }
  - { offsetInCU: 0x28C2A, offset: 0x332CC, size: 0x8, addend: 0x0, symName: __ZNSt3__122__compressed_pair_elemINS_21__unordered_map_equalINS_12basic_stringIcNS_11char_traitsIcEENS_9allocatorIcEEEENS_17__hash_value_typeIS7_P5TableEENS_8equal_toIS7_EENS_4hashIS7_EELb1EEELi1ELb1EEC2B7v160006ENS_18__default_init_tagE, symObjAddr: 0x222E0, symBinAddr: 0x100038CD8, symSize: 0x84 }
  - { offsetInCU: 0x28C5D, offset: 0x332FF, size: 0x8, addend: 0x0, symName: __ZNSt3__121__unordered_map_equalINS_12basic_stringIcNS_11char_traitsIcEENS_9allocatorIcEEEENS_17__hash_value_typeIS6_P5TableEENS_8equal_toIS6_EENS_4hashIS6_EELb1EEC2B7v160006Ev, symObjAddr: 0x22364, symBinAddr: 0x100038D5C, symSize: 0x54 }
  - { offsetInCU: 0x28C85, offset: 0x33327, size: 0x8, addend: 0x0, symName: __ZN8DatabaseD2Ev, symObjAddr: 0x223B8, symBinAddr: 0x100038DB0, symSize: 0x578 }
  - { offsetInCU: 0x28D02, offset: 0x333A4, size: 0x8, addend: 0x0, symName: __ZNSt3__113unordered_mapINS_12basic_stringIcNS_11char_traitsIcEENS_9allocatorIcEEEEP5TableNS_4hashIS6_EENS_8equal_toIS6_EENS4_INS_4pairIKS6_S8_EEEEE5beginB7v160006Ev, symObjAddr: 0x22930, symBinAddr: 0x100039328, symSize: 0x340 }
  - { offsetInCU: 0x28D28, offset: 0x333CA, size: 0x8, addend: 0x0, symName: __ZNKSt3__119__hash_map_iteratorINS_15__hash_iteratorIPNS_11__hash_nodeINS_17__hash_value_typeINS_12basic_stringIcNS_11char_traitsIcEENS_9allocatorIcEEEEP5TableEEPvEEEEEdeB7v160006Ev, symObjAddr: 0x22C70, symBinAddr: 0x100039668, symSize: 0x144 }
  - { offsetInCU: 0x28D4D, offset: 0x333EF, size: 0x8, addend: 0x0, symName: __ZNSt3__119__hash_map_iteratorINS_15__hash_iteratorIPNS_11__hash_nodeINS_17__hash_value_typeINS_12basic_stringIcNS_11char_traitsIcEENS_9allocatorIcEEEEP5TableEEPvEEEEEppB7v160006Ev, symObjAddr: 0x22DB4, symBinAddr: 0x1000397AC, symSize: 0xF8 }
  - { offsetInCU: 0x28D72, offset: 0x33414, size: 0x8, addend: 0x0, symName: __ZNSt3__113unordered_mapINS_12basic_stringIcNS_11char_traitsIcEENS_9allocatorIcEEEEP5TableNS_4hashIS6_EENS_8equal_toIS6_EENS4_INS_4pairIKS6_S8_EEEEE5clearB7v160006Ev, symObjAddr: 0x22EAC, symBinAddr: 0x1000398A4, symSize: 0xB0 }
  - { offsetInCU: 0x28D97, offset: 0x33439, size: 0x8, addend: 0x0, symName: __ZNSt3__113unordered_mapINS_12basic_stringIcNS_11char_traitsIcEENS_9allocatorIcEEEEP5TableNS_4hashIS6_EENS_8equal_toIS6_EENS4_INS_4pairIKS6_S8_EEEEED1B7v160006Ev, symObjAddr: 0x22F5C, symBinAddr: 0x100039954, symSize: 0x78 }
  - { offsetInCU: 0x28DBF, offset: 0x33461, size: 0x8, addend: 0x0, symName: __ZNSt3__112__hash_tableINS_17__hash_value_typeINS_12basic_stringIcNS_11char_traitsIcEENS_9allocatorIcEEEEP5TableEENS_22__unordered_map_hasherIS7_SA_NS_4hashIS7_EENS_8equal_toIS7_EELb1EEENS_21__unordered_map_equalIS7_SA_SF_SD_Lb1EEENS5_ISA_EEE5beginEv, symObjAddr: 0x22FD4, symBinAddr: 0x1000399CC, symSize: 0x358 }
  - { offsetInCU: 0x28DE7, offset: 0x33489, size: 0x8, addend: 0x0, symName: __ZNSt3__119__hash_map_iteratorINS_15__hash_iteratorIPNS_11__hash_nodeINS_17__hash_value_typeINS_12basic_stringIcNS_11char_traitsIcEENS_9allocatorIcEEEEP5TableEEPvEEEEEC1B7v160006ESG_, symObjAddr: 0x2332C, symBinAddr: 0x100039D24, symSize: 0x28C }
  - { offsetInCU: 0x28E23, offset: 0x334C5, size: 0x8, addend: 0x0, symName: __ZNSt3__117__compressed_pairINS_16__hash_node_baseIPNS_11__hash_nodeINS_17__hash_value_typeINS_12basic_stringIcNS_11char_traitsIcEENS_9allocatorIcEEEEP5TableEEPvEEEENS7_ISE_EEE5firstB7v160006Ev, symObjAddr: 0x235B8, symBinAddr: 0x100039FB0, symSize: 0x124 }
  - { offsetInCU: 0x28E48, offset: 0x334EA, size: 0x8, addend: 0x0, symName: __ZNSt3__115__hash_iteratorIPNS_11__hash_nodeINS_17__hash_value_typeINS_12basic_stringIcNS_11char_traitsIcEENS_9allocatorIcEEEEP5TableEEPvEEEC1B7v160006EPNS_16__hash_node_baseISE_EEPKv, symObjAddr: 0x236DC, symBinAddr: 0x10003A0D4, symSize: 0x88 }
  - { offsetInCU: 0x28E8E, offset: 0x33530, size: 0x8, addend: 0x0, symName: __ZNSt3__122__compressed_pair_elemINS_16__hash_node_baseIPNS_11__hash_nodeINS_17__hash_value_typeINS_12basic_stringIcNS_11char_traitsIcEENS_9allocatorIcEEEEP5TableEEPvEEEELi0ELb0EE5__getB7v160006Ev, symObjAddr: 0x23764, symBinAddr: 0x10003A15C, symSize: 0xAC }
  - { offsetInCU: 0x28EB3, offset: 0x33555, size: 0x8, addend: 0x0, symName: __ZNSt3__115__hash_iteratorIPNS_11__hash_nodeINS_17__hash_value_typeINS_12basic_stringIcNS_11char_traitsIcEENS_9allocatorIcEEEEP5TableEEPvEEEC2B7v160006EPNS_16__hash_node_baseISE_EEPKv, symObjAddr: 0x23810, symBinAddr: 0x10003A208, symSize: 0xCC }
  - { offsetInCU: 0x28EF9, offset: 0x3359B, size: 0x8, addend: 0x0, symName: __ZNSt3__119__hash_map_iteratorINS_15__hash_iteratorIPNS_11__hash_nodeINS_17__hash_value_typeINS_12basic_stringIcNS_11char_traitsIcEENS_9allocatorIcEEEEP5TableEEPvEEEEEC2B7v160006ESG_, symObjAddr: 0x238DC, symBinAddr: 0x10003A2D4, symSize: 0x25C }
  - { offsetInCU: 0x28F35, offset: 0x335D7, size: 0x8, addend: 0x0, symName: __ZNKSt3__115__hash_iteratorIPNS_11__hash_nodeINS_17__hash_value_typeINS_12basic_stringIcNS_11char_traitsIcEENS_9allocatorIcEEEEP5TableEEPvEEEptB7v160006Ev, symObjAddr: 0x23B38, symBinAddr: 0x10003A530, symSize: 0x190 }
  - { offsetInCU: 0x28F5A, offset: 0x335FC, size: 0x8, addend: 0x0, symName: __ZNSt3__117__hash_value_typeINS_12basic_stringIcNS_11char_traitsIcEENS_9allocatorIcEEEEP5TableE11__get_valueB7v160006Ev, symObjAddr: 0x23CC8, symBinAddr: 0x10003A6C0, symSize: 0xB4 }
  - { offsetInCU: 0x28F7F, offset: 0x33621, size: 0x8, addend: 0x0, symName: __ZNSt3__114pointer_traitsIPNS_17__hash_value_typeINS_12basic_stringIcNS_11char_traitsIcEENS_9allocatorIcEEEEP5TableEEE10pointer_toB7v160006ERSA_, symObjAddr: 0x23D7C, symBinAddr: 0x10003A774, symSize: 0x14 }
  - { offsetInCU: 0x28FA2, offset: 0x33644, size: 0x8, addend: 0x0, symName: __ZNSt3__116__hash_node_baseIPNS_11__hash_nodeINS_17__hash_value_typeINS_12basic_stringIcNS_11char_traitsIcEENS_9allocatorIcEEEEP5TableEEPvEEE8__upcastB7v160006Ev, symObjAddr: 0x23D90, symBinAddr: 0x10003A788, symSize: 0xF8 }
  - { offsetInCU: 0x28FC7, offset: 0x33669, size: 0x8, addend: 0x0, symName: __ZNSt3__114pointer_traitsIPNS_16__hash_node_baseIPNS_11__hash_nodeINS_17__hash_value_typeINS_12basic_stringIcNS_11char_traitsIcEENS_9allocatorIcEEEEP5TableEEPvEEEEE10pointer_toB7v160006ERSG_, symObjAddr: 0x23E88, symBinAddr: 0x10003A880, symSize: 0x14 }
  - { offsetInCU: 0x28FEA, offset: 0x3368C, size: 0x8, addend: 0x0, symName: __ZNSt3__115__hash_iteratorIPNS_11__hash_nodeINS_17__hash_value_typeINS_12basic_stringIcNS_11char_traitsIcEENS_9allocatorIcEEEEP5TableEEPvEEEppB7v160006Ev, symObjAddr: 0x23ED4, symBinAddr: 0x10003A8CC, symSize: 0x1F0 }
  - { offsetInCU: 0x2900F, offset: 0x336B1, size: 0x8, addend: 0x0, symName: __ZNSt3__112__hash_tableINS_17__hash_value_typeINS_12basic_stringIcNS_11char_traitsIcEENS_9allocatorIcEEEEP5TableEENS_22__unordered_map_hasherIS7_SA_NS_4hashIS7_EENS_8equal_toIS7_EELb1EEENS_21__unordered_map_equalIS7_SA_SF_SD_Lb1EEENS5_ISA_EEE5clearEv, symObjAddr: 0x240C4, symBinAddr: 0x10003AABC, symSize: 0x4F0 }
  - { offsetInCU: 0x29060, offset: 0x33702, size: 0x8, addend: 0x0, symName: __ZNSt3__112__hash_tableINS_17__hash_value_typeINS_12basic_stringIcNS_11char_traitsIcEENS_9allocatorIcEEEEP5TableEENS_22__unordered_map_hasherIS7_SA_NS_4hashIS7_EENS_8equal_toIS7_EELb1EEENS_21__unordered_map_equalIS7_SA_SF_SD_Lb1EEENS5_ISA_EEE4sizeB7v160006Ev, symObjAddr: 0x245B4, symBinAddr: 0x10003AFAC, symSize: 0x100 }
  - { offsetInCU: 0x29085, offset: 0x33727, size: 0x8, addend: 0x0, symName: __ZNSt3__112__hash_tableINS_17__hash_value_typeINS_12basic_stringIcNS_11char_traitsIcEENS_9allocatorIcEEEEP5TableEENS_22__unordered_map_hasherIS7_SA_NS_4hashIS7_EENS_8equal_toIS7_EELb1EEENS_21__unordered_map_equalIS7_SA_SF_SD_Lb1EEENS5_ISA_EEE17__deallocate_nodeEPNS_16__hash_node_baseIPNS_11__hash_nodeISA_PvEEEE, symObjAddr: 0x246B4, symBinAddr: 0x10003B0AC, symSize: 0x31C }
  - { offsetInCU: 0x290EE, offset: 0x33790, size: 0x8, addend: 0x0, symName: __ZNKSt3__112__hash_tableINS_17__hash_value_typeINS_12basic_stringIcNS_11char_traitsIcEENS_9allocatorIcEEEEP5TableEENS_22__unordered_map_hasherIS7_SA_NS_4hashIS7_EENS_8equal_toIS7_EELb1EEENS_21__unordered_map_equalIS7_SA_SF_SD_Lb1EEENS5_ISA_EEE12bucket_countB7v160006Ev, symObjAddr: 0x249D0, symBinAddr: 0x10003B3C8, symSize: 0xFC }
  - { offsetInCU: 0x29113, offset: 0x337B5, size: 0x8, addend: 0x0, symName: __ZNKSt3__110unique_ptrIA_PNS_16__hash_node_baseIPNS_11__hash_nodeINS_17__hash_value_typeINS_12basic_stringIcNS_11char_traitsIcEENS_9allocatorIcEEEEP5TableEEPvEEEENS_25__bucket_list_deallocatorINS7_ISH_EEEEEixB7v160006Em, symObjAddr: 0x24ACC, symBinAddr: 0x10003B4C4, symSize: 0x25C }
  - { offsetInCU: 0x29147, offset: 0x337E9, size: 0x8, addend: 0x0, symName: __ZNSt3__117__compressed_pairImNS_22__unordered_map_hasherINS_12basic_stringIcNS_11char_traitsIcEENS_9allocatorIcEEEENS_17__hash_value_typeIS7_P5TableEENS_4hashIS7_EENS_8equal_toIS7_EELb1EEEE5firstB7v160006Ev, symObjAddr: 0x24D28, symBinAddr: 0x10003B720, symSize: 0x124 }
  - { offsetInCU: 0x2916C, offset: 0x3380E, size: 0x8, addend: 0x0, symName: __ZNSt3__122__compressed_pair_elemImLi0ELb0EE5__getB7v160006Ev, symObjAddr: 0x24E4C, symBinAddr: 0x10003B844, symSize: 0xAC }
  - { offsetInCU: 0x29191, offset: 0x33833, size: 0x8, addend: 0x0, symName: __ZNSt3__112__hash_tableINS_17__hash_value_typeINS_12basic_stringIcNS_11char_traitsIcEENS_9allocatorIcEEEEP5TableEENS_22__unordered_map_hasherIS7_SA_NS_4hashIS7_EENS_8equal_toIS7_EELb1EEENS_21__unordered_map_equalIS7_SA_SF_SD_Lb1EEENS5_ISA_EEE12__node_allocB7v160006Ev, symObjAddr: 0x24EF8, symBinAddr: 0x10003B8F0, symSize: 0xE4 }
  - { offsetInCU: 0x291B6, offset: 0x33858, size: 0x8, addend: 0x0, symName: __ZNSt3__116allocator_traitsINS_9allocatorINS_11__hash_nodeINS_17__hash_value_typeINS_12basic_stringIcNS_11char_traitsIcEENS1_IcEEEEP5TableEEPvEEEEE7destroyB7v160006INS_4pairIKS8_SA_EEvvEEvRSE_PT_, symObjAddr: 0x24FDC, symBinAddr: 0x10003B9D4, symSize: 0x70 }
  - { offsetInCU: 0x291F3, offset: 0x33895, size: 0x8, addend: 0x0, symName: __ZNSt3__122__hash_key_value_typesINS_17__hash_value_typeINS_12basic_stringIcNS_11char_traitsIcEENS_9allocatorIcEEEEP5TableEEE9__get_ptrB7v160006ERSA_, symObjAddr: 0x2504C, symBinAddr: 0x10003BA44, symSize: 0x50 }
  - { offsetInCU: 0x29216, offset: 0x338B8, size: 0x8, addend: 0x0, symName: __ZNSt3__116allocator_traitsINS_9allocatorINS_11__hash_nodeINS_17__hash_value_typeINS_12basic_stringIcNS_11char_traitsIcEENS1_IcEEEEP5TableEEPvEEEEE10deallocateB7v160006ERSE_PSD_m, symObjAddr: 0x2509C, symBinAddr: 0x10003BA94, symSize: 0x34 }
  - { offsetInCU: 0x29258, offset: 0x338FA, size: 0x8, addend: 0x0, symName: __ZNSt3__117__compressed_pairINS_16__hash_node_baseIPNS_11__hash_nodeINS_17__hash_value_typeINS_12basic_stringIcNS_11char_traitsIcEENS_9allocatorIcEEEEP5TableEEPvEEEENS7_ISE_EEE6secondB7v160006Ev, symObjAddr: 0x250D0, symBinAddr: 0x10003BAC8, symSize: 0x108 }
  - { offsetInCU: 0x2927D, offset: 0x3391F, size: 0x8, addend: 0x0, symName: __ZNSt3__122__compressed_pair_elemINS_9allocatorINS_11__hash_nodeINS_17__hash_value_typeINS_12basic_stringIcNS_11char_traitsIcEENS1_IcEEEEP5TableEEPvEEEELi1ELb1EE5__getB7v160006Ev, symObjAddr: 0x251D8, symBinAddr: 0x10003BBD0, symSize: 0x74 }
  - { offsetInCU: 0x292A2, offset: 0x33944, size: 0x8, addend: 0x0, symName: __ZNSt3__14pairIKNS_12basic_stringIcNS_11char_traitsIcEENS_9allocatorIcEEEEP5TableED1Ev, symObjAddr: 0x2524C, symBinAddr: 0x10003BC44, symSize: 0x78 }
  - { offsetInCU: 0x292CD, offset: 0x3396F, size: 0x8, addend: 0x0, symName: __ZNSt3__14pairIKNS_12basic_stringIcNS_11char_traitsIcEENS_9allocatorIcEEEEP5TableED2Ev, symObjAddr: 0x252C4, symBinAddr: 0x10003BCBC, symSize: 0x78 }
  - { offsetInCU: 0x292F8, offset: 0x3399A, size: 0x8, addend: 0x0, symName: __ZNSt3__19allocatorINS_11__hash_nodeINS_17__hash_value_typeINS_12basic_stringIcNS_11char_traitsIcEENS0_IcEEEEP5TableEEPvEEE10deallocateB7v160006EPSC_m, symObjAddr: 0x2533C, symBinAddr: 0x10003BD34, symSize: 0x7C }
  - { offsetInCU: 0x29339, offset: 0x339DB, size: 0x8, addend: 0x0, symName: __ZNKSt3__110unique_ptrIA_PNS_16__hash_node_baseIPNS_11__hash_nodeINS_17__hash_value_typeINS_12basic_stringIcNS_11char_traitsIcEENS_9allocatorIcEEEEP5TableEEPvEEEENS_25__bucket_list_deallocatorINS7_ISH_EEEEE11get_deleterB7v160006Ev, symObjAddr: 0x254E0, symBinAddr: 0x10003BED8, symSize: 0xF8 }
  - { offsetInCU: 0x2935E, offset: 0x33A00, size: 0x8, addend: 0x0, symName: __ZNKSt3__125__bucket_list_deallocatorINS_9allocatorIPNS_16__hash_node_baseIPNS_11__hash_nodeINS_17__hash_value_typeINS_12basic_stringIcNS_11char_traitsIcEENS1_IcEEEEP5TableEEPvEEEEEEE4sizeB7v160006Ev, symObjAddr: 0x255D8, symBinAddr: 0x10003BFD0, symSize: 0x13C }
  - { offsetInCU: 0x29383, offset: 0x33A25, size: 0x8, addend: 0x0, symName: __ZNKSt3__117__compressed_pairIPPNS_16__hash_node_baseIPNS_11__hash_nodeINS_17__hash_value_typeINS_12basic_stringIcNS_11char_traitsIcEENS_9allocatorIcEEEEP5TableEEPvEEEENS_25__bucket_list_deallocatorINS7_ISH_EEEEE6secondB7v160006Ev, symObjAddr: 0x25714, symBinAddr: 0x10003C10C, symSize: 0x12C }
  - { offsetInCU: 0x293A8, offset: 0x33A4A, size: 0x8, addend: 0x0, symName: __ZNKSt3__122__compressed_pair_elemINS_25__bucket_list_deallocatorINS_9allocatorIPNS_16__hash_node_baseIPNS_11__hash_nodeINS_17__hash_value_typeINS_12basic_stringIcNS_11char_traitsIcEENS2_IcEEEEP5TableEEPvEEEEEEEELi1ELb0EE5__getB7v160006Ev, symObjAddr: 0x25840, symBinAddr: 0x10003C238, symSize: 0xAC }
  - { offsetInCU: 0x293CD, offset: 0x33A6F, size: 0x8, addend: 0x0, symName: __ZNKSt3__117__compressed_pairImNS_9allocatorIPNS_16__hash_node_baseIPNS_11__hash_nodeINS_17__hash_value_typeINS_12basic_stringIcNS_11char_traitsIcEENS1_IcEEEEP5TableEEPvEEEEEEE5firstB7v160006Ev, symObjAddr: 0x258EC, symBinAddr: 0x10003C2E4, symSize: 0x124 }
  - { offsetInCU: 0x293F2, offset: 0x33A94, size: 0x8, addend: 0x0, symName: __ZNKSt3__122__compressed_pair_elemImLi0ELb0EE5__getB7v160006Ev, symObjAddr: 0x25A10, symBinAddr: 0x10003C408, symSize: 0xAC }
  - { offsetInCU: 0x29417, offset: 0x33AB9, size: 0x8, addend: 0x0, symName: __ZNKSt3__117__compressed_pairIPPNS_16__hash_node_baseIPNS_11__hash_nodeINS_17__hash_value_typeINS_12basic_stringIcNS_11char_traitsIcEENS_9allocatorIcEEEEP5TableEEPvEEEENS_25__bucket_list_deallocatorINS7_ISH_EEEEE5firstB7v160006Ev, symObjAddr: 0x25ABC, symBinAddr: 0x10003C4B4, symSize: 0x124 }
  - { offsetInCU: 0x2943C, offset: 0x33ADE, size: 0x8, addend: 0x0, symName: __ZNKSt3__122__compressed_pair_elemIPPNS_16__hash_node_baseIPNS_11__hash_nodeINS_17__hash_value_typeINS_12basic_stringIcNS_11char_traitsIcEENS_9allocatorIcEEEEP5TableEEPvEEEELi0ELb0EE5__getB7v160006Ev, symObjAddr: 0x25BE0, symBinAddr: 0x10003C5D8, symSize: 0xAC }
  - { offsetInCU: 0x29461, offset: 0x33B03, size: 0x8, addend: 0x0, symName: __ZNSt3__113unordered_mapINS_12basic_stringIcNS_11char_traitsIcEENS_9allocatorIcEEEEP5TableNS_4hashIS6_EENS_8equal_toIS6_EENS4_INS_4pairIKS6_S8_EEEEED2B7v160006Ev, symObjAddr: 0x25C8C, symBinAddr: 0x10003C684, symSize: 0x78 }
  - { offsetInCU: 0x29489, offset: 0x33B2B, size: 0x8, addend: 0x0, symName: __ZNSt3__112__hash_tableINS_17__hash_value_typeINS_12basic_stringIcNS_11char_traitsIcEENS_9allocatorIcEEEEP5TableEENS_22__unordered_map_hasherIS7_SA_NS_4hashIS7_EENS_8equal_toIS7_EELb1EEENS_21__unordered_map_equalIS7_SA_SF_SD_Lb1EEENS5_ISA_EEED1Ev, symObjAddr: 0x25D04, symBinAddr: 0x10003C6FC, symSize: 0x78 }
  - { offsetInCU: 0x294B4, offset: 0x33B56, size: 0x8, addend: 0x0, symName: __ZNSt3__112__hash_tableINS_17__hash_value_typeINS_12basic_stringIcNS_11char_traitsIcEENS_9allocatorIcEEEEP5TableEENS_22__unordered_map_hasherIS7_SA_NS_4hashIS7_EENS_8equal_toIS7_EELb1EEENS_21__unordered_map_equalIS7_SA_SF_SD_Lb1EEENS5_ISA_EEED2Ev, symObjAddr: 0x25D7C, symBinAddr: 0x10003C774, symSize: 0x1C0 }
  - { offsetInCU: 0x294DF, offset: 0x33B81, size: 0x8, addend: 0x0, symName: __ZNSt3__110unique_ptrIA_PNS_16__hash_node_baseIPNS_11__hash_nodeINS_17__hash_value_typeINS_12basic_stringIcNS_11char_traitsIcEENS_9allocatorIcEEEEP5TableEEPvEEEENS_25__bucket_list_deallocatorINS7_ISH_EEEEED1B7v160006Ev, symObjAddr: 0x25F4C, symBinAddr: 0x10003C944, symSize: 0x78 }
  - { offsetInCU: 0x29507, offset: 0x33BA9, size: 0x8, addend: 0x0, symName: __ZNSt3__110unique_ptrIA_PNS_16__hash_node_baseIPNS_11__hash_nodeINS_17__hash_value_typeINS_12basic_stringIcNS_11char_traitsIcEENS_9allocatorIcEEEEP5TableEEPvEEEENS_25__bucket_list_deallocatorINS7_ISH_EEEEED2B7v160006Ev, symObjAddr: 0x25FC4, symBinAddr: 0x10003C9BC, symSize: 0x7C }
  - { offsetInCU: 0x2952F, offset: 0x33BD1, size: 0x8, addend: 0x0, symName: __ZNSt3__110unique_ptrIA_PNS_16__hash_node_baseIPNS_11__hash_nodeINS_17__hash_value_typeINS_12basic_stringIcNS_11char_traitsIcEENS_9allocatorIcEEEEP5TableEEPvEEEENS_25__bucket_list_deallocatorINS7_ISH_EEEEE5resetB7v160006EDn, symObjAddr: 0x26040, symBinAddr: 0x10003CA38, symSize: 0x2C0 }
  - { offsetInCU: 0x2956F, offset: 0x33C11, size: 0x8, addend: 0x0, symName: __ZNSt3__117__compressed_pairIPPNS_16__hash_node_baseIPNS_11__hash_nodeINS_17__hash_value_typeINS_12basic_stringIcNS_11char_traitsIcEENS_9allocatorIcEEEEP5TableEEPvEEEENS_25__bucket_list_deallocatorINS7_ISH_EEEEE5firstB7v160006Ev, symObjAddr: 0x26300, symBinAddr: 0x10003CCF8, symSize: 0x124 }
  - { offsetInCU: 0x29594, offset: 0x33C36, size: 0x8, addend: 0x0, symName: __ZNSt3__117__compressed_pairIPPNS_16__hash_node_baseIPNS_11__hash_nodeINS_17__hash_value_typeINS_12basic_stringIcNS_11char_traitsIcEENS_9allocatorIcEEEEP5TableEEPvEEEENS_25__bucket_list_deallocatorINS7_ISH_EEEEE6secondB7v160006Ev, symObjAddr: 0x26424, symBinAddr: 0x10003CE1C, symSize: 0x12C }
  - { offsetInCU: 0x295B9, offset: 0x33C5B, size: 0x8, addend: 0x0, symName: __ZNSt3__125__bucket_list_deallocatorINS_9allocatorIPNS_16__hash_node_baseIPNS_11__hash_nodeINS_17__hash_value_typeINS_12basic_stringIcNS_11char_traitsIcEENS1_IcEEEEP5TableEEPvEEEEEEEclB7v160006EPSH_, symObjAddr: 0x26550, symBinAddr: 0x10003CF48, symSize: 0x140 }
  - { offsetInCU: 0x295ED, offset: 0x33C8F, size: 0x8, addend: 0x0, symName: __ZNSt3__122__compressed_pair_elemIPPNS_16__hash_node_baseIPNS_11__hash_nodeINS_17__hash_value_typeINS_12basic_stringIcNS_11char_traitsIcEENS_9allocatorIcEEEEP5TableEEPvEEEELi0ELb0EE5__getB7v160006Ev, symObjAddr: 0x26690, symBinAddr: 0x10003D088, symSize: 0xAC }
  - { offsetInCU: 0x29612, offset: 0x33CB4, size: 0x8, addend: 0x0, symName: __ZNSt3__122__compressed_pair_elemINS_25__bucket_list_deallocatorINS_9allocatorIPNS_16__hash_node_baseIPNS_11__hash_nodeINS_17__hash_value_typeINS_12basic_stringIcNS_11char_traitsIcEENS2_IcEEEEP5TableEEPvEEEEEEEELi1ELb0EE5__getB7v160006Ev, symObjAddr: 0x2673C, symBinAddr: 0x10003D134, symSize: 0xAC }
  - { offsetInCU: 0x29637, offset: 0x33CD9, size: 0x8, addend: 0x0, symName: __ZNSt3__116allocator_traitsINS_9allocatorIPNS_16__hash_node_baseIPNS_11__hash_nodeINS_17__hash_value_typeINS_12basic_stringIcNS_11char_traitsIcEENS1_IcEEEEP5TableEEPvEEEEEEE10deallocateB7v160006ERSI_PSH_m, symObjAddr: 0x267E8, symBinAddr: 0x10003D1E0, symSize: 0x34 }
  - { offsetInCU: 0x29679, offset: 0x33D1B, size: 0x8, addend: 0x0, symName: __ZNSt3__125__bucket_list_deallocatorINS_9allocatorIPNS_16__hash_node_baseIPNS_11__hash_nodeINS_17__hash_value_typeINS_12basic_stringIcNS_11char_traitsIcEENS1_IcEEEEP5TableEEPvEEEEEEE7__allocB7v160006Ev, symObjAddr: 0x2681C, symBinAddr: 0x10003D214, symSize: 0xDC }
  - { offsetInCU: 0x2969E, offset: 0x33D40, size: 0x8, addend: 0x0, symName: __ZNSt3__125__bucket_list_deallocatorINS_9allocatorIPNS_16__hash_node_baseIPNS_11__hash_nodeINS_17__hash_value_typeINS_12basic_stringIcNS_11char_traitsIcEENS1_IcEEEEP5TableEEPvEEEEEEE4sizeB7v160006Ev, symObjAddr: 0x268F8, symBinAddr: 0x10003D2F0, symSize: 0xF8 }
  - { offsetInCU: 0x296C3, offset: 0x33D65, size: 0x8, addend: 0x0, symName: __ZNSt3__19allocatorIPNS_16__hash_node_baseIPNS_11__hash_nodeINS_17__hash_value_typeINS_12basic_stringIcNS_11char_traitsIcEENS0_IcEEEEP5TableEEPvEEEEE10deallocateB7v160006EPSG_m, symObjAddr: 0x269F0, symBinAddr: 0x10003D3E8, symSize: 0x78 }
  - { offsetInCU: 0x29704, offset: 0x33DA6, size: 0x8, addend: 0x0, symName: __ZNSt3__117__compressed_pairImNS_9allocatorIPNS_16__hash_node_baseIPNS_11__hash_nodeINS_17__hash_value_typeINS_12basic_stringIcNS_11char_traitsIcEENS1_IcEEEEP5TableEEPvEEEEEEE6secondB7v160006Ev, symObjAddr: 0x26A68, symBinAddr: 0x10003D460, symSize: 0x108 }
  - { offsetInCU: 0x29729, offset: 0x33DCB, size: 0x8, addend: 0x0, symName: __ZNSt3__122__compressed_pair_elemINS_9allocatorIPNS_16__hash_node_baseIPNS_11__hash_nodeINS_17__hash_value_typeINS_12basic_stringIcNS_11char_traitsIcEENS1_IcEEEEP5TableEEPvEEEEEELi1ELb1EE5__getB7v160006Ev, symObjAddr: 0x26B70, symBinAddr: 0x10003D568, symSize: 0x74 }
  - { offsetInCU: 0x2974E, offset: 0x33DF0, size: 0x8, addend: 0x0, symName: __ZNSt3__117__compressed_pairImNS_9allocatorIPNS_16__hash_node_baseIPNS_11__hash_nodeINS_17__hash_value_typeINS_12basic_stringIcNS_11char_traitsIcEENS1_IcEEEEP5TableEEPvEEEEEEE5firstB7v160006Ev, symObjAddr: 0x26BE4, symBinAddr: 0x10003D5DC, symSize: 0x124 }
  - { offsetInCU: 0x29773, offset: 0x33E15, size: 0x8, addend: 0x0, symName: __ZNSt3__123__libcpp_numeric_limitsIlLb1EE3maxB7v160006Ev, symObjAddr: 0x26D08, symBinAddr: 0x10003D700, symSize: 0x8 }
  - { offsetInCU: 0x29787, offset: 0x33E29, size: 0x8, addend: 0x0, symName: __ZN5TableC2ERKNSt3__112basic_stringIcNS0_11char_traitsIcEENS0_9allocatorIcEEEERKNS0_6vectorIS6_NS4_IS6_EEEERKNS9_I10ColumnTypeNS4_ISE_EEEE, symObjAddr: 0x26D10, symBinAddr: 0x10003D708, symSize: 0x1F0 }
  - { offsetInCU: 0x297D9, offset: 0x33E7B, size: 0x8, addend: 0x0, symName: __ZNSt3__16vectorINS_12basic_stringIcNS_11char_traitsIcEENS_9allocatorIcEEEENS4_IS6_EEEC1ERKS8_, symObjAddr: 0x26F00, symBinAddr: 0x10003D8F8, symSize: 0x80 }
  - { offsetInCU: 0x29813, offset: 0x33EB5, size: 0x8, addend: 0x0, symName: __ZNSt3__16vectorI10ColumnTypeNS_9allocatorIS1_EEEC1ERKS4_, symObjAddr: 0x26F80, symBinAddr: 0x10003D978, symSize: 0x80 }
  - { offsetInCU: 0x2984D, offset: 0x33EEF, size: 0x8, addend: 0x0, symName: __ZNSt3__16vectorINS0_I5FieldNS_9allocatorIS1_EEEENS2_IS4_EEEC1B7v160006Ev, symObjAddr: 0x27000, symBinAddr: 0x10003D9F8, symSize: 0x78 }
  - { offsetInCU: 0x29875, offset: 0x33F17, size: 0x8, addend: 0x0, symName: __ZNSt3__113unordered_mapImNS0_I5FieldNS_6vectorImNS_9allocatorImEEEENS_4hashIS1_EENS_8equal_toIS1_EENS3_INS_4pairIKS1_S5_EEEEEENS6_ImEENS8_ImEENS3_INSA_IKmSE_EEEEEC1B7v160006Ev, symObjAddr: 0x27078, symBinAddr: 0x10003DA70, symSize: 0x78 }
  - { offsetInCU: 0x2989D, offset: 0x33F3F, size: 0x8, addend: 0x0, symName: __ZNSt3__16vectorINS_12basic_stringIcNS_11char_traitsIcEENS_9allocatorIcEEEENS4_IS6_EEEC2ERKS8_, symObjAddr: 0x270F0, symBinAddr: 0x10003DAE8, symSize: 0x6B8 }
  - { offsetInCU: 0x2990C, offset: 0x33FAE, size: 0x8, addend: 0x0, symName: __ZNSt3__116allocator_traitsINS_9allocatorINS_12basic_stringIcNS_11char_traitsIcEENS1_IcEEEEEEE37select_on_container_copy_constructionB7v160006IS7_vvEES7_RKS7_, symObjAddr: 0x277A8, symBinAddr: 0x10003E1A0, symSize: 0x10 }
  - { offsetInCU: 0x2993D, offset: 0x33FDF, size: 0x8, addend: 0x0, symName: __ZNKSt3__16vectorINS_12basic_stringIcNS_11char_traitsIcEENS_9allocatorIcEEEENS4_IS6_EEE7__allocB7v160006Ev, symObjAddr: 0x277B8, symBinAddr: 0x10003E1B0, symSize: 0xE4 }
  - { offsetInCU: 0x2996C, offset: 0x3400E, size: 0x8, addend: 0x0, symName: __ZNSt3__117__compressed_pairIPNS_12basic_stringIcNS_11char_traitsIcEENS_9allocatorIcEEEENS4_IS6_EEEC1B7v160006IDnS8_EEOT_OT0_, symObjAddr: 0x2789C, symBinAddr: 0x10003E294, symSize: 0x88 }
  - { offsetInCU: 0x299C2, offset: 0x34064, size: 0x8, addend: 0x0, symName: __ZNSt3__16vectorINS_12basic_stringIcNS_11char_traitsIcEENS_9allocatorIcEEEENS4_IS6_EEE16__destroy_vectorC1ERS8_, symObjAddr: 0x27BE0, symBinAddr: 0x10003E5D8, symSize: 0x80 }
  - { offsetInCU: 0x299F9, offset: 0x3409B, size: 0x8, addend: 0x0, symName: __ZNSt3__16vectorINS_12basic_stringIcNS_11char_traitsIcEENS_9allocatorIcEEEENS4_IS6_EEE11__vallocateB7v160006Em, symObjAddr: 0x27C70, symBinAddr: 0x10003E668, symSize: 0x5F0 }
  - { offsetInCU: 0x29A42, offset: 0x340E4, size: 0x8, addend: 0x0, symName: __ZNSt3__16vectorINS_12basic_stringIcNS_11char_traitsIcEENS_9allocatorIcEEEENS4_IS6_EEE18__construct_at_endIPS6_Li0EEEvT_SB_m, symObjAddr: 0x28260, symBinAddr: 0x10003EC58, symSize: 0x494 }
  - { offsetInCU: 0x29ABD, offset: 0x3415F, size: 0x8, addend: 0x0, symName: __ZNSt3__128__exception_guard_exceptionsINS_6vectorINS_12basic_stringIcNS_11char_traitsIcEENS_9allocatorIcEEEENS5_IS7_EEE16__destroy_vectorEE10__completeB7v160006Ev, symObjAddr: 0x286F4, symBinAddr: 0x10003F0EC, symSize: 0xD8 }
  - { offsetInCU: 0x29AE2, offset: 0x34184, size: 0x8, addend: 0x0, symName: __ZNSt3__128__exception_guard_exceptionsINS_6vectorINS_12basic_stringIcNS_11char_traitsIcEENS_9allocatorIcEEEENS5_IS7_EEE16__destroy_vectorEED1B7v160006Ev, symObjAddr: 0x287CC, symBinAddr: 0x10003F1C4, symSize: 0x78 }
  - { offsetInCU: 0x29B0A, offset: 0x341AC, size: 0x8, addend: 0x0, symName: __ZNKSt3__117__compressed_pairIPNS_12basic_stringIcNS_11char_traitsIcEENS_9allocatorIcEEEENS4_IS6_EEE6secondB7v160006Ev, symObjAddr: 0x28844, symBinAddr: 0x10003F23C, symSize: 0x108 }
  - { offsetInCU: 0x29B2F, offset: 0x341D1, size: 0x8, addend: 0x0, symName: __ZNKSt3__122__compressed_pair_elemINS_9allocatorINS_12basic_stringIcNS_11char_traitsIcEENS1_IcEEEEEELi1ELb1EE5__getB7v160006Ev, symObjAddr: 0x2894C, symBinAddr: 0x10003F344, symSize: 0x74 }
  - { offsetInCU: 0x29B54, offset: 0x341F6, size: 0x8, addend: 0x0, symName: __ZNSt3__117__compressed_pairIPNS_12basic_stringIcNS_11char_traitsIcEENS_9allocatorIcEEEENS4_IS6_EEEC2B7v160006IDnS8_EEOT_OT0_, symObjAddr: 0x289C0, symBinAddr: 0x10003F3B8, symSize: 0x170 }
  - { offsetInCU: 0x29BAA, offset: 0x3424C, size: 0x8, addend: 0x0, symName: __ZNSt3__122__compressed_pair_elemIPNS_12basic_stringIcNS_11char_traitsIcEENS_9allocatorIcEEEELi0ELb0EEC2B7v160006IDnvEEOT_, symObjAddr: 0x28B30, symBinAddr: 0x10003F528, symSize: 0xBC }
  - { offsetInCU: 0x29BEB, offset: 0x3428D, size: 0x8, addend: 0x0, symName: __ZNSt3__122__compressed_pair_elemINS_9allocatorINS_12basic_stringIcNS_11char_traitsIcEENS1_IcEEEEEELi1ELb1EEC2B7v160006IS7_vEEOT_, symObjAddr: 0x28BEC, symBinAddr: 0x10003F5E4, symSize: 0x58 }
  - { offsetInCU: 0x29C2C, offset: 0x342CE, size: 0x8, addend: 0x0, symName: __ZNSt3__128__exception_guard_exceptionsINS_6vectorINS_12basic_stringIcNS_11char_traitsIcEENS_9allocatorIcEEEENS5_IS7_EEE16__destroy_vectorEEC1B7v160006ESA_, symObjAddr: 0x28C44, symBinAddr: 0x10003F63C, symSize: 0x28C }
  - { offsetInCU: 0x29C67, offset: 0x34309, size: 0x8, addend: 0x0, symName: __ZNSt3__128__exception_guard_exceptionsINS_6vectorINS_12basic_stringIcNS_11char_traitsIcEENS_9allocatorIcEEEENS5_IS7_EEE16__destroy_vectorEEC2B7v160006ESA_, symObjAddr: 0x28ED0, symBinAddr: 0x10003F8C8, symSize: 0x2BC }
  - { offsetInCU: 0x29CA2, offset: 0x34344, size: 0x8, addend: 0x0, symName: __ZNSt3__16vectorINS_12basic_stringIcNS_11char_traitsIcEENS_9allocatorIcEEEENS4_IS6_EEE16__destroy_vectorC2ERS8_, symObjAddr: 0x2918C, symBinAddr: 0x10003FB84, symSize: 0x108 }
  - { offsetInCU: 0x29CD9, offset: 0x3437B, size: 0x8, addend: 0x0, symName: __ZNKSt3__16vectorINS_12basic_stringIcNS_11char_traitsIcEENS_9allocatorIcEEEENS4_IS6_EEE8max_sizeEv, symObjAddr: 0x29294, symBinAddr: 0x10003FC8C, symSize: 0x3B8 }
  - { offsetInCU: 0x29D01, offset: 0x343A3, size: 0x8, addend: 0x0, symName: __ZNKSt3__16vectorINS_12basic_stringIcNS_11char_traitsIcEENS_9allocatorIcEEEENS4_IS6_EEE20__throw_length_errorB7v160006Ev, symObjAddr: 0x2964C, symBinAddr: 0x100040044, symSize: 0x80 }
  - { offsetInCU: 0x29D26, offset: 0x343C8, size: 0x8, addend: 0x0, symName: __ZNSt3__16vectorINS_12basic_stringIcNS_11char_traitsIcEENS_9allocatorIcEEEENS4_IS6_EEE7__allocB7v160006Ev, symObjAddr: 0x29958, symBinAddr: 0x100040350, symSize: 0xE4 }
  - { offsetInCU: 0x29D4B, offset: 0x343ED, size: 0x8, addend: 0x0, symName: __ZNSt3__16vectorINS_12basic_stringIcNS_11char_traitsIcEENS_9allocatorIcEEEENS4_IS6_EEE9__end_capB7v160006Ev, symObjAddr: 0x29A3C, symBinAddr: 0x100040434, symSize: 0x100 }
  - { offsetInCU: 0x29D70, offset: 0x34412, size: 0x8, addend: 0x0, symName: __ZNKSt3__16vectorINS_12basic_stringIcNS_11char_traitsIcEENS_9allocatorIcEEEENS4_IS6_EEE14__annotate_newB7v160006Em, symObjAddr: 0x29B3C, symBinAddr: 0x100040534, symSize: 0x378 }
  - { offsetInCU: 0x29DA4, offset: 0x34446, size: 0x8, addend: 0x0, symName: __ZNSt3__116allocator_traitsINS_9allocatorINS_12basic_stringIcNS_11char_traitsIcEENS1_IcEEEEEEE8max_sizeB7v160006IS7_vEEmRKS7_, symObjAddr: 0x29FB8, symBinAddr: 0x1000408AC, symSize: 0x24 }
  - { offsetInCU: 0x29DD3, offset: 0x34475, size: 0x8, addend: 0x0, symName: __ZNKSt3__19allocatorINS_12basic_stringIcNS_11char_traitsIcEENS0_IcEEEEE8max_sizeB7v160006Ev, symObjAddr: 0x2A388, symBinAddr: 0x1000408D0, symSize: 0x50 }
  - { offsetInCU: 0x29DF8, offset: 0x3449A, size: 0x8, addend: 0x0, symName: __ZNSt12length_errorC1B7v160006EPKc, symObjAddr: 0x2A48C, symBinAddr: 0x1000409D4, symSize: 0x80 }
  - { offsetInCU: 0x29E2E, offset: 0x344D0, size: 0x8, addend: 0x0, symName: __ZNSt12length_errorC2B7v160006EPKc, symObjAddr: 0x2A50C, symBinAddr: 0x100040A54, symSize: 0x128 }
  - { offsetInCU: 0x29E64, offset: 0x34506, size: 0x8, addend: 0x0, symName: __ZNSt3__19allocatorINS_12basic_stringIcNS_11char_traitsIcEENS0_IcEEEEE8allocateB7v160006Em, symObjAddr: 0x2A634, symBinAddr: 0x100040B7C, symSize: 0xD0 }
  - { offsetInCU: 0x29E97, offset: 0x34539, size: 0x8, addend: 0x0, symName: __ZNSt3__117__compressed_pairIPNS_12basic_stringIcNS_11char_traitsIcEENS_9allocatorIcEEEENS4_IS6_EEE6secondB7v160006Ev, symObjAddr: 0x2A870, symBinAddr: 0x100040DB8, symSize: 0x108 }
  - { offsetInCU: 0x29EBC, offset: 0x3455E, size: 0x8, addend: 0x0, symName: __ZNSt3__122__compressed_pair_elemINS_9allocatorINS_12basic_stringIcNS_11char_traitsIcEENS1_IcEEEEEELi1ELb1EE5__getB7v160006Ev, symObjAddr: 0x2A978, symBinAddr: 0x100040EC0, symSize: 0x74 }
  - { offsetInCU: 0x29EE1, offset: 0x34583, size: 0x8, addend: 0x0, symName: __ZNSt3__117__compressed_pairIPNS_12basic_stringIcNS_11char_traitsIcEENS_9allocatorIcEEEENS4_IS6_EEE5firstB7v160006Ev, symObjAddr: 0x2A9EC, symBinAddr: 0x100040F34, symSize: 0x124 }
  - { offsetInCU: 0x29F06, offset: 0x345A8, size: 0x8, addend: 0x0, symName: __ZNSt3__122__compressed_pair_elemIPNS_12basic_stringIcNS_11char_traitsIcEENS_9allocatorIcEEEELi0ELb0EE5__getB7v160006Ev, symObjAddr: 0x2AB10, symBinAddr: 0x100041058, symSize: 0xAC }
  - { offsetInCU: 0x29F2B, offset: 0x345CD, size: 0x8, addend: 0x0, symName: __ZNKSt3__16vectorINS_12basic_stringIcNS_11char_traitsIcEENS_9allocatorIcEEEENS4_IS6_EEE31__annotate_contiguous_containerEPKvSA_SA_SA_, symObjAddr: 0x2ABBC, symBinAddr: 0x100041104, symSize: 0x9C }
  - { offsetInCU: 0x29F8C, offset: 0x3462E, size: 0x8, addend: 0x0, symName: __ZNKSt3__16vectorINS_12basic_stringIcNS_11char_traitsIcEENS_9allocatorIcEEEENS4_IS6_EEE4dataB7v160006Ev, symObjAddr: 0x2AC58, symBinAddr: 0x1000411A0, symSize: 0xB0 }
  - { offsetInCU: 0x29FB1, offset: 0x34653, size: 0x8, addend: 0x0, symName: __ZNKSt3__16vectorINS_12basic_stringIcNS_11char_traitsIcEENS_9allocatorIcEEEENS4_IS6_EEE8capacityB7v160006Ev, symObjAddr: 0x2AD08, symBinAddr: 0x100041250, symSize: 0x144 }
  - { offsetInCU: 0x29FD6, offset: 0x34678, size: 0x8, addend: 0x0, symName: __ZNKSt3__16vectorINS_12basic_stringIcNS_11char_traitsIcEENS_9allocatorIcEEEENS4_IS6_EEE9__end_capB7v160006Ev, symObjAddr: 0x2AE60, symBinAddr: 0x1000413A8, symSize: 0x100 }
  - { offsetInCU: 0x29FFB, offset: 0x3469D, size: 0x8, addend: 0x0, symName: __ZNKSt3__117__compressed_pairIPNS_12basic_stringIcNS_11char_traitsIcEENS_9allocatorIcEEEENS4_IS6_EEE5firstB7v160006Ev, symObjAddr: 0x2AF60, symBinAddr: 0x1000414A8, symSize: 0x124 }
  - { offsetInCU: 0x2A020, offset: 0x346C2, size: 0x8, addend: 0x0, symName: __ZNKSt3__122__compressed_pair_elemIPNS_12basic_stringIcNS_11char_traitsIcEENS_9allocatorIcEEEELi0ELb0EE5__getB7v160006Ev, symObjAddr: 0x2B084, symBinAddr: 0x1000415CC, symSize: 0xAC }
  - { offsetInCU: 0x2A05E, offset: 0x34700, size: 0x8, addend: 0x0, symName: __ZNSt3__16vectorINS_12basic_stringIcNS_11char_traitsIcEENS_9allocatorIcEEEENS4_IS6_EEE21_ConstructTransactionC1B7v160006ERS8_m, symObjAddr: 0x2B130, symBinAddr: 0x100041678, symSize: 0x88 }
  - { offsetInCU: 0x2A0A4, offset: 0x34746, size: 0x8, addend: 0x0, symName: __ZNSt3__16vectorINS_12basic_stringIcNS_11char_traitsIcEENS_9allocatorIcEEEENS4_IS6_EEE21_ConstructTransactionD1B7v160006Ev, symObjAddr: 0x2B8A4, symBinAddr: 0x100041DEC, symSize: 0x78 }
  - { offsetInCU: 0x2A0CC, offset: 0x3476E, size: 0x8, addend: 0x0, symName: __ZNSt3__16vectorINS_12basic_stringIcNS_11char_traitsIcEENS_9allocatorIcEEEENS4_IS6_EEE21_ConstructTransactionC2B7v160006ERS8_m, symObjAddr: 0x2B91C, symBinAddr: 0x100041E64, symSize: 0x3E0 }
  - { offsetInCU: 0x2A112, offset: 0x347B4, size: 0x8, addend: 0x0, symName: __ZNKSt3__16vectorINS_12basic_stringIcNS_11char_traitsIcEENS_9allocatorIcEEEENS4_IS6_EEE19__annotate_increaseB7v160006Em, symObjAddr: 0x2BCFC, symBinAddr: 0x100042244, symSize: 0x46C }
  - { offsetInCU: 0x2A146, offset: 0x347E8, size: 0x8, addend: 0x0, symName: __ZNSt3__129_AllocatorDestroyRangeReverseINS_9allocatorINS_12basic_stringIcNS_11char_traitsIcEENS1_IcEEEEEEPS6_EC1B7v160006ERS7_RS8_SB_, symObjAddr: 0x2C3A4, symBinAddr: 0x1000428EC, symSize: 0x90 }
  - { offsetInCU: 0x2A19B, offset: 0x3483D, size: 0x8, addend: 0x0, symName: __ZNSt3__116allocator_traitsINS_9allocatorINS_12basic_stringIcNS_11char_traitsIcEENS1_IcEEEEEEE9constructB7v160006IS6_JRS6_EvEEvRS7_PT_DpOT0_, symObjAddr: 0x2C434, symBinAddr: 0x10004297C, symSize: 0x8C }
  - { offsetInCU: 0x2A1F4, offset: 0x34896, size: 0x8, addend: 0x0, symName: __ZNSt3__128__exception_guard_exceptionsINS_29_AllocatorDestroyRangeReverseINS_9allocatorINS_12basic_stringIcNS_11char_traitsIcEENS2_IcEEEEEEPS7_EEE10__completeB7v160006Ev, symObjAddr: 0x2C4C0, symBinAddr: 0x100042A08, symSize: 0xD8 }
  - { offsetInCU: 0x2A219, offset: 0x348BB, size: 0x8, addend: 0x0, symName: __ZNSt3__128__exception_guard_exceptionsINS_29_AllocatorDestroyRangeReverseINS_9allocatorINS_12basic_stringIcNS_11char_traitsIcEENS2_IcEEEEEEPS7_EEED1B7v160006Ev, symObjAddr: 0x2C598, symBinAddr: 0x100042AE0, symSize: 0x78 }
  - { offsetInCU: 0x2A241, offset: 0x348E3, size: 0x8, addend: 0x0, symName: __ZNSt3__128__exception_guard_exceptionsINS_29_AllocatorDestroyRangeReverseINS_9allocatorINS_12basic_stringIcNS_11char_traitsIcEENS2_IcEEEEEEPS7_EEEC1B7v160006ESA_, symObjAddr: 0x2C610, symBinAddr: 0x100042B58, symSize: 0x84 }
  - { offsetInCU: 0x2A278, offset: 0x3491A, size: 0x8, addend: 0x0, symName: __ZNSt3__128__exception_guard_exceptionsINS_29_AllocatorDestroyRangeReverseINS_9allocatorINS_12basic_stringIcNS_11char_traitsIcEENS2_IcEEEEEEPS7_EEEC2B7v160006ESA_, symObjAddr: 0x2C694, symBinAddr: 0x100042BDC, symSize: 0xF8 }
  - { offsetInCU: 0x2A2AF, offset: 0x34951, size: 0x8, addend: 0x0, symName: __ZNSt3__129_AllocatorDestroyRangeReverseINS_9allocatorINS_12basic_stringIcNS_11char_traitsIcEENS1_IcEEEEEEPS6_EC2B7v160006ERS7_RS8_SB_, symObjAddr: 0x2C78C, symBinAddr: 0x100042CD4, symSize: 0x20C }
  - { offsetInCU: 0x2A304, offset: 0x349A6, size: 0x8, addend: 0x0, symName: __ZNSt3__19allocatorINS_12basic_stringIcNS_11char_traitsIcEENS0_IcEEEEE9constructB7v160006IS5_JRS5_EEEvPT_DpOT0_, symObjAddr: 0x2C998, symBinAddr: 0x100042EE0, symSize: 0xEC }
  - { offsetInCU: 0x2A35A, offset: 0x349FC, size: 0x8, addend: 0x0, symName: __ZNSt3__128__exception_guard_exceptionsINS_29_AllocatorDestroyRangeReverseINS_9allocatorINS_12basic_stringIcNS_11char_traitsIcEENS2_IcEEEEEEPS7_EEED2B7v160006Ev, symObjAddr: 0x2CA84, symBinAddr: 0x100042FCC, symSize: 0x17C }
  - { offsetInCU: 0x2A382, offset: 0x34A24, size: 0x8, addend: 0x0, symName: __ZNKSt3__129_AllocatorDestroyRangeReverseINS_9allocatorINS_12basic_stringIcNS_11char_traitsIcEENS1_IcEEEEEEPS6_EclB7v160006Ev, symObjAddr: 0x2CC00, symBinAddr: 0x100043148, symSize: 0x40C }
  - { offsetInCU: 0x2A3A8, offset: 0x34A4A, size: 0x8, addend: 0x0, symName: __ZNSt3__116reverse_iteratorIPNS_12basic_stringIcNS_11char_traitsIcEENS_9allocatorIcEEEEEC1B7v160006ES7_, symObjAddr: 0x2D2E8, symBinAddr: 0x100043830, symSize: 0x80 }
  - { offsetInCU: 0x2A3DE, offset: 0x34A80, size: 0x8, addend: 0x0, symName: __ZNSt3__116allocator_traitsINS_9allocatorINS_12basic_stringIcNS_11char_traitsIcEENS1_IcEEEEEEE7destroyB7v160006IS6_vEEvRS7_PT_, symObjAddr: 0x2D404, symBinAddr: 0x10004394C, symSize: 0x2C }
  - { offsetInCU: 0x2A41C, offset: 0x34ABE, size: 0x8, addend: 0x0, symName: __ZNSt3__116reverse_iteratorIPNS_12basic_stringIcNS_11char_traitsIcEENS_9allocatorIcEEEEEppB7v160006Ev, symObjAddr: 0x2D49C, symBinAddr: 0x1000439E4, symSize: 0x1B0 }
  - { offsetInCU: 0x2A441, offset: 0x34AE3, size: 0x8, addend: 0x0, symName: __ZNKSt3__116reverse_iteratorIPNS_12basic_stringIcNS_11char_traitsIcEENS_9allocatorIcEEEEE4baseB7v160006Ev, symObjAddr: 0x2D64C, symBinAddr: 0x100043B94, symSize: 0xB0 }
  - { offsetInCU: 0x2A466, offset: 0x34B08, size: 0x8, addend: 0x0, symName: __ZNSt3__19allocatorINS_12basic_stringIcNS_11char_traitsIcEENS0_IcEEEEE7destroyB7v160006EPS5_, symObjAddr: 0x2D6FC, symBinAddr: 0x100043C44, symSize: 0x9C }
  - { offsetInCU: 0x2A49E, offset: 0x34B40, size: 0x8, addend: 0x0, symName: __ZNSt3__119__to_address_helperINS_16reverse_iteratorIPNS_12basic_stringIcNS_11char_traitsIcEENS_9allocatorIcEEEEEEvE6__callB7v160006ERKS9_, symObjAddr: 0x2D798, symBinAddr: 0x100043CE0, symSize: 0x70 }
  - { offsetInCU: 0x2A4C1, offset: 0x34B63, size: 0x8, addend: 0x0, symName: __ZNKSt3__116reverse_iteratorIPNS_12basic_stringIcNS_11char_traitsIcEENS_9allocatorIcEEEEEptB7v160006Ev, symObjAddr: 0x2D808, symBinAddr: 0x100043D50, symSize: 0x6C }
  - { offsetInCU: 0x2A4E6, offset: 0x34B88, size: 0x8, addend: 0x0, symName: __ZNKSt3__116reverse_iteratorIPNS_12basic_stringIcNS_11char_traitsIcEENS_9allocatorIcEEEEEdeB7v160006Ev, symObjAddr: 0x2D874, symBinAddr: 0x100043DBC, symSize: 0x184 }
  - { offsetInCU: 0x2A519, offset: 0x34BBB, size: 0x8, addend: 0x0, symName: __ZNSt3__116reverse_iteratorIPNS_12basic_stringIcNS_11char_traitsIcEENS_9allocatorIcEEEEEC2B7v160006ES7_, symObjAddr: 0x2D9F8, symBinAddr: 0x100043F40, symSize: 0x10C }
  - { offsetInCU: 0x2A54F, offset: 0x34BF1, size: 0x8, addend: 0x0, symName: __ZNSt3__16vectorINS_12basic_stringIcNS_11char_traitsIcEENS_9allocatorIcEEEENS4_IS6_EEE21_ConstructTransactionD2B7v160006Ev, symObjAddr: 0x2DB04, symBinAddr: 0x10004404C, symSize: 0x390 }
  - { offsetInCU: 0x2A577, offset: 0x34C19, size: 0x8, addend: 0x0, symName: __ZNKSt3__16vectorINS_12basic_stringIcNS_11char_traitsIcEENS_9allocatorIcEEEENS4_IS6_EEE17__annotate_shrinkB7v160006Em, symObjAddr: 0x2DE94, symBinAddr: 0x1000443DC, symSize: 0x378 }
  - { offsetInCU: 0x2A5AB, offset: 0x34C4D, size: 0x8, addend: 0x0, symName: __ZNSt3__128__exception_guard_exceptionsINS_6vectorINS_12basic_stringIcNS_11char_traitsIcEENS_9allocatorIcEEEENS5_IS7_EEE16__destroy_vectorEED2B7v160006Ev, symObjAddr: 0x2E20C, symBinAddr: 0x100044754, symSize: 0x17C }
  - { offsetInCU: 0x2A5D3, offset: 0x34C75, size: 0x8, addend: 0x0, symName: __ZNSt3__16vectorINS_12basic_stringIcNS_11char_traitsIcEENS_9allocatorIcEEEENS4_IS6_EEE16__destroy_vectorclB7v160006Ev, symObjAddr: 0x2E388, symBinAddr: 0x1000448D0, symSize: 0x478 }
  - { offsetInCU: 0x2A5F8, offset: 0x34C9A, size: 0x8, addend: 0x0, symName: __ZNKSt3__16vectorINS_12basic_stringIcNS_11char_traitsIcEENS_9allocatorIcEEEENS4_IS6_EEE17__annotate_deleteB7v160006Ev, symObjAddr: 0x2E800, symBinAddr: 0x100044D48, symSize: 0x388 }
  - { offsetInCU: 0x2A61D, offset: 0x34CBF, size: 0x8, addend: 0x0, symName: __ZNSt3__16vectorINS_12basic_stringIcNS_11char_traitsIcEENS_9allocatorIcEEEENS4_IS6_EEE7__clearB7v160006Ev, symObjAddr: 0x2EB98, symBinAddr: 0x1000450E0, symSize: 0xB0 }
  - { offsetInCU: 0x2A642, offset: 0x34CE4, size: 0x8, addend: 0x0, symName: __ZNSt3__116allocator_traitsINS_9allocatorINS_12basic_stringIcNS_11char_traitsIcEENS1_IcEEEEEEE10deallocateB7v160006ERS7_PS6_m, symObjAddr: 0x2EC48, symBinAddr: 0x100045190, symSize: 0x34 }
  - { offsetInCU: 0x2A684, offset: 0x34D26, size: 0x8, addend: 0x0, symName: __ZNSt3__16vectorINS_12basic_stringIcNS_11char_traitsIcEENS_9allocatorIcEEEENS4_IS6_EEE22__base_destruct_at_endB7v160006EPS6_, symObjAddr: 0x2EC7C, symBinAddr: 0x1000451C4, symSize: 0x1FC }
  - { offsetInCU: 0x2A6C7, offset: 0x34D69, size: 0x8, addend: 0x0, symName: __ZNSt3__19allocatorINS_12basic_stringIcNS_11char_traitsIcEENS0_IcEEEEE10deallocateB7v160006EPS5_m, symObjAddr: 0x2EE78, symBinAddr: 0x1000453C0, symSize: 0x7C }
  - { offsetInCU: 0x2A708, offset: 0x34DAA, size: 0x8, addend: 0x0, symName: __ZNSt3__16vectorI10ColumnTypeNS_9allocatorIS1_EEEC2ERKS4_, symObjAddr: 0x2EEF4, symBinAddr: 0x10004543C, symSize: 0x6B8 }
  - { offsetInCU: 0x2A777, offset: 0x34E19, size: 0x8, addend: 0x0, symName: __ZNSt3__116allocator_traitsINS_9allocatorI10ColumnTypeEEE37select_on_container_copy_constructionB7v160006IS3_vvEES3_RKS3_, symObjAddr: 0x2F5AC, symBinAddr: 0x100045AF4, symSize: 0x10 }
  - { offsetInCU: 0x2A7A8, offset: 0x34E4A, size: 0x8, addend: 0x0, symName: __ZNKSt3__16vectorI10ColumnTypeNS_9allocatorIS1_EEE7__allocB7v160006Ev, symObjAddr: 0x2F5BC, symBinAddr: 0x100045B04, symSize: 0xE4 }
  - { offsetInCU: 0x2A7D2, offset: 0x34E74, size: 0x8, addend: 0x0, symName: __ZNSt3__117__compressed_pairIP10ColumnTypeNS_9allocatorIS1_EEEC1B7v160006IDnS4_EEOT_OT0_, symObjAddr: 0x2F6A0, symBinAddr: 0x100045BE8, symSize: 0x88 }
  - { offsetInCU: 0x2A828, offset: 0x34ECA, size: 0x8, addend: 0x0, symName: __ZNSt3__16vectorI10ColumnTypeNS_9allocatorIS1_EEE16__destroy_vectorC1ERS4_, symObjAddr: 0x2F9E4, symBinAddr: 0x100045F2C, symSize: 0x80 }
  - { offsetInCU: 0x2A85F, offset: 0x34F01, size: 0x8, addend: 0x0, symName: __ZNSt3__16vectorI10ColumnTypeNS_9allocatorIS1_EEE11__vallocateB7v160006Em, symObjAddr: 0x2FA74, symBinAddr: 0x100045FBC, symSize: 0x5E8 }
  - { offsetInCU: 0x2A8A8, offset: 0x34F4A, size: 0x8, addend: 0x0, symName: __ZNSt3__16vectorI10ColumnTypeNS_9allocatorIS1_EEE18__construct_at_endIPS1_Li0EEEvT_S7_m, symObjAddr: 0x3005C, symBinAddr: 0x1000465A4, symSize: 0x494 }
  - { offsetInCU: 0x2A923, offset: 0x34FC5, size: 0x8, addend: 0x0, symName: __ZNSt3__128__exception_guard_exceptionsINS_6vectorI10ColumnTypeNS_9allocatorIS2_EEE16__destroy_vectorEE10__completeB7v160006Ev, symObjAddr: 0x304F0, symBinAddr: 0x100046A38, symSize: 0xD8 }
  - { offsetInCU: 0x2A948, offset: 0x34FEA, size: 0x8, addend: 0x0, symName: __ZNSt3__128__exception_guard_exceptionsINS_6vectorI10ColumnTypeNS_9allocatorIS2_EEE16__destroy_vectorEED1B7v160006Ev, symObjAddr: 0x305C8, symBinAddr: 0x100046B10, symSize: 0x78 }
  - { offsetInCU: 0x2A970, offset: 0x35012, size: 0x8, addend: 0x0, symName: __ZNKSt3__117__compressed_pairIP10ColumnTypeNS_9allocatorIS1_EEE6secondB7v160006Ev, symObjAddr: 0x30640, symBinAddr: 0x100046B88, symSize: 0x108 }
  - { offsetInCU: 0x2A995, offset: 0x35037, size: 0x8, addend: 0x0, symName: __ZNKSt3__122__compressed_pair_elemINS_9allocatorI10ColumnTypeEELi1ELb1EE5__getB7v160006Ev, symObjAddr: 0x30748, symBinAddr: 0x100046C90, symSize: 0x74 }
  - { offsetInCU: 0x2A9BA, offset: 0x3505C, size: 0x8, addend: 0x0, symName: __ZNSt3__117__compressed_pairIP10ColumnTypeNS_9allocatorIS1_EEEC2B7v160006IDnS4_EEOT_OT0_, symObjAddr: 0x307BC, symBinAddr: 0x100046D04, symSize: 0x170 }
  - { offsetInCU: 0x2AA10, offset: 0x350B2, size: 0x8, addend: 0x0, symName: __ZNSt3__122__compressed_pair_elemIP10ColumnTypeLi0ELb0EEC2B7v160006IDnvEEOT_, symObjAddr: 0x3092C, symBinAddr: 0x100046E74, symSize: 0xBC }
  - { offsetInCU: 0x2AA51, offset: 0x350F3, size: 0x8, addend: 0x0, symName: __ZNSt3__122__compressed_pair_elemINS_9allocatorI10ColumnTypeEELi1ELb1EEC2B7v160006IS3_vEEOT_, symObjAddr: 0x309E8, symBinAddr: 0x100046F30, symSize: 0x58 }
  - { offsetInCU: 0x2AA92, offset: 0x35134, size: 0x8, addend: 0x0, symName: __ZNSt3__128__exception_guard_exceptionsINS_6vectorI10ColumnTypeNS_9allocatorIS2_EEE16__destroy_vectorEEC1B7v160006ES6_, symObjAddr: 0x30A40, symBinAddr: 0x100046F88, symSize: 0x28C }
  - { offsetInCU: 0x2AACD, offset: 0x3516F, size: 0x8, addend: 0x0, symName: __ZNSt3__128__exception_guard_exceptionsINS_6vectorI10ColumnTypeNS_9allocatorIS2_EEE16__destroy_vectorEEC2B7v160006ES6_, symObjAddr: 0x30CCC, symBinAddr: 0x100047214, symSize: 0x2BC }
  - { offsetInCU: 0x2AB08, offset: 0x351AA, size: 0x8, addend: 0x0, symName: __ZNSt3__16vectorI10ColumnTypeNS_9allocatorIS1_EEE16__destroy_vectorC2ERS4_, symObjAddr: 0x30F88, symBinAddr: 0x1000474D0, symSize: 0x108 }
  - { offsetInCU: 0x2AB3F, offset: 0x351E1, size: 0x8, addend: 0x0, symName: __ZNKSt3__16vectorI10ColumnTypeNS_9allocatorIS1_EEE8max_sizeEv, symObjAddr: 0x31090, symBinAddr: 0x1000475D8, symSize: 0x3B8 }
  - { offsetInCU: 0x2AB67, offset: 0x35209, size: 0x8, addend: 0x0, symName: __ZNKSt3__16vectorI10ColumnTypeNS_9allocatorIS1_EEE20__throw_length_errorB7v160006Ev, symObjAddr: 0x31448, symBinAddr: 0x100047990, symSize: 0x80 }
  - { offsetInCU: 0x2AB8C, offset: 0x3522E, size: 0x8, addend: 0x0, symName: __ZNSt3__16vectorI10ColumnTypeNS_9allocatorIS1_EEE7__allocB7v160006Ev, symObjAddr: 0x31754, symBinAddr: 0x100047C9C, symSize: 0xE4 }
  - { offsetInCU: 0x2ABB1, offset: 0x35253, size: 0x8, addend: 0x0, symName: __ZNSt3__16vectorI10ColumnTypeNS_9allocatorIS1_EEE9__end_capB7v160006Ev, symObjAddr: 0x31838, symBinAddr: 0x100047D80, symSize: 0x100 }
  - { offsetInCU: 0x2ABD6, offset: 0x35278, size: 0x8, addend: 0x0, symName: __ZNKSt3__16vectorI10ColumnTypeNS_9allocatorIS1_EEE14__annotate_newB7v160006Em, symObjAddr: 0x31938, symBinAddr: 0x100047E80, symSize: 0x360 }
  - { offsetInCU: 0x2AC0A, offset: 0x352AC, size: 0x8, addend: 0x0, symName: __ZNSt3__116allocator_traitsINS_9allocatorI10ColumnTypeEEE8max_sizeB7v160006IS3_vEEmRKS3_, symObjAddr: 0x31C98, symBinAddr: 0x1000481E0, symSize: 0x24 }
  - { offsetInCU: 0x2AC39, offset: 0x352DB, size: 0x8, addend: 0x0, symName: __ZNKSt3__19allocatorI10ColumnTypeE8max_sizeB7v160006Ev, symObjAddr: 0x31CBC, symBinAddr: 0x100048204, symSize: 0x4C }
  - { offsetInCU: 0x2AC5E, offset: 0x35300, size: 0x8, addend: 0x0, symName: __ZNSt3__19allocatorI10ColumnTypeE8allocateB7v160006Em, symObjAddr: 0x31D08, symBinAddr: 0x100048250, symSize: 0xCC }
  - { offsetInCU: 0x2AC91, offset: 0x35333, size: 0x8, addend: 0x0, symName: __ZNSt3__117__compressed_pairIP10ColumnTypeNS_9allocatorIS1_EEE6secondB7v160006Ev, symObjAddr: 0x31DD4, symBinAddr: 0x10004831C, symSize: 0x108 }
  - { offsetInCU: 0x2ACB6, offset: 0x35358, size: 0x8, addend: 0x0, symName: __ZNSt3__122__compressed_pair_elemINS_9allocatorI10ColumnTypeEELi1ELb1EE5__getB7v160006Ev, symObjAddr: 0x31EDC, symBinAddr: 0x100048424, symSize: 0x74 }
  - { offsetInCU: 0x2ACDB, offset: 0x3537D, size: 0x8, addend: 0x0, symName: __ZNSt3__117__compressed_pairIP10ColumnTypeNS_9allocatorIS1_EEE5firstB7v160006Ev, symObjAddr: 0x31F50, symBinAddr: 0x100048498, symSize: 0x124 }
  - { offsetInCU: 0x2AD00, offset: 0x353A2, size: 0x8, addend: 0x0, symName: __ZNSt3__122__compressed_pair_elemIP10ColumnTypeLi0ELb0EE5__getB7v160006Ev, symObjAddr: 0x32074, symBinAddr: 0x1000485BC, symSize: 0xAC }
  - { offsetInCU: 0x2AD25, offset: 0x353C7, size: 0x8, addend: 0x0, symName: __ZNKSt3__16vectorI10ColumnTypeNS_9allocatorIS1_EEE31__annotate_contiguous_containerEPKvS6_S6_S6_, symObjAddr: 0x32120, symBinAddr: 0x100048668, symSize: 0x9C }
  - { offsetInCU: 0x2AD86, offset: 0x35428, size: 0x8, addend: 0x0, symName: __ZNKSt3__16vectorI10ColumnTypeNS_9allocatorIS1_EEE4dataB7v160006Ev, symObjAddr: 0x321BC, symBinAddr: 0x100048704, symSize: 0xB0 }
  - { offsetInCU: 0x2ADAB, offset: 0x3544D, size: 0x8, addend: 0x0, symName: __ZNKSt3__16vectorI10ColumnTypeNS_9allocatorIS1_EEE8capacityB7v160006Ev, symObjAddr: 0x3226C, symBinAddr: 0x1000487B4, symSize: 0x13C }
  - { offsetInCU: 0x2ADD0, offset: 0x35472, size: 0x8, addend: 0x0, symName: __ZNKSt3__16vectorI10ColumnTypeNS_9allocatorIS1_EEE9__end_capB7v160006Ev, symObjAddr: 0x323BC, symBinAddr: 0x100048904, symSize: 0x100 }
  - { offsetInCU: 0x2ADF5, offset: 0x35497, size: 0x8, addend: 0x0, symName: __ZNKSt3__117__compressed_pairIP10ColumnTypeNS_9allocatorIS1_EEE5firstB7v160006Ev, symObjAddr: 0x324BC, symBinAddr: 0x100048A04, symSize: 0x124 }
  - { offsetInCU: 0x2AE1A, offset: 0x354BC, size: 0x8, addend: 0x0, symName: __ZNKSt3__122__compressed_pair_elemIP10ColumnTypeLi0ELb0EE5__getB7v160006Ev, symObjAddr: 0x325E0, symBinAddr: 0x100048B28, symSize: 0xAC }
  - { offsetInCU: 0x2AE58, offset: 0x354FA, size: 0x8, addend: 0x0, symName: __ZNSt3__16vectorI10ColumnTypeNS_9allocatorIS1_EEE21_ConstructTransactionC1B7v160006ERS4_m, symObjAddr: 0x3268C, symBinAddr: 0x100048BD4, symSize: 0x88 }
  - { offsetInCU: 0x2AE9E, offset: 0x35540, size: 0x8, addend: 0x0, symName: __ZNSt3__16vectorI10ColumnTypeNS_9allocatorIS1_EEE21_ConstructTransactionD1B7v160006Ev, symObjAddr: 0x32DE4, symBinAddr: 0x10004932C, symSize: 0x78 }
  - { offsetInCU: 0x2AEC6, offset: 0x35568, size: 0x8, addend: 0x0, symName: __ZNSt3__16vectorI10ColumnTypeNS_9allocatorIS1_EEE21_ConstructTransactionC2B7v160006ERS4_m, symObjAddr: 0x32E5C, symBinAddr: 0x1000493A4, symSize: 0x3D8 }
  - { offsetInCU: 0x2AF0C, offset: 0x355AE, size: 0x8, addend: 0x0, symName: __ZNKSt3__16vectorI10ColumnTypeNS_9allocatorIS1_EEE19__annotate_increaseB7v160006Em, symObjAddr: 0x33234, symBinAddr: 0x10004977C, symSize: 0x44C }
  - { offsetInCU: 0x2AF40, offset: 0x355E2, size: 0x8, addend: 0x0, symName: __ZNSt3__129_AllocatorDestroyRangeReverseINS_9allocatorI10ColumnTypeEEPS2_EC1B7v160006ERS3_RS4_S7_, symObjAddr: 0x338BC, symBinAddr: 0x100049E04, symSize: 0x90 }
  - { offsetInCU: 0x2AF95, offset: 0x35637, size: 0x8, addend: 0x0, symName: __ZNSt3__116allocator_traitsINS_9allocatorI10ColumnTypeEEE9constructB7v160006IS2_JRS2_EvEEvRS3_PT_DpOT0_, symObjAddr: 0x3394C, symBinAddr: 0x100049E94, symSize: 0x70 }
  - { offsetInCU: 0x2AFEE, offset: 0x35690, size: 0x8, addend: 0x0, symName: __ZNSt3__128__exception_guard_exceptionsINS_29_AllocatorDestroyRangeReverseINS_9allocatorI10ColumnTypeEEPS3_EEE10__completeB7v160006Ev, symObjAddr: 0x339BC, symBinAddr: 0x100049F04, symSize: 0xD8 }
  - { offsetInCU: 0x2B013, offset: 0x356B5, size: 0x8, addend: 0x0, symName: __ZNSt3__128__exception_guard_exceptionsINS_29_AllocatorDestroyRangeReverseINS_9allocatorI10ColumnTypeEEPS3_EEED1B7v160006Ev, symObjAddr: 0x33A94, symBinAddr: 0x100049FDC, symSize: 0x78 }
  - { offsetInCU: 0x2B03B, offset: 0x356DD, size: 0x8, addend: 0x0, symName: __ZNSt3__128__exception_guard_exceptionsINS_29_AllocatorDestroyRangeReverseINS_9allocatorI10ColumnTypeEEPS3_EEEC1B7v160006ES6_, symObjAddr: 0x33B0C, symBinAddr: 0x10004A054, symSize: 0x84 }
  - { offsetInCU: 0x2B072, offset: 0x35714, size: 0x8, addend: 0x0, symName: __ZNSt3__128__exception_guard_exceptionsINS_29_AllocatorDestroyRangeReverseINS_9allocatorI10ColumnTypeEEPS3_EEEC2B7v160006ES6_, symObjAddr: 0x33B90, symBinAddr: 0x10004A0D8, symSize: 0xF8 }
  - { offsetInCU: 0x2B0A9, offset: 0x3574B, size: 0x8, addend: 0x0, symName: __ZNSt3__129_AllocatorDestroyRangeReverseINS_9allocatorI10ColumnTypeEEPS2_EC2B7v160006ERS3_RS4_S7_, symObjAddr: 0x33C88, symBinAddr: 0x10004A1D0, symSize: 0x20C }
  - { offsetInCU: 0x2B0FE, offset: 0x357A0, size: 0x8, addend: 0x0, symName: __ZNSt3__19allocatorI10ColumnTypeE9constructB7v160006IS1_JRS1_EEEvPT_DpOT0_, symObjAddr: 0x33E94, symBinAddr: 0x10004A3DC, symSize: 0x178 }
  - { offsetInCU: 0x2B154, offset: 0x357F6, size: 0x8, addend: 0x0, symName: __ZNSt3__128__exception_guard_exceptionsINS_29_AllocatorDestroyRangeReverseINS_9allocatorI10ColumnTypeEEPS3_EEED2B7v160006Ev, symObjAddr: 0x3400C, symBinAddr: 0x10004A554, symSize: 0x17C }
  - { offsetInCU: 0x2B17C, offset: 0x3581E, size: 0x8, addend: 0x0, symName: __ZNKSt3__129_AllocatorDestroyRangeReverseINS_9allocatorI10ColumnTypeEEPS2_EclB7v160006Ev, symObjAddr: 0x34188, symBinAddr: 0x10004A6D0, symSize: 0x40C }
  - { offsetInCU: 0x2B1A2, offset: 0x35844, size: 0x8, addend: 0x0, symName: __ZNSt3__116reverse_iteratorIP10ColumnTypeEC1B7v160006ES2_, symObjAddr: 0x34870, symBinAddr: 0x10004ADB8, symSize: 0x80 }
  - { offsetInCU: 0x2B1D8, offset: 0x3587A, size: 0x8, addend: 0x0, symName: __ZNSt3__116allocator_traitsINS_9allocatorI10ColumnTypeEEE7destroyB7v160006IS2_vEEvRS3_PT_, symObjAddr: 0x3498C, symBinAddr: 0x10004AED4, symSize: 0x2C }
  - { offsetInCU: 0x2B216, offset: 0x358B8, size: 0x8, addend: 0x0, symName: __ZNSt3__116reverse_iteratorIP10ColumnTypeEppB7v160006Ev, symObjAddr: 0x34A24, symBinAddr: 0x10004AF6C, symSize: 0x1B0 }
  - { offsetInCU: 0x2B23B, offset: 0x358DD, size: 0x8, addend: 0x0, symName: __ZNKSt3__116reverse_iteratorIP10ColumnTypeE4baseB7v160006Ev, symObjAddr: 0x34BD4, symBinAddr: 0x10004B11C, symSize: 0xB0 }
  - { offsetInCU: 0x2B260, offset: 0x35902, size: 0x8, addend: 0x0, symName: __ZNSt3__19allocatorI10ColumnTypeE7destroyB7v160006EPS1_, symObjAddr: 0x34C84, symBinAddr: 0x10004B1CC, symSize: 0x4C }
  - { offsetInCU: 0x2B298, offset: 0x3593A, size: 0x8, addend: 0x0, symName: __ZNSt3__119__to_address_helperINS_16reverse_iteratorIP10ColumnTypeEEvE6__callB7v160006ERKS4_, symObjAddr: 0x34CD0, symBinAddr: 0x10004B218, symSize: 0x70 }
  - { offsetInCU: 0x2B2BB, offset: 0x3595D, size: 0x8, addend: 0x0, symName: __ZNKSt3__116reverse_iteratorIP10ColumnTypeEptB7v160006Ev, symObjAddr: 0x34D40, symBinAddr: 0x10004B288, symSize: 0x6C }
  - { offsetInCU: 0x2B2E0, offset: 0x35982, size: 0x8, addend: 0x0, symName: __ZNKSt3__116reverse_iteratorIP10ColumnTypeEdeB7v160006Ev, symObjAddr: 0x34DAC, symBinAddr: 0x10004B2F4, symSize: 0x168 }
  - { offsetInCU: 0x2B313, offset: 0x359B5, size: 0x8, addend: 0x0, symName: __ZNSt3__116reverse_iteratorIP10ColumnTypeEC2B7v160006ES2_, symObjAddr: 0x34F14, symBinAddr: 0x10004B45C, symSize: 0x10C }
  - { offsetInCU: 0x2B349, offset: 0x359EB, size: 0x8, addend: 0x0, symName: __ZNSt3__16vectorI10ColumnTypeNS_9allocatorIS1_EEE21_ConstructTransactionD2B7v160006Ev, symObjAddr: 0x35020, symBinAddr: 0x10004B568, symSize: 0x388 }
  - { offsetInCU: 0x2B371, offset: 0x35A13, size: 0x8, addend: 0x0, symName: __ZNKSt3__16vectorI10ColumnTypeNS_9allocatorIS1_EEE17__annotate_shrinkB7v160006Em, symObjAddr: 0x353A8, symBinAddr: 0x10004B8F0, symSize: 0x360 }
  - { offsetInCU: 0x2B3A5, offset: 0x35A47, size: 0x8, addend: 0x0, symName: __ZNSt3__128__exception_guard_exceptionsINS_6vectorI10ColumnTypeNS_9allocatorIS2_EEE16__destroy_vectorEED2B7v160006Ev, symObjAddr: 0x35708, symBinAddr: 0x10004BC50, symSize: 0x17C }
  - { offsetInCU: 0x2B3CD, offset: 0x35A6F, size: 0x8, addend: 0x0, symName: __ZNSt3__16vectorI10ColumnTypeNS_9allocatorIS1_EEE16__destroy_vectorclB7v160006Ev, symObjAddr: 0x35884, symBinAddr: 0x10004BDCC, symSize: 0x478 }
  - { offsetInCU: 0x2B3F2, offset: 0x35A94, size: 0x8, addend: 0x0, symName: __ZNKSt3__16vectorI10ColumnTypeNS_9allocatorIS1_EEE17__annotate_deleteB7v160006Ev, symObjAddr: 0x35CFC, symBinAddr: 0x10004C244, symSize: 0x370 }
  - { offsetInCU: 0x2B417, offset: 0x35AB9, size: 0x8, addend: 0x0, symName: __ZNSt3__16vectorI10ColumnTypeNS_9allocatorIS1_EEE7__clearB7v160006Ev, symObjAddr: 0x3607C, symBinAddr: 0x10004C5C4, symSize: 0xB0 }
  - { offsetInCU: 0x2B43C, offset: 0x35ADE, size: 0x8, addend: 0x0, symName: __ZNSt3__116allocator_traitsINS_9allocatorI10ColumnTypeEEE10deallocateB7v160006ERS3_PS2_m, symObjAddr: 0x3612C, symBinAddr: 0x10004C674, symSize: 0x34 }
  - { offsetInCU: 0x2B47E, offset: 0x35B20, size: 0x8, addend: 0x0, symName: __ZNSt3__16vectorI10ColumnTypeNS_9allocatorIS1_EEE22__base_destruct_at_endB7v160006EPS1_, symObjAddr: 0x36160, symBinAddr: 0x10004C6A8, symSize: 0x1FC }
  - { offsetInCU: 0x2B4C1, offset: 0x35B63, size: 0x8, addend: 0x0, symName: __ZNSt3__19allocatorI10ColumnTypeE10deallocateB7v160006EPS1_m, symObjAddr: 0x3635C, symBinAddr: 0x10004C8A4, symSize: 0x78 }
  - { offsetInCU: 0x2B502, offset: 0x35BA4, size: 0x8, addend: 0x0, symName: __ZNSt3__16vectorINS0_I5FieldNS_9allocatorIS1_EEEENS2_IS4_EEEC2B7v160006Ev, symObjAddr: 0x363D4, symBinAddr: 0x10004C91C, symSize: 0x34C }
  - { offsetInCU: 0x2B52B, offset: 0x35BCD, size: 0x8, addend: 0x0, symName: __ZNSt3__117__compressed_pairIPNS_6vectorI5FieldNS_9allocatorIS2_EEEENS3_IS5_EEEC1B7v160006IDnNS_18__default_init_tagEEEOT_OT0_, symObjAddr: 0x36720, symBinAddr: 0x10004CC68, symSize: 0x88 }
  - { offsetInCU: 0x2B581, offset: 0x35C23, size: 0x8, addend: 0x0, symName: __ZNSt3__117__compressed_pairIPNS_6vectorI5FieldNS_9allocatorIS2_EEEENS3_IS5_EEEC2B7v160006IDnNS_18__default_init_tagEEEOT_OT0_, symObjAddr: 0x367B8, symBinAddr: 0x10004CD00, symSize: 0x140 }
  - { offsetInCU: 0x2B5D7, offset: 0x35C79, size: 0x8, addend: 0x0, symName: __ZNSt3__122__compressed_pair_elemIPNS_6vectorI5FieldNS_9allocatorIS2_EEEELi0ELb0EEC2B7v160006IDnvEEOT_, symObjAddr: 0x368F8, symBinAddr: 0x10004CE40, symSize: 0xBC }
  - { offsetInCU: 0x2B618, offset: 0x35CBA, size: 0x8, addend: 0x0, symName: __ZNSt3__122__compressed_pair_elemINS_9allocatorINS_6vectorI5FieldNS1_IS3_EEEEEELi1ELb1EEC2B7v160006ENS_18__default_init_tagE, symObjAddr: 0x369B4, symBinAddr: 0x10004CEFC, symSize: 0x84 }
  - { offsetInCU: 0x2B64B, offset: 0x35CED, size: 0x8, addend: 0x0, symName: __ZNSt3__19allocatorINS_6vectorI5FieldNS0_IS2_EEEEEC2B7v160006Ev, symObjAddr: 0x36A38, symBinAddr: 0x10004CF80, symSize: 0x84 }
  - { offsetInCU: 0x2B673, offset: 0x35D15, size: 0x8, addend: 0x0, symName: __ZNSt3__116__non_trivial_ifILb1ENS_9allocatorINS_6vectorI5FieldNS1_IS3_EEEEEEEC2B7v160006Ev, symObjAddr: 0x36ABC, symBinAddr: 0x10004D004, symSize: 0x54 }
  - { offsetInCU: 0x2B69B, offset: 0x35D3D, size: 0x8, addend: 0x0, symName: __ZNSt3__113unordered_mapImNS0_I5FieldNS_6vectorImNS_9allocatorImEEEENS_4hashIS1_EENS_8equal_toIS1_EENS3_INS_4pairIKS1_S5_EEEEEENS6_ImEENS8_ImEENS3_INSA_IKmSE_EEEEEC2B7v160006Ev, symObjAddr: 0x36B10, symBinAddr: 0x10004D058, symSize: 0x94 }
  - { offsetInCU: 0x2B6C3, offset: 0x35D65, size: 0x8, addend: 0x0, symName: __ZNSt3__112__hash_tableINS_17__hash_value_typeImNS_13unordered_mapI5FieldNS_6vectorImNS_9allocatorImEEEENS_4hashIS3_EENS_8equal_toIS3_EENS5_INS_4pairIKS3_S7_EEEEEEEENS_22__unordered_map_hasherImSH_NS8_ImEENSA_ImEELb1EEENS_21__unordered_map_equalImSH_SK_SJ_Lb1EEENS5_ISH_EEEC1Ev, symObjAddr: 0x36BA4, symBinAddr: 0x10004D0EC, symSize: 0x78 }
  - { offsetInCU: 0x2B6EE, offset: 0x35D90, size: 0x8, addend: 0x0, symName: __ZNSt3__112__hash_tableINS_17__hash_value_typeImNS_13unordered_mapI5FieldNS_6vectorImNS_9allocatorImEEEENS_4hashIS3_EENS_8equal_toIS3_EENS5_INS_4pairIKS3_S7_EEEEEEEENS_22__unordered_map_hasherImSH_NS8_ImEENSA_ImEELb1EEENS_21__unordered_map_equalImSH_SK_SJ_Lb1EEENS5_ISH_EEEC2Ev, symObjAddr: 0x36C2C, symBinAddr: 0x10004D174, symSize: 0x3E0 }
  - { offsetInCU: 0x2B71A, offset: 0x35DBC, size: 0x8, addend: 0x0, symName: __ZNSt3__110unique_ptrIA_PNS_16__hash_node_baseIPNS_11__hash_nodeINS_17__hash_value_typeImNS_13unordered_mapI5FieldNS_6vectorImNS_9allocatorImEEEENS_4hashIS5_EENS_8equal_toIS5_EENS7_INS_4pairIKS5_S9_EEEEEEEEPvEEEENS_25__bucket_list_deallocatorINS7_ISO_EEEEEC1B7v160006ILb1EvEEv, symObjAddr: 0x3700C, symBinAddr: 0x10004D554, symSize: 0x78 }
  - { offsetInCU: 0x2B74E, offset: 0x35DF0, size: 0x8, addend: 0x0, symName: __ZNSt3__117__compressed_pairINS_16__hash_node_baseIPNS_11__hash_nodeINS_17__hash_value_typeImNS_13unordered_mapI5FieldNS_6vectorImNS_9allocatorImEEEENS_4hashIS5_EENS_8equal_toIS5_EENS7_INS_4pairIKS5_S9_EEEEEEEEPvEEEENS7_ISL_EEEC1B7v160006ILb1EvEEv, symObjAddr: 0x37084, symBinAddr: 0x10004D5CC, symSize: 0x78 }
  - { offsetInCU: 0x2B782, offset: 0x35E24, size: 0x8, addend: 0x0, symName: __ZNSt3__117__compressed_pairImNS_22__unordered_map_hasherImNS_17__hash_value_typeImNS_13unordered_mapI5FieldNS_6vectorImNS_9allocatorImEEEENS_4hashIS4_EENS_8equal_toIS4_EENS6_INS_4pairIKS4_S8_EEEEEEEENS9_ImEENSB_ImEELb1EEEEC1B7v160006IiNS_18__default_init_tagEEEOT_OT0_, symObjAddr: 0x370FC, symBinAddr: 0x10004D644, symSize: 0x88 }
  - { offsetInCU: 0x2B7D8, offset: 0x35E7A, size: 0x8, addend: 0x0, symName: __ZNSt3__117__compressed_pairIfNS_21__unordered_map_equalImNS_17__hash_value_typeImNS_13unordered_mapI5FieldNS_6vectorImNS_9allocatorImEEEENS_4hashIS4_EENS_8equal_toIS4_EENS6_INS_4pairIKS4_S8_EEEEEEEENSB_ImEENS9_ImEELb1EEEEC1B7v160006IfNS_18__default_init_tagEEEOT_OT0_, symObjAddr: 0x37184, symBinAddr: 0x10004D6CC, symSize: 0x88 }
  - { offsetInCU: 0x2B82E, offset: 0x35ED0, size: 0x8, addend: 0x0, symName: __ZNSt3__110unique_ptrIA_PNS_16__hash_node_baseIPNS_11__hash_nodeINS_17__hash_value_typeImNS_13unordered_mapI5FieldNS_6vectorImNS_9allocatorImEEEENS_4hashIS5_EENS_8equal_toIS5_EENS7_INS_4pairIKS5_S9_EEEEEEEEPvEEEENS_25__bucket_list_deallocatorINS7_ISO_EEEEEC2B7v160006ILb1EvEEv, symObjAddr: 0x3720C, symBinAddr: 0x10004D754, symSize: 0x268 }
  - { offsetInCU: 0x2B863, offset: 0x35F05, size: 0x8, addend: 0x0, symName: __ZNSt3__117__compressed_pairIPPNS_16__hash_node_baseIPNS_11__hash_nodeINS_17__hash_value_typeImNS_13unordered_mapI5FieldNS_6vectorImNS_9allocatorImEEEENS_4hashIS5_EENS_8equal_toIS5_EENS7_INS_4pairIKS5_S9_EEEEEEEEPvEEEENS_25__bucket_list_deallocatorINS7_ISO_EEEEEC1B7v160006INS_16__value_init_tagESV_EEOT_OT0_, symObjAddr: 0x37474, symBinAddr: 0x10004D9BC, symSize: 0x88 }
  - { offsetInCU: 0x2B8B9, offset: 0x35F5B, size: 0x8, addend: 0x0, symName: __ZNSt3__117__compressed_pairIPPNS_16__hash_node_baseIPNS_11__hash_nodeINS_17__hash_value_typeImNS_13unordered_mapI5FieldNS_6vectorImNS_9allocatorImEEEENS_4hashIS5_EENS_8equal_toIS5_EENS7_INS_4pairIKS5_S9_EEEEEEEEPvEEEENS_25__bucket_list_deallocatorINS7_ISO_EEEEEC2B7v160006INS_16__value_init_tagESV_EEOT_OT0_, symObjAddr: 0x374FC, symBinAddr: 0x10004DA44, symSize: 0x118 }
  - { offsetInCU: 0x2B90F, offset: 0x35FB1, size: 0x8, addend: 0x0, symName: __ZNSt3__122__compressed_pair_elemIPPNS_16__hash_node_baseIPNS_11__hash_nodeINS_17__hash_value_typeImNS_13unordered_mapI5FieldNS_6vectorImNS_9allocatorImEEEENS_4hashIS5_EENS_8equal_toIS5_EENS7_INS_4pairIKS5_S9_EEEEEEEEPvEEEELi0ELb0EEC2B7v160006ENS_16__value_init_tagE, symObjAddr: 0x37614, symBinAddr: 0x10004DB5C, symSize: 0xB8 }
  - { offsetInCU: 0x2B942, offset: 0x35FE4, size: 0x8, addend: 0x0, symName: __ZNSt3__122__compressed_pair_elemINS_25__bucket_list_deallocatorINS_9allocatorIPNS_16__hash_node_baseIPNS_11__hash_nodeINS_17__hash_value_typeImNS_13unordered_mapI5FieldNS_6vectorImNS2_ImEEEENS_4hashIS7_EENS_8equal_toIS7_EENS2_INS_4pairIKS7_SA_EEEEEEEEPvEEEEEEEELi1ELb0EEC2B7v160006ENS_16__value_init_tagE, symObjAddr: 0x376CC, symBinAddr: 0x10004DC14, symSize: 0x78 }
  - { offsetInCU: 0x2B975, offset: 0x36017, size: 0x8, addend: 0x0, symName: __ZNSt3__125__bucket_list_deallocatorINS_9allocatorIPNS_16__hash_node_baseIPNS_11__hash_nodeINS_17__hash_value_typeImNS_13unordered_mapI5FieldNS_6vectorImNS1_ImEEEENS_4hashIS6_EENS_8equal_toIS6_EENS1_INS_4pairIKS6_S9_EEEEEEEEPvEEEEEEEC1B7v160006Ev, symObjAddr: 0x37744, symBinAddr: 0x10004DC8C, symSize: 0x78 }
  - { offsetInCU: 0x2B99D, offset: 0x3603F, size: 0x8, addend: 0x0, symName: __ZNSt3__125__bucket_list_deallocatorINS_9allocatorIPNS_16__hash_node_baseIPNS_11__hash_nodeINS_17__hash_value_typeImNS_13unordered_mapI5FieldNS_6vectorImNS1_ImEEEENS_4hashIS6_EENS_8equal_toIS6_EENS1_INS_4pairIKS6_S9_EEEEEEEEPvEEEEEEEC2B7v160006Ev, symObjAddr: 0x377BC, symBinAddr: 0x10004DD04, symSize: 0x2CC }
  - { offsetInCU: 0x2B9C6, offset: 0x36068, size: 0x8, addend: 0x0, symName: __ZNSt3__117__compressed_pairImNS_9allocatorIPNS_16__hash_node_baseIPNS_11__hash_nodeINS_17__hash_value_typeImNS_13unordered_mapI5FieldNS_6vectorImNS1_ImEEEENS_4hashIS6_EENS_8equal_toIS6_EENS1_INS_4pairIKS6_S9_EEEEEEEEPvEEEEEEEC1B7v160006IiNS_18__default_init_tagEEEOT_OT0_, symObjAddr: 0x37A88, symBinAddr: 0x10004DFD0, symSize: 0x88 }
  - { offsetInCU: 0x2BA1C, offset: 0x360BE, size: 0x8, addend: 0x0, symName: __ZNSt3__117__compressed_pairImNS_9allocatorIPNS_16__hash_node_baseIPNS_11__hash_nodeINS_17__hash_value_typeImNS_13unordered_mapI5FieldNS_6vectorImNS1_ImEEEENS_4hashIS6_EENS_8equal_toIS6_EENS1_INS_4pairIKS6_S9_EEEEEEEEPvEEEEEEEC2B7v160006IiNS_18__default_init_tagEEEOT_OT0_, symObjAddr: 0x37B10, symBinAddr: 0x10004E058, symSize: 0x140 }
  - { offsetInCU: 0x2BA72, offset: 0x36114, size: 0x8, addend: 0x0, symName: __ZNSt3__122__compressed_pair_elemINS_9allocatorIPNS_16__hash_node_baseIPNS_11__hash_nodeINS_17__hash_value_typeImNS_13unordered_mapI5FieldNS_6vectorImNS1_ImEEEENS_4hashIS6_EENS_8equal_toIS6_EENS1_INS_4pairIKS6_S9_EEEEEEEEPvEEEEEELi1ELb1EEC2B7v160006ENS_18__default_init_tagE, symObjAddr: 0x37C50, symBinAddr: 0x10004E198, symSize: 0x84 }
  - { offsetInCU: 0x2BAA5, offset: 0x36147, size: 0x8, addend: 0x0, symName: __ZNSt3__19allocatorIPNS_16__hash_node_baseIPNS_11__hash_nodeINS_17__hash_value_typeImNS_13unordered_mapI5FieldNS_6vectorImNS0_ImEEEENS_4hashIS5_EENS_8equal_toIS5_EENS0_INS_4pairIKS5_S8_EEEEEEEEPvEEEEEC2B7v160006Ev, symObjAddr: 0x37CD4, symBinAddr: 0x10004E21C, symSize: 0x84 }
  - { offsetInCU: 0x2BACD, offset: 0x3616F, size: 0x8, addend: 0x0, symName: __ZNSt3__116__non_trivial_ifILb1ENS_9allocatorIPNS_16__hash_node_baseIPNS_11__hash_nodeINS_17__hash_value_typeImNS_13unordered_mapI5FieldNS_6vectorImNS1_ImEEEENS_4hashIS6_EENS_8equal_toIS6_EENS1_INS_4pairIKS6_S9_EEEEEEEEPvEEEEEEEC2B7v160006Ev, symObjAddr: 0x37D58, symBinAddr: 0x10004E2A0, symSize: 0x54 }
  - { offsetInCU: 0x2BAF5, offset: 0x36197, size: 0x8, addend: 0x0, symName: __ZNSt3__117__compressed_pairINS_16__hash_node_baseIPNS_11__hash_nodeINS_17__hash_value_typeImNS_13unordered_mapI5FieldNS_6vectorImNS_9allocatorImEEEENS_4hashIS5_EENS_8equal_toIS5_EENS7_INS_4pairIKS5_S9_EEEEEEEEPvEEEENS7_ISL_EEEC2B7v160006ILb1EvEEv, symObjAddr: 0x37DAC, symBinAddr: 0x10004E2F4, symSize: 0xEC }
  - { offsetInCU: 0x2BB29, offset: 0x361CB, size: 0x8, addend: 0x0, symName: __ZNSt3__122__compressed_pair_elemINS_16__hash_node_baseIPNS_11__hash_nodeINS_17__hash_value_typeImNS_13unordered_mapI5FieldNS_6vectorImNS_9allocatorImEEEENS_4hashIS5_EENS_8equal_toIS5_EENS7_INS_4pairIKS5_S9_EEEEEEEEPvEEEELi0ELb0EEC2B7v160006ENS_16__value_init_tagE, symObjAddr: 0x37E98, symBinAddr: 0x10004E3E0, symSize: 0x78 }
  - { offsetInCU: 0x2BB5C, offset: 0x361FE, size: 0x8, addend: 0x0, symName: __ZNSt3__122__compressed_pair_elemINS_9allocatorINS_11__hash_nodeINS_17__hash_value_typeImNS_13unordered_mapI5FieldNS_6vectorImNS1_ImEEEENS_4hashIS5_EENS_8equal_toIS5_EENS1_INS_4pairIKS5_S8_EEEEEEEEPvEEEELi1ELb1EEC2B7v160006ENS_16__value_init_tagE, symObjAddr: 0x37F10, symBinAddr: 0x10004E458, symSize: 0x84 }
  - { offsetInCU: 0x2BB8F, offset: 0x36231, size: 0x8, addend: 0x0, symName: __ZNSt3__116__hash_node_baseIPNS_11__hash_nodeINS_17__hash_value_typeImNS_13unordered_mapI5FieldNS_6vectorImNS_9allocatorImEEEENS_4hashIS4_EENS_8equal_toIS4_EENS6_INS_4pairIKS4_S8_EEEEEEEEPvEEEC1B7v160006Ev, symObjAddr: 0x37F94, symBinAddr: 0x10004E4DC, symSize: 0x78 }
  - { offsetInCU: 0x2BBB7, offset: 0x36259, size: 0x8, addend: 0x0, symName: __ZNSt3__116__hash_node_baseIPNS_11__hash_nodeINS_17__hash_value_typeImNS_13unordered_mapI5FieldNS_6vectorImNS_9allocatorImEEEENS_4hashIS4_EENS_8equal_toIS4_EENS6_INS_4pairIKS4_S8_EEEEEEEEPvEEEC2B7v160006Ev, symObjAddr: 0x3800C, symBinAddr: 0x10004E554, symSize: 0xB8 }
  - { offsetInCU: 0x2BBDF, offset: 0x36281, size: 0x8, addend: 0x0, symName: __ZNSt3__19allocatorINS_11__hash_nodeINS_17__hash_value_typeImNS_13unordered_mapI5FieldNS_6vectorImNS0_ImEEEENS_4hashIS4_EENS_8equal_toIS4_EENS0_INS_4pairIKS4_S7_EEEEEEEEPvEEEC2B7v160006Ev, symObjAddr: 0x380C4, symBinAddr: 0x10004E60C, symSize: 0x84 }
  - { offsetInCU: 0x2BC07, offset: 0x362A9, size: 0x8, addend: 0x0, symName: __ZNSt3__116__non_trivial_ifILb1ENS_9allocatorINS_11__hash_nodeINS_17__hash_value_typeImNS_13unordered_mapI5FieldNS_6vectorImNS1_ImEEEENS_4hashIS5_EENS_8equal_toIS5_EENS1_INS_4pairIKS5_S8_EEEEEEEEPvEEEEEC2B7v160006Ev, symObjAddr: 0x38148, symBinAddr: 0x10004E690, symSize: 0x54 }
  - { offsetInCU: 0x2BC2F, offset: 0x362D1, size: 0x8, addend: 0x0, symName: __ZNSt3__117__compressed_pairImNS_22__unordered_map_hasherImNS_17__hash_value_typeImNS_13unordered_mapI5FieldNS_6vectorImNS_9allocatorImEEEENS_4hashIS4_EENS_8equal_toIS4_EENS6_INS_4pairIKS4_S8_EEEEEEEENS9_ImEENSB_ImEELb1EEEEC2B7v160006IiNS_18__default_init_tagEEEOT_OT0_, symObjAddr: 0x3819C, symBinAddr: 0x10004E6E4, symSize: 0x140 }
  - { offsetInCU: 0x2BC85, offset: 0x36327, size: 0x8, addend: 0x0, symName: __ZNSt3__122__compressed_pair_elemINS_22__unordered_map_hasherImNS_17__hash_value_typeImNS_13unordered_mapI5FieldNS_6vectorImNS_9allocatorImEEEENS_4hashIS4_EENS_8equal_toIS4_EENS6_INS_4pairIKS4_S8_EEEEEEEENS9_ImEENSB_ImEELb1EEELi1ELb1EEC2B7v160006ENS_18__default_init_tagE, symObjAddr: 0x382DC, symBinAddr: 0x10004E824, symSize: 0x84 }
  - { offsetInCU: 0x2BCB8, offset: 0x3635A, size: 0x8, addend: 0x0, symName: __ZNSt3__122__unordered_map_hasherImNS_17__hash_value_typeImNS_13unordered_mapI5FieldNS_6vectorImNS_9allocatorImEEEENS_4hashIS3_EENS_8equal_toIS3_EENS5_INS_4pairIKS3_S7_EEEEEEEENS8_ImEENSA_ImEELb1EEC2B7v160006Ev, symObjAddr: 0x38360, symBinAddr: 0x10004E8A8, symSize: 0x54 }
  - { offsetInCU: 0x2BCE0, offset: 0x36382, size: 0x8, addend: 0x0, symName: __ZNSt3__117__compressed_pairIfNS_21__unordered_map_equalImNS_17__hash_value_typeImNS_13unordered_mapI5FieldNS_6vectorImNS_9allocatorImEEEENS_4hashIS4_EENS_8equal_toIS4_EENS6_INS_4pairIKS4_S8_EEEEEEEENSB_ImEENS9_ImEELb1EEEEC2B7v160006IfNS_18__default_init_tagEEEOT_OT0_, symObjAddr: 0x383B4, symBinAddr: 0x10004E8FC, symSize: 0x140 }
  - { offsetInCU: 0x2BD36, offset: 0x363D8, size: 0x8, addend: 0x0, symName: __ZNSt3__122__compressed_pair_elemINS_21__unordered_map_equalImNS_17__hash_value_typeImNS_13unordered_mapI5FieldNS_6vectorImNS_9allocatorImEEEENS_4hashIS4_EENS_8equal_toIS4_EENS6_INS_4pairIKS4_S8_EEEEEEEENSB_ImEENS9_ImEELb1EEELi1ELb1EEC2B7v160006ENS_18__default_init_tagE, symObjAddr: 0x384F4, symBinAddr: 0x10004EA3C, symSize: 0x84 }
  - { offsetInCU: 0x2BD69, offset: 0x3640B, size: 0x8, addend: 0x0, symName: __ZNSt3__121__unordered_map_equalImNS_17__hash_value_typeImNS_13unordered_mapI5FieldNS_6vectorImNS_9allocatorImEEEENS_4hashIS3_EENS_8equal_toIS3_EENS5_INS_4pairIKS3_S7_EEEEEEEENSA_ImEENS8_ImEELb1EEC2B7v160006Ev, symObjAddr: 0x38578, symBinAddr: 0x10004EAC0, symSize: 0x54 }
  - { offsetInCU: 0x2BD91, offset: 0x36433, size: 0x8, addend: 0x0, symName: __ZNKSt3__111__wrap_iterIPNS_6vectorI5FieldNS_9allocatorIS2_EEEEE4baseB7v160006Ev, symObjAddr: 0x38668, symBinAddr: 0x10004EBB0, symSize: 0xAC }
  - { offsetInCU: 0x2BDB6, offset: 0x36458, size: 0x8, addend: 0x0, symName: __ZNKSt3__111__wrap_iterIPNS_12basic_stringIcNS_11char_traitsIcEENS_9allocatorIcEEEEE4baseB7v160006Ev, symObjAddr: 0x38714, symBinAddr: 0x10004EC5C, symSize: 0xAC }
  - { offsetInCU: 0x2BDDB, offset: 0x3647D, size: 0x8, addend: 0x0, symName: __ZNSt3__119basic_ostringstreamIcNS_11char_traitsIcEENS_9allocatorIcEEED2Ev, symObjAddr: 0x387C0, symBinAddr: 0x10004ED08, symSize: 0x1E8 }
  - { offsetInCU: 0x2BE13, offset: 0x364B5, size: 0x8, addend: 0x0, symName: __ZTv0_n24_NSt3__119basic_ostringstreamIcNS_11char_traitsIcEENS_9allocatorIcEEED1Ev, symObjAddr: 0x389A8, symBinAddr: 0x10004EEF0, symSize: 0xB0 }
  - { offsetInCU: 0x2BE2F, offset: 0x364D1, size: 0x8, addend: 0x0, symName: __ZNSt3__115basic_stringbufIcNS_11char_traitsIcEENS_9allocatorIcEEED1Ev, symObjAddr: 0x38A58, symBinAddr: 0x10004EFA0, symSize: 0x78 }
  - { offsetInCU: 0x2BE5B, offset: 0x364FD, size: 0x8, addend: 0x0, symName: __ZNSt3__115basic_stringbufIcNS_11char_traitsIcEENS_9allocatorIcEEED2Ev, symObjAddr: 0x38AD0, symBinAddr: 0x10004F018, symSize: 0xDC }
  - { offsetInCU: 0x2BE87, offset: 0x36529, size: 0x8, addend: 0x0, symName: __ZNKSt3__111__wrap_iterIPmE4baseB7v160006Ev, symObjAddr: 0x38EBC, symBinAddr: 0x10004F404, symSize: 0xAC }
  - { offsetInCU: 0x2BEAC, offset: 0x3654E, size: 0x8, addend: 0x0, symName: __ZNSt3__111__wrap_iterIPNS_6vectorI5FieldNS_9allocatorIS2_EEEEEpLB7v160006El, symObjAddr: 0x38F68, symBinAddr: 0x10004F4B0, symSize: 0x230 }
  - { offsetInCU: 0x2BEDF, offset: 0x36581, size: 0x8, addend: 0x0, symName: __ZNSt3__111__wrap_iterIPKNS_6vectorI5FieldNS_9allocatorIS2_EEEEEC2B7v160006IPS5_EERKNS0_IT_EEPNS_9enable_ifIXsr14is_convertibleISB_S7_EE5valueEvE4typeE, symObjAddr: 0x39198, symBinAddr: 0x10004F6E0, symSize: 0xFC }
  - { offsetInCU: 0x2BF29, offset: 0x365CB, size: 0x8, addend: 0x0, symName: __ZN5TableD2Ev, symObjAddr: 0x39294, symBinAddr: 0x10004F7DC, symSize: 0xA8 }
  - { offsetInCU: 0x2BF54, offset: 0x365F6, size: 0x8, addend: 0x0, symName: __ZNSt3__113unordered_mapImNS0_I5FieldNS_6vectorImNS_9allocatorImEEEENS_4hashIS1_EENS_8equal_toIS1_EENS3_INS_4pairIKS1_S5_EEEEEENS6_ImEENS8_ImEENS3_INSA_IKmSE_EEEEED1B7v160006Ev, symObjAddr: 0x3933C, symBinAddr: 0x10004F884, symSize: 0x78 }
  - { offsetInCU: 0x2BF7C, offset: 0x3661E, size: 0x8, addend: 0x0, symName: __ZNSt3__16vectorINS0_I5FieldNS_9allocatorIS1_EEEENS2_IS4_EEED1B7v160006Ev, symObjAddr: 0x393B4, symBinAddr: 0x10004F8FC, symSize: 0x78 }
  - { offsetInCU: 0x2BFA4, offset: 0x36646, size: 0x8, addend: 0x0, symName: __ZNSt3__113unordered_mapImNS0_I5FieldNS_6vectorImNS_9allocatorImEEEENS_4hashIS1_EENS_8equal_toIS1_EENS3_INS_4pairIKS1_S5_EEEEEENS6_ImEENS8_ImEENS3_INSA_IKmSE_EEEEED2B7v160006Ev, symObjAddr: 0x3942C, symBinAddr: 0x10004F974, symSize: 0x78 }
  - { offsetInCU: 0x2BFCC, offset: 0x3666E, size: 0x8, addend: 0x0, symName: __ZNSt3__112__hash_tableINS_17__hash_value_typeImNS_13unordered_mapI5FieldNS_6vectorImNS_9allocatorImEEEENS_4hashIS3_EENS_8equal_toIS3_EENS5_INS_4pairIKS3_S7_EEEEEEEENS_22__unordered_map_hasherImSH_NS8_ImEENSA_ImEELb1EEENS_21__unordered_map_equalImSH_SK_SJ_Lb1EEENS5_ISH_EEED1Ev, symObjAddr: 0x394A4, symBinAddr: 0x10004F9EC, symSize: 0x78 }
  - { offsetInCU: 0x2BFF7, offset: 0x36699, size: 0x8, addend: 0x0, symName: __ZNSt3__112__hash_tableINS_17__hash_value_typeImNS_13unordered_mapI5FieldNS_6vectorImNS_9allocatorImEEEENS_4hashIS3_EENS_8equal_toIS3_EENS5_INS_4pairIKS3_S7_EEEEEEEENS_22__unordered_map_hasherImSH_NS8_ImEENSA_ImEELb1EEENS_21__unordered_map_equalImSH_SK_SJ_Lb1EEENS5_ISH_EEED2Ev, symObjAddr: 0x3951C, symBinAddr: 0x10004FA64, symSize: 0x1C0 }
  - { offsetInCU: 0x2C022, offset: 0x366C4, size: 0x8, addend: 0x0, symName: __ZNSt3__112__hash_tableINS_17__hash_value_typeImNS_13unordered_mapI5FieldNS_6vectorImNS_9allocatorImEEEENS_4hashIS3_EENS_8equal_toIS3_EENS5_INS_4pairIKS3_S7_EEEEEEEENS_22__unordered_map_hasherImSH_NS8_ImEENSA_ImEELb1EEENS_21__unordered_map_equalImSH_SK_SJ_Lb1EEENS5_ISH_EEE17__deallocate_nodeEPNS_16__hash_node_baseIPNS_11__hash_nodeISH_PvEEEE, symObjAddr: 0x396DC, symBinAddr: 0x10004FC24, symSize: 0x31C }
  - { offsetInCU: 0x2C08B, offset: 0x3672D, size: 0x8, addend: 0x0, symName: __ZNSt3__117__compressed_pairINS_16__hash_node_baseIPNS_11__hash_nodeINS_17__hash_value_typeImNS_13unordered_mapI5FieldNS_6vectorImNS_9allocatorImEEEENS_4hashIS5_EENS_8equal_toIS5_EENS7_INS_4pairIKS5_S9_EEEEEEEEPvEEEENS7_ISL_EEE5firstB7v160006Ev, symObjAddr: 0x399F8, symBinAddr: 0x10004FF40, symSize: 0x124 }
  - { offsetInCU: 0x2C0B0, offset: 0x36752, size: 0x8, addend: 0x0, symName: __ZNSt3__110unique_ptrIA_PNS_16__hash_node_baseIPNS_11__hash_nodeINS_17__hash_value_typeImNS_13unordered_mapI5FieldNS_6vectorImNS_9allocatorImEEEENS_4hashIS5_EENS_8equal_toIS5_EENS7_INS_4pairIKS5_S9_EEEEEEEEPvEEEENS_25__bucket_list_deallocatorINS7_ISO_EEEEED1B7v160006Ev, symObjAddr: 0x39B2C, symBinAddr: 0x100050074, symSize: 0x78 }
  - { offsetInCU: 0x2C0D8, offset: 0x3677A, size: 0x8, addend: 0x0, symName: __ZNSt3__112__hash_tableINS_17__hash_value_typeImNS_13unordered_mapI5FieldNS_6vectorImNS_9allocatorImEEEENS_4hashIS3_EENS_8equal_toIS3_EENS5_INS_4pairIKS3_S7_EEEEEEEENS_22__unordered_map_hasherImSH_NS8_ImEENSA_ImEELb1EEENS_21__unordered_map_equalImSH_SK_SJ_Lb1EEENS5_ISH_EEE12__node_allocB7v160006Ev, symObjAddr: 0x39BA4, symBinAddr: 0x1000500EC, symSize: 0xE4 }
  - { offsetInCU: 0x2C0FD, offset: 0x3679F, size: 0x8, addend: 0x0, symName: __ZNSt3__116__hash_node_baseIPNS_11__hash_nodeINS_17__hash_value_typeImNS_13unordered_mapI5FieldNS_6vectorImNS_9allocatorImEEEENS_4hashIS4_EENS_8equal_toIS4_EENS6_INS_4pairIKS4_S8_EEEEEEEEPvEEE8__upcastB7v160006Ev, symObjAddr: 0x39C88, symBinAddr: 0x1000501D0, symSize: 0xF8 }
  - { offsetInCU: 0x2C122, offset: 0x367C4, size: 0x8, addend: 0x0, symName: __ZNSt3__116allocator_traitsINS_9allocatorINS_11__hash_nodeINS_17__hash_value_typeImNS_13unordered_mapI5FieldNS_6vectorImNS1_ImEEEENS_4hashIS5_EENS_8equal_toIS5_EENS1_INS_4pairIKS5_S8_EEEEEEEEPvEEEEE7destroyB7v160006INSD_IKmSH_EEvvEEvRSL_PT_, symObjAddr: 0x39D80, symBinAddr: 0x1000502C8, symSize: 0x70 }
  - { offsetInCU: 0x2C15F, offset: 0x36801, size: 0x8, addend: 0x0, symName: __ZNSt3__122__hash_key_value_typesINS_17__hash_value_typeImNS_13unordered_mapI5FieldNS_6vectorImNS_9allocatorImEEEENS_4hashIS3_EENS_8equal_toIS3_EENS5_INS_4pairIKS3_S7_EEEEEEEEE9__get_ptrB7v160006ERSH_, symObjAddr: 0x39DF0, symBinAddr: 0x100050338, symSize: 0x50 }
  - { offsetInCU: 0x2C182, offset: 0x36824, size: 0x8, addend: 0x0, symName: __ZNSt3__116allocator_traitsINS_9allocatorINS_11__hash_nodeINS_17__hash_value_typeImNS_13unordered_mapI5FieldNS_6vectorImNS1_ImEEEENS_4hashIS5_EENS_8equal_toIS5_EENS1_INS_4pairIKS5_S8_EEEEEEEEPvEEEEE10deallocateB7v160006ERSL_PSK_m, symObjAddr: 0x39E40, symBinAddr: 0x100050388, symSize: 0x34 }
  - { offsetInCU: 0x2C1C4, offset: 0x36866, size: 0x8, addend: 0x0, symName: __ZNSt3__117__compressed_pairINS_16__hash_node_baseIPNS_11__hash_nodeINS_17__hash_value_typeImNS_13unordered_mapI5FieldNS_6vectorImNS_9allocatorImEEEENS_4hashIS5_EENS_8equal_toIS5_EENS7_INS_4pairIKS5_S9_EEEEEEEEPvEEEENS7_ISL_EEE6secondB7v160006Ev, symObjAddr: 0x39E74, symBinAddr: 0x1000503BC, symSize: 0x108 }
  - { offsetInCU: 0x2C1E9, offset: 0x3688B, size: 0x8, addend: 0x0, symName: __ZNSt3__122__compressed_pair_elemINS_9allocatorINS_11__hash_nodeINS_17__hash_value_typeImNS_13unordered_mapI5FieldNS_6vectorImNS1_ImEEEENS_4hashIS5_EENS_8equal_toIS5_EENS1_INS_4pairIKS5_S8_EEEEEEEEPvEEEELi1ELb1EE5__getB7v160006Ev, symObjAddr: 0x39F7C, symBinAddr: 0x1000504C4, symSize: 0x74 }
  - { offsetInCU: 0x2C20E, offset: 0x368B0, size: 0x8, addend: 0x0, symName: __ZNSt3__114pointer_traitsIPNS_16__hash_node_baseIPNS_11__hash_nodeINS_17__hash_value_typeImNS_13unordered_mapI5FieldNS_6vectorImNS_9allocatorImEEEENS_4hashIS5_EENS_8equal_toIS5_EENS7_INS_4pairIKS5_S9_EEEEEEEEPvEEEEE10pointer_toB7v160006ERSN_, symObjAddr: 0x39FF0, symBinAddr: 0x100050538, symSize: 0x14 }
  - { offsetInCU: 0x2C231, offset: 0x368D3, size: 0x8, addend: 0x0, symName: __ZNSt3__14pairIKmNS_13unordered_mapI5FieldNS_6vectorImNS_9allocatorImEEEENS_4hashIS3_EENS_8equal_toIS3_EENS5_INS0_IKS3_S7_EEEEEEED1Ev, symObjAddr: 0x3A004, symBinAddr: 0x10005054C, symSize: 0x78 }
  - { offsetInCU: 0x2C25C, offset: 0x368FE, size: 0x8, addend: 0x0, symName: __ZNSt3__14pairIKmNS_13unordered_mapI5FieldNS_6vectorImNS_9allocatorImEEEENS_4hashIS3_EENS_8equal_toIS3_EENS5_INS0_IKS3_S7_EEEEEEED2Ev, symObjAddr: 0x3A07C, symBinAddr: 0x1000505C4, symSize: 0x7C }
  - { offsetInCU: 0x2C287, offset: 0x36929, size: 0x8, addend: 0x0, symName: __ZNSt3__113unordered_mapI5FieldNS_6vectorImNS_9allocatorImEEEENS_4hashIS1_EENS_8equal_toIS1_EENS3_INS_4pairIKS1_S5_EEEEED1B7v160006Ev, symObjAddr: 0x3A0F8, symBinAddr: 0x100050640, symSize: 0x78 }
  - { offsetInCU: 0x2C2AF, offset: 0x36951, size: 0x8, addend: 0x0, symName: __ZNSt3__113unordered_mapI5FieldNS_6vectorImNS_9allocatorImEEEENS_4hashIS1_EENS_8equal_toIS1_EENS3_INS_4pairIKS1_S5_EEEEED2B7v160006Ev, symObjAddr: 0x3A170, symBinAddr: 0x1000506B8, symSize: 0x78 }
  - { offsetInCU: 0x2C2D7, offset: 0x36979, size: 0x8, addend: 0x0, symName: __ZNSt3__112__hash_tableINS_17__hash_value_typeI5FieldNS_6vectorImNS_9allocatorImEEEEEENS_22__unordered_map_hasherIS2_S7_NS_4hashIS2_EENS_8equal_toIS2_EELb1EEENS_21__unordered_map_equalIS2_S7_SC_SA_Lb1EEENS4_IS7_EEED1Ev, symObjAddr: 0x3A1E8, symBinAddr: 0x100050730, symSize: 0x78 }
  - { offsetInCU: 0x2C302, offset: 0x369A4, size: 0x8, addend: 0x0, symName: __ZNSt3__112__hash_tableINS_17__hash_value_typeI5FieldNS_6vectorImNS_9allocatorImEEEEEENS_22__unordered_map_hasherIS2_S7_NS_4hashIS2_EENS_8equal_toIS2_EELb1EEENS_21__unordered_map_equalIS2_S7_SC_SA_Lb1EEENS4_IS7_EEED2Ev, symObjAddr: 0x3A260, symBinAddr: 0x1000507A8, symSize: 0x1C0 }
  - { offsetInCU: 0x2C32D, offset: 0x369CF, size: 0x8, addend: 0x0, symName: __ZNSt3__112__hash_tableINS_17__hash_value_typeI5FieldNS_6vectorImNS_9allocatorImEEEEEENS_22__unordered_map_hasherIS2_S7_NS_4hashIS2_EENS_8equal_toIS2_EELb1EEENS_21__unordered_map_equalIS2_S7_SC_SA_Lb1EEENS4_IS7_EEE17__deallocate_nodeEPNS_16__hash_node_baseIPNS_11__hash_nodeIS7_PvEEEE, symObjAddr: 0x3A420, symBinAddr: 0x100050968, symSize: 0x31C }
  - { offsetInCU: 0x2C396, offset: 0x36A38, size: 0x8, addend: 0x0, symName: __ZNSt3__117__compressed_pairINS_16__hash_node_baseIPNS_11__hash_nodeINS_17__hash_value_typeI5FieldNS_6vectorImNS_9allocatorImEEEEEEPvEEEENS6_ISB_EEE5firstB7v160006Ev, symObjAddr: 0x3A73C, symBinAddr: 0x100050C84, symSize: 0x124 }
  - { offsetInCU: 0x2C3BB, offset: 0x36A5D, size: 0x8, addend: 0x0, symName: __ZNSt3__110unique_ptrIA_PNS_16__hash_node_baseIPNS_11__hash_nodeINS_17__hash_value_typeI5FieldNS_6vectorImNS_9allocatorImEEEEEEPvEEEENS_25__bucket_list_deallocatorINS6_ISE_EEEEED1B7v160006Ev, symObjAddr: 0x3A870, symBinAddr: 0x100050DB8, symSize: 0x78 }
  - { offsetInCU: 0x2C3E3, offset: 0x36A85, size: 0x8, addend: 0x0, symName: __ZNSt3__112__hash_tableINS_17__hash_value_typeI5FieldNS_6vectorImNS_9allocatorImEEEEEENS_22__unordered_map_hasherIS2_S7_NS_4hashIS2_EENS_8equal_toIS2_EELb1EEENS_21__unordered_map_equalIS2_S7_SC_SA_Lb1EEENS4_IS7_EEE12__node_allocB7v160006Ev, symObjAddr: 0x3A8E8, symBinAddr: 0x100050E30, symSize: 0xE4 }
  - { offsetInCU: 0x2C408, offset: 0x36AAA, size: 0x8, addend: 0x0, symName: __ZNSt3__116__hash_node_baseIPNS_11__hash_nodeINS_17__hash_value_typeI5FieldNS_6vectorImNS_9allocatorImEEEEEEPvEEE8__upcastB7v160006Ev, symObjAddr: 0x3A9CC, symBinAddr: 0x100050F14, symSize: 0xF8 }
  - { offsetInCU: 0x2C42D, offset: 0x36ACF, size: 0x8, addend: 0x0, symName: __ZNSt3__116allocator_traitsINS_9allocatorINS_11__hash_nodeINS_17__hash_value_typeI5FieldNS_6vectorImNS1_ImEEEEEEPvEEEEE7destroyB7v160006INS_4pairIKS4_S7_EEvvEEvRSB_PT_, symObjAddr: 0x3AAC4, symBinAddr: 0x10005100C, symSize: 0x70 }
  - { offsetInCU: 0x2C46A, offset: 0x36B0C, size: 0x8, addend: 0x0, symName: __ZNSt3__122__hash_key_value_typesINS_17__hash_value_typeI5FieldNS_6vectorImNS_9allocatorImEEEEEEE9__get_ptrB7v160006ERS7_, symObjAddr: 0x3AB34, symBinAddr: 0x10005107C, symSize: 0x50 }
  - { offsetInCU: 0x2C48D, offset: 0x36B2F, size: 0x8, addend: 0x0, symName: __ZNSt3__116allocator_traitsINS_9allocatorINS_11__hash_nodeINS_17__hash_value_typeI5FieldNS_6vectorImNS1_ImEEEEEEPvEEEEE10deallocateB7v160006ERSB_PSA_m, symObjAddr: 0x3AB84, symBinAddr: 0x1000510CC, symSize: 0x34 }
  - { offsetInCU: 0x2C4CF, offset: 0x36B71, size: 0x8, addend: 0x0, symName: __ZNSt3__117__compressed_pairINS_16__hash_node_baseIPNS_11__hash_nodeINS_17__hash_value_typeI5FieldNS_6vectorImNS_9allocatorImEEEEEEPvEEEENS6_ISB_EEE6secondB7v160006Ev, symObjAddr: 0x3ABB8, symBinAddr: 0x100051100, symSize: 0x108 }
  - { offsetInCU: 0x2C4F4, offset: 0x36B96, size: 0x8, addend: 0x0, symName: __ZNSt3__122__compressed_pair_elemINS_9allocatorINS_11__hash_nodeINS_17__hash_value_typeI5FieldNS_6vectorImNS1_ImEEEEEEPvEEEELi1ELb1EE5__getB7v160006Ev, symObjAddr: 0x3ACC0, symBinAddr: 0x100051208, symSize: 0x74 }
  - { offsetInCU: 0x2C519, offset: 0x36BBB, size: 0x8, addend: 0x0, symName: __ZNSt3__114pointer_traitsIPNS_16__hash_node_baseIPNS_11__hash_nodeINS_17__hash_value_typeI5FieldNS_6vectorImNS_9allocatorImEEEEEEPvEEEEE10pointer_toB7v160006ERSD_, symObjAddr: 0x3AD34, symBinAddr: 0x10005127C, symSize: 0x14 }
  - { offsetInCU: 0x2C53C, offset: 0x36BDE, size: 0x8, addend: 0x0, symName: __ZNSt3__14pairIK5FieldNS_6vectorImNS_9allocatorImEEEEED1Ev, symObjAddr: 0x3AD48, symBinAddr: 0x100051290, symSize: 0x78 }
  - { offsetInCU: 0x2C567, offset: 0x36C09, size: 0x8, addend: 0x0, symName: __ZNSt3__14pairIK5FieldNS_6vectorImNS_9allocatorImEEEEED2Ev, symObjAddr: 0x3ADC0, symBinAddr: 0x100051308, symSize: 0x84 }
  - { offsetInCU: 0x2C592, offset: 0x36C34, size: 0x8, addend: 0x0, symName: __ZNSt3__16vectorImNS_9allocatorImEEED1B7v160006Ev, symObjAddr: 0x3AE44, symBinAddr: 0x10005138C, symSize: 0x78 }
  - { offsetInCU: 0x2C5BA, offset: 0x36C5C, size: 0x8, addend: 0x0, symName: __ZNSt3__16vectorImNS_9allocatorImEEED2B7v160006Ev, symObjAddr: 0x3AEBC, symBinAddr: 0x100051404, symSize: 0x298 }
  - { offsetInCU: 0x2C5E3, offset: 0x36C85, size: 0x8, addend: 0x0, symName: __ZNSt3__16vectorImNS_9allocatorImEEE16__destroy_vectorC1ERS3_, symObjAddr: 0x3B154, symBinAddr: 0x10005169C, symSize: 0x80 }
  - { offsetInCU: 0x2C61A, offset: 0x36CBC, size: 0x8, addend: 0x0, symName: __ZNSt3__16vectorImNS_9allocatorImEEE16__destroy_vectorclB7v160006Ev, symObjAddr: 0x3B1D4, symBinAddr: 0x10005171C, symSize: 0x478 }
  - { offsetInCU: 0x2C63F, offset: 0x36CE1, size: 0x8, addend: 0x0, symName: __ZNSt3__16vectorImNS_9allocatorImEEE16__destroy_vectorC2ERS3_, symObjAddr: 0x3B64C, symBinAddr: 0x100051B94, symSize: 0x108 }
  - { offsetInCU: 0x2C676, offset: 0x36D18, size: 0x8, addend: 0x0, symName: __ZNKSt3__16vectorImNS_9allocatorImEEE17__annotate_deleteB7v160006Ev, symObjAddr: 0x3B754, symBinAddr: 0x100051C9C, symSize: 0x370 }
  - { offsetInCU: 0x2C69B, offset: 0x36D3D, size: 0x8, addend: 0x0, symName: __ZNSt3__16vectorImNS_9allocatorImEEE7__clearB7v160006Ev, symObjAddr: 0x3BAD4, symBinAddr: 0x10005201C, symSize: 0xB0 }
  - { offsetInCU: 0x2C6C0, offset: 0x36D62, size: 0x8, addend: 0x0, symName: __ZNSt3__116allocator_traitsINS_9allocatorImEEE10deallocateB7v160006ERS2_Pmm, symObjAddr: 0x3BB84, symBinAddr: 0x1000520CC, symSize: 0x34 }
  - { offsetInCU: 0x2C702, offset: 0x36DA4, size: 0x8, addend: 0x0, symName: __ZNSt3__16vectorImNS_9allocatorImEEE7__allocB7v160006Ev, symObjAddr: 0x3BBB8, symBinAddr: 0x100052100, symSize: 0xE4 }
  - { offsetInCU: 0x2C727, offset: 0x36DC9, size: 0x8, addend: 0x0, symName: __ZNKSt3__16vectorImNS_9allocatorImEEE8capacityB7v160006Ev, symObjAddr: 0x3BC9C, symBinAddr: 0x1000521E4, symSize: 0x144 }
  - { offsetInCU: 0x2C74C, offset: 0x36DEE, size: 0x8, addend: 0x0, symName: __ZNKSt3__16vectorImNS_9allocatorImEEE31__annotate_contiguous_containerEPKvS5_S5_S5_, symObjAddr: 0x3BDE0, symBinAddr: 0x100052328, symSize: 0x9C }
  - { offsetInCU: 0x2C7AD, offset: 0x36E4F, size: 0x8, addend: 0x0, symName: __ZNKSt3__16vectorImNS_9allocatorImEEE4dataB7v160006Ev, symObjAddr: 0x3BE7C, symBinAddr: 0x1000523C4, symSize: 0xB0 }
  - { offsetInCU: 0x2C7D2, offset: 0x36E74, size: 0x8, addend: 0x0, symName: __ZNKSt3__16vectorImNS_9allocatorImEEE4sizeB7v160006Ev, symObjAddr: 0x3BF2C, symBinAddr: 0x100052474, symSize: 0xF8 }
  - { offsetInCU: 0x2C7F7, offset: 0x36E99, size: 0x8, addend: 0x0, symName: __ZNSt3__16vectorImNS_9allocatorImEEE22__base_destruct_at_endB7v160006EPm, symObjAddr: 0x3C038, symBinAddr: 0x100052580, symSize: 0x1FC }
  - { offsetInCU: 0x2C83A, offset: 0x36EDC, size: 0x8, addend: 0x0, symName: __ZNSt3__116allocator_traitsINS_9allocatorImEEE7destroyB7v160006ImvEEvRS2_PT_, symObjAddr: 0x3C234, symBinAddr: 0x10005277C, symSize: 0x2C }
  - { offsetInCU: 0x2C878, offset: 0x36F1A, size: 0x8, addend: 0x0, symName: __ZNSt3__19allocatorImE7destroyB7v160006EPm, symObjAddr: 0x3C260, symBinAddr: 0x1000527A8, symSize: 0x4C }
  - { offsetInCU: 0x2C8AB, offset: 0x36F4D, size: 0x8, addend: 0x0, symName: __ZNSt3__19allocatorImE10deallocateB7v160006EPmm, symObjAddr: 0x3C2AC, symBinAddr: 0x1000527F4, symSize: 0x78 }
  - { offsetInCU: 0x2C8EC, offset: 0x36F8E, size: 0x8, addend: 0x0, symName: __ZNSt3__117__compressed_pairIPmNS_9allocatorImEEE6secondB7v160006Ev, symObjAddr: 0x3C324, symBinAddr: 0x10005286C, symSize: 0x108 }
  - { offsetInCU: 0x2C911, offset: 0x36FB3, size: 0x8, addend: 0x0, symName: __ZNSt3__122__compressed_pair_elemINS_9allocatorImEELi1ELb1EE5__getB7v160006Ev, symObjAddr: 0x3C42C, symBinAddr: 0x100052974, symSize: 0x74 }
  - { offsetInCU: 0x2C936, offset: 0x36FD8, size: 0x8, addend: 0x0, symName: __ZNKSt3__16vectorImNS_9allocatorImEEE9__end_capB7v160006Ev, symObjAddr: 0x3C4A0, symBinAddr: 0x1000529E8, symSize: 0x100 }
  - { offsetInCU: 0x2C95B, offset: 0x36FFD, size: 0x8, addend: 0x0, symName: __ZNKSt3__117__compressed_pairIPmNS_9allocatorImEEE5firstB7v160006Ev, symObjAddr: 0x3C5A0, symBinAddr: 0x100052AE8, symSize: 0x124 }
  - { offsetInCU: 0x2C980, offset: 0x37022, size: 0x8, addend: 0x0, symName: __ZNKSt3__122__compressed_pair_elemIPmLi0ELb0EE5__getB7v160006Ev, symObjAddr: 0x3C6C4, symBinAddr: 0x100052C0C, symSize: 0xAC }
  - { offsetInCU: 0x2C9A5, offset: 0x37047, size: 0x8, addend: 0x0, symName: __ZNSt3__117__hash_value_typeI5FieldNS_6vectorImNS_9allocatorImEEEEE11__get_valueB7v160006Ev, symObjAddr: 0x3C770, symBinAddr: 0x100052CB8, symSize: 0xB4 }
  - { offsetInCU: 0x2C9CA, offset: 0x3706C, size: 0x8, addend: 0x0, symName: __ZNSt3__19allocatorINS_11__hash_nodeINS_17__hash_value_typeI5FieldNS_6vectorImNS0_ImEEEEEEPvEEE10deallocateB7v160006EPS9_m, symObjAddr: 0x3C85C, symBinAddr: 0x100052DA4, symSize: 0x7C }
  - { offsetInCU: 0x2CA0B, offset: 0x370AD, size: 0x8, addend: 0x0, symName: __ZNSt3__122__compressed_pair_elemINS_16__hash_node_baseIPNS_11__hash_nodeINS_17__hash_value_typeI5FieldNS_6vectorImNS_9allocatorImEEEEEEPvEEEELi0ELb0EE5__getB7v160006Ev, symObjAddr: 0x3C8D8, symBinAddr: 0x100052E20, symSize: 0xAC }
  - { offsetInCU: 0x2CA30, offset: 0x370D2, size: 0x8, addend: 0x0, symName: __ZNSt3__110unique_ptrIA_PNS_16__hash_node_baseIPNS_11__hash_nodeINS_17__hash_value_typeI5FieldNS_6vectorImNS_9allocatorImEEEEEEPvEEEENS_25__bucket_list_deallocatorINS6_ISE_EEEEED2B7v160006Ev, symObjAddr: 0x3C984, symBinAddr: 0x100052ECC, symSize: 0x7C }
  - { offsetInCU: 0x2CA58, offset: 0x370FA, size: 0x8, addend: 0x0, symName: __ZNSt3__110unique_ptrIA_PNS_16__hash_node_baseIPNS_11__hash_nodeINS_17__hash_value_typeI5FieldNS_6vectorImNS_9allocatorImEEEEEEPvEEEENS_25__bucket_list_deallocatorINS6_ISE_EEEEE5resetB7v160006EDn, symObjAddr: 0x3CA00, symBinAddr: 0x100052F48, symSize: 0x2C0 }
  - { offsetInCU: 0x2CA98, offset: 0x3713A, size: 0x8, addend: 0x0, symName: __ZNSt3__117__compressed_pairIPPNS_16__hash_node_baseIPNS_11__hash_nodeINS_17__hash_value_typeI5FieldNS_6vectorImNS_9allocatorImEEEEEEPvEEEENS_25__bucket_list_deallocatorINS6_ISE_EEEEE5firstB7v160006Ev, symObjAddr: 0x3CCC0, symBinAddr: 0x100053208, symSize: 0x124 }
  - { offsetInCU: 0x2CABD, offset: 0x3715F, size: 0x8, addend: 0x0, symName: __ZNSt3__117__compressed_pairIPPNS_16__hash_node_baseIPNS_11__hash_nodeINS_17__hash_value_typeI5FieldNS_6vectorImNS_9allocatorImEEEEEEPvEEEENS_25__bucket_list_deallocatorINS6_ISE_EEEEE6secondB7v160006Ev, symObjAddr: 0x3CDE4, symBinAddr: 0x10005332C, symSize: 0x12C }
  - { offsetInCU: 0x2CAE2, offset: 0x37184, size: 0x8, addend: 0x0, symName: __ZNSt3__125__bucket_list_deallocatorINS_9allocatorIPNS_16__hash_node_baseIPNS_11__hash_nodeINS_17__hash_value_typeI5FieldNS_6vectorImNS1_ImEEEEEEPvEEEEEEEclB7v160006EPSE_, symObjAddr: 0x3CF10, symBinAddr: 0x100053458, symSize: 0x140 }
  - { offsetInCU: 0x2CB16, offset: 0x371B8, size: 0x8, addend: 0x0, symName: __ZNSt3__122__compressed_pair_elemIPPNS_16__hash_node_baseIPNS_11__hash_nodeINS_17__hash_value_typeI5FieldNS_6vectorImNS_9allocatorImEEEEEEPvEEEELi0ELb0EE5__getB7v160006Ev, symObjAddr: 0x3D050, symBinAddr: 0x100053598, symSize: 0xAC }
  - { offsetInCU: 0x2CB3B, offset: 0x371DD, size: 0x8, addend: 0x0, symName: __ZNSt3__122__compressed_pair_elemINS_25__bucket_list_deallocatorINS_9allocatorIPNS_16__hash_node_baseIPNS_11__hash_nodeINS_17__hash_value_typeI5FieldNS_6vectorImNS2_ImEEEEEEPvEEEEEEEELi1ELb0EE5__getB7v160006Ev, symObjAddr: 0x3D0FC, symBinAddr: 0x100053644, symSize: 0xAC }
  - { offsetInCU: 0x2CB60, offset: 0x37202, size: 0x8, addend: 0x0, symName: __ZNSt3__116allocator_traitsINS_9allocatorIPNS_16__hash_node_baseIPNS_11__hash_nodeINS_17__hash_value_typeI5FieldNS_6vectorImNS1_ImEEEEEEPvEEEEEEE10deallocateB7v160006ERSF_PSE_m, symObjAddr: 0x3D1A8, symBinAddr: 0x1000536F0, symSize: 0x34 }
  - { offsetInCU: 0x2CBA2, offset: 0x37244, size: 0x8, addend: 0x0, symName: __ZNSt3__125__bucket_list_deallocatorINS_9allocatorIPNS_16__hash_node_baseIPNS_11__hash_nodeINS_17__hash_value_typeI5FieldNS_6vectorImNS1_ImEEEEEEPvEEEEEEE7__allocB7v160006Ev, symObjAddr: 0x3D1DC, symBinAddr: 0x100053724, symSize: 0xDC }
  - { offsetInCU: 0x2CBC7, offset: 0x37269, size: 0x8, addend: 0x0, symName: __ZNSt3__125__bucket_list_deallocatorINS_9allocatorIPNS_16__hash_node_baseIPNS_11__hash_nodeINS_17__hash_value_typeI5FieldNS_6vectorImNS1_ImEEEEEEPvEEEEEEE4sizeB7v160006Ev, symObjAddr: 0x3D2B8, symBinAddr: 0x100053800, symSize: 0xF8 }
  - { offsetInCU: 0x2CBEC, offset: 0x3728E, size: 0x8, addend: 0x0, symName: __ZNSt3__19allocatorIPNS_16__hash_node_baseIPNS_11__hash_nodeINS_17__hash_value_typeI5FieldNS_6vectorImNS0_ImEEEEEEPvEEEEE10deallocateB7v160006EPSD_m, symObjAddr: 0x3D3B0, symBinAddr: 0x1000538F8, symSize: 0x78 }
  - { offsetInCU: 0x2CC2D, offset: 0x372CF, size: 0x8, addend: 0x0, symName: __ZNSt3__117__compressed_pairImNS_9allocatorIPNS_16__hash_node_baseIPNS_11__hash_nodeINS_17__hash_value_typeI5FieldNS_6vectorImNS1_ImEEEEEEPvEEEEEEE6secondB7v160006Ev, symObjAddr: 0x3D428, symBinAddr: 0x100053970, symSize: 0x108 }
  - { offsetInCU: 0x2CC52, offset: 0x372F4, size: 0x8, addend: 0x0, symName: __ZNSt3__122__compressed_pair_elemINS_9allocatorIPNS_16__hash_node_baseIPNS_11__hash_nodeINS_17__hash_value_typeI5FieldNS_6vectorImNS1_ImEEEEEEPvEEEEEELi1ELb1EE5__getB7v160006Ev, symObjAddr: 0x3D530, symBinAddr: 0x100053A78, symSize: 0x74 }
  - { offsetInCU: 0x2CC77, offset: 0x37319, size: 0x8, addend: 0x0, symName: __ZNSt3__117__compressed_pairImNS_9allocatorIPNS_16__hash_node_baseIPNS_11__hash_nodeINS_17__hash_value_typeI5FieldNS_6vectorImNS1_ImEEEEEEPvEEEEEEE5firstB7v160006Ev, symObjAddr: 0x3D5A4, symBinAddr: 0x100053AEC, symSize: 0x124 }
  - { offsetInCU: 0x2CC9C, offset: 0x3733E, size: 0x8, addend: 0x0, symName: __ZNSt3__117__hash_value_typeImNS_13unordered_mapI5FieldNS_6vectorImNS_9allocatorImEEEENS_4hashIS2_EENS_8equal_toIS2_EENS4_INS_4pairIKS2_S6_EEEEEEE11__get_valueB7v160006Ev, symObjAddr: 0x3D6C8, symBinAddr: 0x100053C10, symSize: 0xB4 }
  - { offsetInCU: 0x2CCC1, offset: 0x37363, size: 0x8, addend: 0x0, symName: __ZNSt3__19allocatorINS_11__hash_nodeINS_17__hash_value_typeImNS_13unordered_mapI5FieldNS_6vectorImNS0_ImEEEENS_4hashIS4_EENS_8equal_toIS4_EENS0_INS_4pairIKS4_S7_EEEEEEEEPvEEE10deallocateB7v160006EPSJ_m, symObjAddr: 0x3D7B4, symBinAddr: 0x100053CFC, symSize: 0x78 }
  - { offsetInCU: 0x2CD02, offset: 0x373A4, size: 0x8, addend: 0x0, symName: __ZNSt3__122__compressed_pair_elemINS_16__hash_node_baseIPNS_11__hash_nodeINS_17__hash_value_typeImNS_13unordered_mapI5FieldNS_6vectorImNS_9allocatorImEEEENS_4hashIS5_EENS_8equal_toIS5_EENS7_INS_4pairIKS5_S9_EEEEEEEEPvEEEELi0ELb0EE5__getB7v160006Ev, symObjAddr: 0x3D82C, symBinAddr: 0x100053D74, symSize: 0xAC }
  - { offsetInCU: 0x2CD27, offset: 0x373C9, size: 0x8, addend: 0x0, symName: __ZNSt3__110unique_ptrIA_PNS_16__hash_node_baseIPNS_11__hash_nodeINS_17__hash_value_typeImNS_13unordered_mapI5FieldNS_6vectorImNS_9allocatorImEEEENS_4hashIS5_EENS_8equal_toIS5_EENS7_INS_4pairIKS5_S9_EEEEEEEEPvEEEENS_25__bucket_list_deallocatorINS7_ISO_EEEEED2B7v160006Ev, symObjAddr: 0x3D8D8, symBinAddr: 0x100053E20, symSize: 0x7C }
  - { offsetInCU: 0x2CD4F, offset: 0x373F1, size: 0x8, addend: 0x0, symName: __ZNSt3__110unique_ptrIA_PNS_16__hash_node_baseIPNS_11__hash_nodeINS_17__hash_value_typeImNS_13unordered_mapI5FieldNS_6vectorImNS_9allocatorImEEEENS_4hashIS5_EENS_8equal_toIS5_EENS7_INS_4pairIKS5_S9_EEEEEEEEPvEEEENS_25__bucket_list_deallocatorINS7_ISO_EEEEE5resetB7v160006EDn, symObjAddr: 0x3D954, symBinAddr: 0x100053E9C, symSize: 0x2C0 }
  - { offsetInCU: 0x2CD8F, offset: 0x37431, size: 0x8, addend: 0x0, symName: __ZNSt3__117__compressed_pairIPPNS_16__hash_node_baseIPNS_11__hash_nodeINS_17__hash_value_typeImNS_13unordered_mapI5FieldNS_6vectorImNS_9allocatorImEEEENS_4hashIS5_EENS_8equal_toIS5_EENS7_INS_4pairIKS5_S9_EEEEEEEEPvEEEENS_25__bucket_list_deallocatorINS7_ISO_EEEEE5firstB7v160006Ev, symObjAddr: 0x3DC14, symBinAddr: 0x10005415C, symSize: 0x124 }
  - { offsetInCU: 0x2CDB4, offset: 0x37456, size: 0x8, addend: 0x0, symName: __ZNSt3__117__compressed_pairIPPNS_16__hash_node_baseIPNS_11__hash_nodeINS_17__hash_value_typeImNS_13unordered_mapI5FieldNS_6vectorImNS_9allocatorImEEEENS_4hashIS5_EENS_8equal_toIS5_EENS7_INS_4pairIKS5_S9_EEEEEEEEPvEEEENS_25__bucket_list_deallocatorINS7_ISO_EEEEE6secondB7v160006Ev, symObjAddr: 0x3DD38, symBinAddr: 0x100054280, symSize: 0x12C }
  - { offsetInCU: 0x2CDD9, offset: 0x3747B, size: 0x8, addend: 0x0, symName: __ZNSt3__125__bucket_list_deallocatorINS_9allocatorIPNS_16__hash_node_baseIPNS_11__hash_nodeINS_17__hash_value_typeImNS_13unordered_mapI5FieldNS_6vectorImNS1_ImEEEENS_4hashIS6_EENS_8equal_toIS6_EENS1_INS_4pairIKS6_S9_EEEEEEEEPvEEEEEEEclB7v160006EPSO_, symObjAddr: 0x3DE64, symBinAddr: 0x1000543AC, symSize: 0x140 }
  - { offsetInCU: 0x2CE0D, offset: 0x374AF, size: 0x8, addend: 0x0, symName: __ZNSt3__122__compressed_pair_elemIPPNS_16__hash_node_baseIPNS_11__hash_nodeINS_17__hash_value_typeImNS_13unordered_mapI5FieldNS_6vectorImNS_9allocatorImEEEENS_4hashIS5_EENS_8equal_toIS5_EENS7_INS_4pairIKS5_S9_EEEEEEEEPvEEEELi0ELb0EE5__getB7v160006Ev, symObjAddr: 0x3DFA4, symBinAddr: 0x1000544EC, symSize: 0xAC }
  - { offsetInCU: 0x2CE32, offset: 0x374D4, size: 0x8, addend: 0x0, symName: __ZNSt3__122__compressed_pair_elemINS_25__bucket_list_deallocatorINS_9allocatorIPNS_16__hash_node_baseIPNS_11__hash_nodeINS_17__hash_value_typeImNS_13unordered_mapI5FieldNS_6vectorImNS2_ImEEEENS_4hashIS7_EENS_8equal_toIS7_EENS2_INS_4pairIKS7_SA_EEEEEEEEPvEEEEEEEELi1ELb0EE5__getB7v160006Ev, symObjAddr: 0x3E050, symBinAddr: 0x100054598, symSize: 0xAC }
  - { offsetInCU: 0x2CE57, offset: 0x374F9, size: 0x8, addend: 0x0, symName: __ZNSt3__116allocator_traitsINS_9allocatorIPNS_16__hash_node_baseIPNS_11__hash_nodeINS_17__hash_value_typeImNS_13unordered_mapI5FieldNS_6vectorImNS1_ImEEEENS_4hashIS6_EENS_8equal_toIS6_EENS1_INS_4pairIKS6_S9_EEEEEEEEPvEEEEEEE10deallocateB7v160006ERSP_PSO_m, symObjAddr: 0x3E0FC, symBinAddr: 0x100054644, symSize: 0x34 }
  - { offsetInCU: 0x2CE99, offset: 0x3753B, size: 0x8, addend: 0x0, symName: __ZNSt3__125__bucket_list_deallocatorINS_9allocatorIPNS_16__hash_node_baseIPNS_11__hash_nodeINS_17__hash_value_typeImNS_13unordered_mapI5FieldNS_6vectorImNS1_ImEEEENS_4hashIS6_EENS_8equal_toIS6_EENS1_INS_4pairIKS6_S9_EEEEEEEEPvEEEEEEE7__allocB7v160006Ev, symObjAddr: 0x3E130, symBinAddr: 0x100054678, symSize: 0xDC }
  - { offsetInCU: 0x2CEBE, offset: 0x37560, size: 0x8, addend: 0x0, symName: __ZNSt3__125__bucket_list_deallocatorINS_9allocatorIPNS_16__hash_node_baseIPNS_11__hash_nodeINS_17__hash_value_typeImNS_13unordered_mapI5FieldNS_6vectorImNS1_ImEEEENS_4hashIS6_EENS_8equal_toIS6_EENS1_INS_4pairIKS6_S9_EEEEEEEEPvEEEEEEE4sizeB7v160006Ev, symObjAddr: 0x3E20C, symBinAddr: 0x100054754, symSize: 0xF8 }
  - { offsetInCU: 0x2CEE3, offset: 0x37585, size: 0x8, addend: 0x0, symName: __ZNSt3__19allocatorIPNS_16__hash_node_baseIPNS_11__hash_nodeINS_17__hash_value_typeImNS_13unordered_mapI5FieldNS_6vectorImNS0_ImEEEENS_4hashIS5_EENS_8equal_toIS5_EENS0_INS_4pairIKS5_S8_EEEEEEEEPvEEEEE10deallocateB7v160006EPSN_m, symObjAddr: 0x3E304, symBinAddr: 0x10005484C, symSize: 0x78 }
  - { offsetInCU: 0x2CF24, offset: 0x375C6, size: 0x8, addend: 0x0, symName: __ZNSt3__117__compressed_pairImNS_9allocatorIPNS_16__hash_node_baseIPNS_11__hash_nodeINS_17__hash_value_typeImNS_13unordered_mapI5FieldNS_6vectorImNS1_ImEEEENS_4hashIS6_EENS_8equal_toIS6_EENS1_INS_4pairIKS6_S9_EEEEEEEEPvEEEEEEE6secondB7v160006Ev, symObjAddr: 0x3E37C, symBinAddr: 0x1000548C4, symSize: 0x108 }
  - { offsetInCU: 0x2CF49, offset: 0x375EB, size: 0x8, addend: 0x0, symName: __ZNSt3__122__compressed_pair_elemINS_9allocatorIPNS_16__hash_node_baseIPNS_11__hash_nodeINS_17__hash_value_typeImNS_13unordered_mapI5FieldNS_6vectorImNS1_ImEEEENS_4hashIS6_EENS_8equal_toIS6_EENS1_INS_4pairIKS6_S9_EEEEEEEEPvEEEEEELi1ELb1EE5__getB7v160006Ev, symObjAddr: 0x3E484, symBinAddr: 0x1000549CC, symSize: 0x74 }
  - { offsetInCU: 0x2CF6E, offset: 0x37610, size: 0x8, addend: 0x0, symName: __ZNSt3__117__compressed_pairImNS_9allocatorIPNS_16__hash_node_baseIPNS_11__hash_nodeINS_17__hash_value_typeImNS_13unordered_mapI5FieldNS_6vectorImNS1_ImEEEENS_4hashIS6_EENS_8equal_toIS6_EENS1_INS_4pairIKS6_S9_EEEEEEEEPvEEEEEEE5firstB7v160006Ev, symObjAddr: 0x3E4F8, symBinAddr: 0x100054A40, symSize: 0x124 }
  - { offsetInCU: 0x2CF93, offset: 0x37635, size: 0x8, addend: 0x0, symName: __ZNSt3__16vectorINS0_I5FieldNS_9allocatorIS1_EEEENS2_IS4_EEED2B7v160006Ev, symObjAddr: 0x3E61C, symBinAddr: 0x100054B64, symSize: 0x298 }
  - { offsetInCU: 0x2CFBC, offset: 0x3765E, size: 0x8, addend: 0x0, symName: __ZNSt3__16vectorINS0_I5FieldNS_9allocatorIS1_EEEENS2_IS4_EEE16__destroy_vectorC1ERS6_, symObjAddr: 0x3E8B4, symBinAddr: 0x100054DFC, symSize: 0x80 }
  - { offsetInCU: 0x2CFF3, offset: 0x37695, size: 0x8, addend: 0x0, symName: __ZNSt3__16vectorINS0_I5FieldNS_9allocatorIS1_EEEENS2_IS4_EEE16__destroy_vectorclB7v160006Ev, symObjAddr: 0x3E934, symBinAddr: 0x100054E7C, symSize: 0x478 }
  - { offsetInCU: 0x2D018, offset: 0x376BA, size: 0x8, addend: 0x0, symName: __ZNSt3__16vectorINS0_I5FieldNS_9allocatorIS1_EEEENS2_IS4_EEE16__destroy_vectorC2ERS6_, symObjAddr: 0x3EDAC, symBinAddr: 0x1000552F4, symSize: 0x108 }
  - { offsetInCU: 0x2D04F, offset: 0x376F1, size: 0x8, addend: 0x0, symName: __ZNKSt3__16vectorINS0_I5FieldNS_9allocatorIS1_EEEENS2_IS4_EEE17__annotate_deleteB7v160006Ev, symObjAddr: 0x3EEB4, symBinAddr: 0x1000553FC, symSize: 0x388 }
  - { offsetInCU: 0x2D074, offset: 0x37716, size: 0x8, addend: 0x0, symName: __ZNSt3__16vectorINS0_I5FieldNS_9allocatorIS1_EEEENS2_IS4_EEE7__clearB7v160006Ev, symObjAddr: 0x3F24C, symBinAddr: 0x100055794, symSize: 0xB0 }
  - { offsetInCU: 0x2D099, offset: 0x3773B, size: 0x8, addend: 0x0, symName: __ZNSt3__116allocator_traitsINS_9allocatorINS_6vectorI5FieldNS1_IS3_EEEEEEE10deallocateB7v160006ERS6_PS5_m, symObjAddr: 0x3F2FC, symBinAddr: 0x100055844, symSize: 0x34 }
  - { offsetInCU: 0x2D0DB, offset: 0x3777D, size: 0x8, addend: 0x0, symName: __ZNSt3__16vectorINS0_I5FieldNS_9allocatorIS1_EEEENS2_IS4_EEE7__allocB7v160006Ev, symObjAddr: 0x3F330, symBinAddr: 0x100055878, symSize: 0xE4 }
  - { offsetInCU: 0x2D100, offset: 0x377A2, size: 0x8, addend: 0x0, symName: __ZNKSt3__16vectorINS0_I5FieldNS_9allocatorIS1_EEEENS2_IS4_EEE8capacityB7v160006Ev, symObjAddr: 0x3F414, symBinAddr: 0x10005595C, symSize: 0x144 }
  - { offsetInCU: 0x2D125, offset: 0x377C7, size: 0x8, addend: 0x0, symName: __ZNKSt3__16vectorINS0_I5FieldNS_9allocatorIS1_EEEENS2_IS4_EEE31__annotate_contiguous_containerEPKvS8_S8_S8_, symObjAddr: 0x3F558, symBinAddr: 0x100055AA0, symSize: 0x9C }
  - { offsetInCU: 0x2D186, offset: 0x37828, size: 0x8, addend: 0x0, symName: __ZNKSt3__16vectorINS0_I5FieldNS_9allocatorIS1_EEEENS2_IS4_EEE4dataB7v160006Ev, symObjAddr: 0x3F5F4, symBinAddr: 0x100055B3C, symSize: 0xB0 }
  - { offsetInCU: 0x2D1AB, offset: 0x3784D, size: 0x8, addend: 0x0, symName: __ZNSt3__16vectorINS0_I5FieldNS_9allocatorIS1_EEEENS2_IS4_EEE22__base_destruct_at_endB7v160006EPS4_, symObjAddr: 0x3F6B8, symBinAddr: 0x100055C00, symSize: 0x1FC }
  - { offsetInCU: 0x2D1EE, offset: 0x37890, size: 0x8, addend: 0x0, symName: __ZNSt3__116allocator_traitsINS_9allocatorINS_6vectorI5FieldNS1_IS3_EEEEEEE7destroyB7v160006IS5_vEEvRS6_PT_, symObjAddr: 0x3F8B4, symBinAddr: 0x100055DFC, symSize: 0x2C }
  - { offsetInCU: 0x2D22C, offset: 0x378CE, size: 0x8, addend: 0x0, symName: __ZNSt3__19allocatorINS_6vectorI5FieldNS0_IS2_EEEEE7destroyB7v160006EPS4_, symObjAddr: 0x3F8E0, symBinAddr: 0x100055E28, symSize: 0x9C }
  - { offsetInCU: 0x2D25F, offset: 0x37901, size: 0x8, addend: 0x0, symName: __ZNSt3__19allocatorINS_6vectorI5FieldNS0_IS2_EEEEE10deallocateB7v160006EPS4_m, symObjAddr: 0x3F97C, symBinAddr: 0x100055EC4, symSize: 0x7C }
  - { offsetInCU: 0x2D2A0, offset: 0x37942, size: 0x8, addend: 0x0, symName: __ZNSt3__117__compressed_pairIPNS_6vectorI5FieldNS_9allocatorIS2_EEEENS3_IS5_EEE6secondB7v160006Ev, symObjAddr: 0x3F9F8, symBinAddr: 0x100055F40, symSize: 0x108 }
  - { offsetInCU: 0x2D2C5, offset: 0x37967, size: 0x8, addend: 0x0, symName: __ZNSt3__122__compressed_pair_elemINS_9allocatorINS_6vectorI5FieldNS1_IS3_EEEEEELi1ELb1EE5__getB7v160006Ev, symObjAddr: 0x3FB00, symBinAddr: 0x100056048, symSize: 0x74 }
  - { offsetInCU: 0x2D2EA, offset: 0x3798C, size: 0x8, addend: 0x0, symName: __ZNKSt3__16vectorINS0_I5FieldNS_9allocatorIS1_EEEENS2_IS4_EEE9__end_capB7v160006Ev, symObjAddr: 0x3FB74, symBinAddr: 0x1000560BC, symSize: 0x100 }
  - { offsetInCU: 0x2D30F, offset: 0x379B1, size: 0x8, addend: 0x0, symName: __ZNKSt3__117__compressed_pairIPNS_6vectorI5FieldNS_9allocatorIS2_EEEENS3_IS5_EEE5firstB7v160006Ev, symObjAddr: 0x3FC74, symBinAddr: 0x1000561BC, symSize: 0x124 }
  - { offsetInCU: 0x2D334, offset: 0x379D6, size: 0x8, addend: 0x0, symName: __ZNKSt3__122__compressed_pair_elemIPNS_6vectorI5FieldNS_9allocatorIS2_EEEELi0ELb0EE5__getB7v160006Ev, symObjAddr: 0x3FD98, symBinAddr: 0x1000562E0, symSize: 0xAC }
  - { offsetInCU: 0x2D359, offset: 0x379FB, size: 0x8, addend: 0x0, symName: __ZNKSt3__111__wrap_iterIPNS_4pairIiNS_12basic_stringIcNS_11char_traitsIcEENS_9allocatorIcEEEEEEE4baseB7v160006Ev, symObjAddr: 0x3FEE0, symBinAddr: 0x100056428, symSize: 0xAC }
  - { offsetInCU: 0x2D37E, offset: 0x37A20, size: 0x8, addend: 0x0, symName: __ZNSt3__16vectorINS_12basic_stringIcNS_11char_traitsIcEENS_9allocatorIcEEEENS4_IS6_EEED2B7v160006Ev, symObjAddr: 0x3FF8C, symBinAddr: 0x1000564D4, symSize: 0x298 }
  - { offsetInCU: 0x2D3A7, offset: 0x37A49, size: 0x8, addend: 0x0, symName: __ZNSt3__16vectorI10ColumnTypeNS_9allocatorIS1_EEED2B7v160006Ev, symObjAddr: 0x40224, symBinAddr: 0x10005676C, symSize: 0x298 }
  - { offsetInCU: 0x2D3D0, offset: 0x37A72, size: 0x8, addend: 0x0, symName: __ZNSt3__112__hash_tableINS_17__hash_value_typeINS_12basic_stringIcNS_11char_traitsIcEENS_9allocatorIcEEEEP5TableEENS_22__unordered_map_hasherIS7_SA_NS_4hashIS7_EENS_8equal_toIS7_EELb1EEENS_21__unordered_map_equalIS7_SA_SF_SD_Lb1EEENS5_ISA_EEE3endEv, symObjAddr: 0x404BC, symBinAddr: 0x100056A04, symSize: 0x248 }
  - { offsetInCU: 0x2D41B, offset: 0x37ABD, size: 0x8, addend: 0x0, symName: __ZNSt3__112basic_stringIcNS_11char_traitsIcEENS_9allocatorIcEEEC2B7v160006Ev, symObjAddr: 0x451FC, symBinAddr: 0x100056E24, symSize: 0x27C }
  - { offsetInCU: 0x2D462, offset: 0x37B04, size: 0x8, addend: 0x0, symName: __ZNKSt3__113basic_istreamIcNS_11char_traitsIcEEE6sentrycvbB7v160006Ev, symObjAddr: 0x4572C, symBinAddr: 0x1000570A0, symSize: 0xE8 }
  - { offsetInCU: 0x2D487, offset: 0x37B29, size: 0x8, addend: 0x0, symName: __ZNSt3__112basic_stringIcNS_11char_traitsIcEENS_9allocatorIcEEE5clearB7v160006Ev, symObjAddr: 0x45814, symBinAddr: 0x100057188, symSize: 0x3B4 }
  - { offsetInCU: 0x2D4AF, offset: 0x37B51, size: 0x8, addend: 0x0, symName: __ZNKSt3__112basic_stringIcNS_11char_traitsIcEENS_9allocatorIcEEE8max_sizeB7v160006Ev, symObjAddr: 0x45BC8, symBinAddr: 0x10005753C, symSize: 0x1B8 }
  - { offsetInCU: 0x2D501, offset: 0x37BA3, size: 0x8, addend: 0x0, symName: __ZNSt3__115basic_streambufIcNS_11char_traitsIcEEE5sgetcB7v160006Ev, symObjAddr: 0x45D80, symBinAddr: 0x1000576F4, symSize: 0x418 }
  - { offsetInCU: 0x2D526, offset: 0x37BC8, size: 0x8, addend: 0x0, symName: __ZNSt3__111char_traitsIcE12to_char_typeEi, symObjAddr: 0x46198, symBinAddr: 0x100057B0C, symSize: 0x18 }
  - { offsetInCU: 0x2D549, offset: 0x37BEB, size: 0x8, addend: 0x0, symName: __ZNKSt3__15ctypeIcE2isB7v160006Ejc, symObjAddr: 0x461B0, symBinAddr: 0x100057B24, symSize: 0x314 }
  - { offsetInCU: 0x2D58C, offset: 0x37C2E, size: 0x8, addend: 0x0, symName: __ZNSt3__115basic_streambufIcNS_11char_traitsIcEEE6sbumpcB7v160006Ev, symObjAddr: 0x464C4, symBinAddr: 0x100057E38, symSize: 0x4D8 }
  - { offsetInCU: 0x2D5B1, offset: 0x37C53, size: 0x8, addend: 0x0, symName: __ZNSt3__18ios_base18__setstate_nothrowB7v160006Ej, symObjAddr: 0x4699C, symBinAddr: 0x100058310, symSize: 0x320 }
  - { offsetInCU: 0x2D5E5, offset: 0x37C87, size: 0x8, addend: 0x0, symName: __ZNKSt3__19basic_iosIcNS_11char_traitsIcEEE10exceptionsB7v160006Ev, symObjAddr: 0x46CBC, symBinAddr: 0x100058630, symSize: 0x120 }
  - { offsetInCU: 0x2D60A, offset: 0x37CAC, size: 0x8, addend: 0x0, symName: __ZNSt3__111char_traitsIcE6assignERcRKc, symObjAddr: 0x46DEC, symBinAddr: 0x100058760, symSize: 0xF4 }
  - { offsetInCU: 0x2D63B, offset: 0x37CDD, size: 0x8, addend: 0x0, symName: __ZNSt3__112basic_stringIcNS_11char_traitsIcEENS_9allocatorIcEEE15__set_long_sizeB7v160006Em, symObjAddr: 0x46EE0, symBinAddr: 0x100058854, symSize: 0x220 }
  - { offsetInCU: 0x2D66F, offset: 0x37D11, size: 0x8, addend: 0x0, symName: __ZNSt3__112basic_stringIcNS_11char_traitsIcEENS_9allocatorIcEEE16__set_short_sizeB7v160006Em, symObjAddr: 0x47100, symBinAddr: 0x100058A74, symSize: 0x394 }
  - { offsetInCU: 0x2D6AD, offset: 0x37D4F, size: 0x8, addend: 0x0, symName: __ZNSt3__116allocator_traitsINS_9allocatorIcEEE8max_sizeB7v160006IS2_vEEmRKS2_, symObjAddr: 0x47494, symBinAddr: 0x100058E08, symSize: 0x24 }
  - { offsetInCU: 0x2D6DC, offset: 0x37D7E, size: 0x8, addend: 0x0, symName: __ZNKSt3__112basic_stringIcNS_11char_traitsIcEENS_9allocatorIcEEE7__allocB7v160006Ev, symObjAddr: 0x474B8, symBinAddr: 0x100058E2C, symSize: 0xDC }
  - { offsetInCU: 0x2D701, offset: 0x37DA3, size: 0x8, addend: 0x0, symName: __ZNSt3__114numeric_limitsImE3maxB7v160006Ev, symObjAddr: 0x47594, symBinAddr: 0x100058F08, symSize: 0x14 }
  - { offsetInCU: 0x2D715, offset: 0x37DB7, size: 0x8, addend: 0x0, symName: __ZNKSt3__19allocatorIcE8max_sizeB7v160006Ev, symObjAddr: 0x475A8, symBinAddr: 0x100058F1C, symSize: 0x4C }
  - { offsetInCU: 0x2D73A, offset: 0x37DDC, size: 0x8, addend: 0x0, symName: __ZNKSt3__117__compressed_pairINS_12basic_stringIcNS_11char_traitsIcEENS_9allocatorIcEEE5__repES5_E6secondB7v160006Ev, symObjAddr: 0x475F4, symBinAddr: 0x100058F68, symSize: 0x108 }
  - { offsetInCU: 0x2D75F, offset: 0x37E01, size: 0x8, addend: 0x0, symName: __ZNKSt3__122__compressed_pair_elemINS_9allocatorIcEELi1ELb1EE5__getB7v160006Ev, symObjAddr: 0x476FC, symBinAddr: 0x100059070, symSize: 0x74 }
  - { offsetInCU: 0x2D784, offset: 0x37E26, size: 0x8, addend: 0x0, symName: __ZNSt3__123__libcpp_numeric_limitsImLb1EE3maxB7v160006Ev, symObjAddr: 0x47770, symBinAddr: 0x1000590E4, symSize: 0x8 }
  - { offsetInCU: 0x2D798, offset: 0x37E3A, size: 0x8, addend: 0x0, symName: __ZNSt3__111char_traitsIcE11to_int_typeEc, symObjAddr: 0x47778, symBinAddr: 0x1000590EC, symSize: 0x14 }
  - { offsetInCU: 0x2D7BA, offset: 0x37E5C, size: 0x8, addend: 0x0, symName: __Z7isasciii, symObjAddr: 0x4778C, symBinAddr: 0x100059100, symSize: 0x24 }
  - { offsetInCU: 0x2D7E7, offset: 0x37E89, size: 0x8, addend: 0x0, symName: __ZNKSt3__18ios_base10exceptionsB7v160006Ev, symObjAddr: 0x477B0, symBinAddr: 0x100059124, symSize: 0x160 }
  - { offsetInCU: 0x2D80E, offset: 0x37EB0, size: 0x8, addend: 0x0, symName: __ZNKSt3__19basic_iosIcNS_11char_traitsIcEEE4failB7v160006Ev, symObjAddr: 0x47910, symBinAddr: 0x100059284, symSize: 0x124 }
  - { offsetInCU: 0x2D833, offset: 0x37ED5, size: 0x8, addend: 0x0, symName: __ZNKSt3__18ios_base4failB7v160006Ev, symObjAddr: 0x47A34, symBinAddr: 0x1000593A8, symSize: 0x170 }
  - { offsetInCU: 0x2D85A, offset: 0x37EFC, size: 0x8, addend: 0x0, symName: __ZNSt3__111char_traitsIcE2eqEcc, symObjAddr: 0x48EEC, symBinAddr: 0x10005A3C0, symSize: 0x28 }
  - { offsetInCU: 0x2D88B, offset: 0x37F2D, size: 0x8, addend: 0x0, symName: __ZNSt3__16vectorINS_12basic_stringIcNS_11char_traitsIcEENS_9allocatorIcEEEENS4_IS6_EEEC2Em, symObjAddr: 0x48F14, symBinAddr: 0x10005A3E8, symSize: 0x524 }
  - { offsetInCU: 0x2D8E0, offset: 0x37F82, size: 0x8, addend: 0x0, symName: __ZNSt3__117__compressed_pairIPNS_12basic_stringIcNS_11char_traitsIcEENS_9allocatorIcEEEENS4_IS6_EEEC1B7v160006IDnNS_18__default_init_tagEEEOT_OT0_, symObjAddr: 0x49438, symBinAddr: 0x10005A90C, symSize: 0x88 }
  - { offsetInCU: 0x2D936, offset: 0x37FD8, size: 0x8, addend: 0x0, symName: __ZNSt3__16vectorINS_12basic_stringIcNS_11char_traitsIcEENS_9allocatorIcEEEENS4_IS6_EEE18__construct_at_endEm, symObjAddr: 0x494C0, symBinAddr: 0x10005A994, symSize: 0x5A0 }
  - { offsetInCU: 0x2D9B0, offset: 0x38052, size: 0x8, addend: 0x0, symName: __ZNSt3__117__compressed_pairIPNS_12basic_stringIcNS_11char_traitsIcEENS_9allocatorIcEEEENS4_IS6_EEEC2B7v160006IDnNS_18__default_init_tagEEEOT_OT0_, symObjAddr: 0x49A60, symBinAddr: 0x10005AF34, symSize: 0x140 }
  - { offsetInCU: 0x2DA06, offset: 0x380A8, size: 0x8, addend: 0x0, symName: __ZNSt3__122__compressed_pair_elemINS_9allocatorINS_12basic_stringIcNS_11char_traitsIcEENS1_IcEEEEEELi1ELb1EEC2B7v160006ENS_18__default_init_tagE, symObjAddr: 0x49BA0, symBinAddr: 0x10005B074, symSize: 0x84 }
  - { offsetInCU: 0x2DA39, offset: 0x380DB, size: 0x8, addend: 0x0, symName: __ZNSt3__19allocatorINS_12basic_stringIcNS_11char_traitsIcEENS0_IcEEEEEC2B7v160006Ev, symObjAddr: 0x49C24, symBinAddr: 0x10005B0F8, symSize: 0x84 }
  - { offsetInCU: 0x2DA61, offset: 0x38103, size: 0x8, addend: 0x0, symName: __ZNSt3__116__non_trivial_ifILb1ENS_9allocatorINS_12basic_stringIcNS_11char_traitsIcEENS1_IcEEEEEEEC2B7v160006Ev, symObjAddr: 0x49CA8, symBinAddr: 0x10005B17C, symSize: 0x54 }
  - { offsetInCU: 0x2DA89, offset: 0x3812B, size: 0x8, addend: 0x0, symName: __ZNSt3__116allocator_traitsINS_9allocatorINS_12basic_stringIcNS_11char_traitsIcEENS1_IcEEEEEEE9constructB7v160006IS6_JEvEEvRS7_PT_DpOT0_, symObjAddr: 0x49CFC, symBinAddr: 0x10005B1D0, symSize: 0x2C }
  - { offsetInCU: 0x2DACD, offset: 0x3816F, size: 0x8, addend: 0x0, symName: __ZNSt3__19allocatorINS_12basic_stringIcNS_11char_traitsIcEENS0_IcEEEEE9constructB7v160006IS5_JEEEvPT_DpOT0_, symObjAddr: 0x49D28, symBinAddr: 0x10005B1FC, symSize: 0x9C }
  - { offsetInCU: 0x2DB0F, offset: 0x381B1, size: 0x8, addend: 0x0, symName: __ZNSt3__16vectorI10ColumnTypeNS_9allocatorIS1_EEEC2Em, symObjAddr: 0x49DC4, symBinAddr: 0x10005B298, symSize: 0x524 }
  - { offsetInCU: 0x2DB64, offset: 0x38206, size: 0x8, addend: 0x0, symName: __ZNSt3__117__compressed_pairIP10ColumnTypeNS_9allocatorIS1_EEEC1B7v160006IDnNS_18__default_init_tagEEEOT_OT0_, symObjAddr: 0x4A2E8, symBinAddr: 0x10005B7BC, symSize: 0x88 }
  - { offsetInCU: 0x2DBBA, offset: 0x3825C, size: 0x8, addend: 0x0, symName: __ZNSt3__16vectorI10ColumnTypeNS_9allocatorIS1_EEE18__construct_at_endEm, symObjAddr: 0x4A370, symBinAddr: 0x10005B844, symSize: 0x5A0 }
  - { offsetInCU: 0x2DC34, offset: 0x382D6, size: 0x8, addend: 0x0, symName: __ZNSt3__117__compressed_pairIP10ColumnTypeNS_9allocatorIS1_EEEC2B7v160006IDnNS_18__default_init_tagEEEOT_OT0_, symObjAddr: 0x4A910, symBinAddr: 0x10005BDE4, symSize: 0x140 }
  - { offsetInCU: 0x2DC8A, offset: 0x3832C, size: 0x8, addend: 0x0, symName: __ZNSt3__122__compressed_pair_elemINS_9allocatorI10ColumnTypeEELi1ELb1EEC2B7v160006ENS_18__default_init_tagE, symObjAddr: 0x4AA50, symBinAddr: 0x10005BF24, symSize: 0x84 }
  - { offsetInCU: 0x2DCBD, offset: 0x3835F, size: 0x8, addend: 0x0, symName: __ZNSt3__19allocatorI10ColumnTypeEC2B7v160006Ev, symObjAddr: 0x4AAD4, symBinAddr: 0x10005BFA8, symSize: 0x84 }
  - { offsetInCU: 0x2DCE5, offset: 0x38387, size: 0x8, addend: 0x0, symName: __ZNSt3__116__non_trivial_ifILb1ENS_9allocatorI10ColumnTypeEEEC2B7v160006Ev, symObjAddr: 0x4AB58, symBinAddr: 0x10005C02C, symSize: 0x54 }
  - { offsetInCU: 0x2DD0D, offset: 0x383AF, size: 0x8, addend: 0x0, symName: __ZNSt3__116allocator_traitsINS_9allocatorI10ColumnTypeEEE9constructB7v160006IS2_JEvEEvRS3_PT_DpOT0_, symObjAddr: 0x4ABAC, symBinAddr: 0x10005C080, symSize: 0x2C }
  - { offsetInCU: 0x2DD51, offset: 0x383F3, size: 0x8, addend: 0x0, symName: __ZNSt3__19allocatorI10ColumnTypeE9constructB7v160006IS1_JEEEvPT_DpOT0_, symObjAddr: 0x4ABD8, symBinAddr: 0x10005C0AC, symSize: 0xE4 }
  - { offsetInCU: 0x2DD93, offset: 0x38435, size: 0x8, addend: 0x0, symName: __ZNSt3__112__hash_tableINS_17__hash_value_typeINS_12basic_stringIcNS_11char_traitsIcEENS_9allocatorIcEEEEP5TableEENS_22__unordered_map_hasherIS7_SA_NS_4hashIS7_EENS_8equal_toIS7_EELb1EEENS_21__unordered_map_equalIS7_SA_SF_SD_Lb1EEENS5_ISA_EEE4findIS7_EENS_15__hash_iteratorIPNS_11__hash_nodeISA_PvEEEERKT_, symObjAddr: 0x4ACBC, symBinAddr: 0x10005C190, symSize: 0x8EC }
  - { offsetInCU: 0x2DE1A, offset: 0x384BC, size: 0x8, addend: 0x0, symName: __ZNSt3__112__hash_tableINS_17__hash_value_typeINS_12basic_stringIcNS_11char_traitsIcEENS_9allocatorIcEEEEP5TableEENS_22__unordered_map_hasherIS7_SA_NS_4hashIS7_EENS_8equal_toIS7_EELb1EEENS_21__unordered_map_equalIS7_SA_SF_SD_Lb1EEENS5_ISA_EEE13hash_functionB7v160006Ev, symObjAddr: 0x4B5A8, symBinAddr: 0x10005CA7C, symSize: 0xE4 }
  - { offsetInCU: 0x2DE3F, offset: 0x384E1, size: 0x8, addend: 0x0, symName: __ZNKSt3__122__unordered_map_hasherINS_12basic_stringIcNS_11char_traitsIcEENS_9allocatorIcEEEENS_17__hash_value_typeIS6_P5TableEENS_4hashIS6_EENS_8equal_toIS6_EELb1EEclB7v160006ERKS6_, symObjAddr: 0x4B68C, symBinAddr: 0x10005CB60, symSize: 0xC8 }
  - { offsetInCU: 0x2DE73, offset: 0x38515, size: 0x8, addend: 0x0, symName: __ZNKSt3__116__hash_node_baseIPNS_11__hash_nodeINS_17__hash_value_typeINS_12basic_stringIcNS_11char_traitsIcEENS_9allocatorIcEEEEP5TableEEPvEEE6__hashB7v160006Ev, symObjAddr: 0x4B830, symBinAddr: 0x10005CD04, symSize: 0x180 }
  - { offsetInCU: 0x2DE98, offset: 0x3853A, size: 0x8, addend: 0x0, symName: __ZNSt3__112__hash_tableINS_17__hash_value_typeINS_12basic_stringIcNS_11char_traitsIcEENS_9allocatorIcEEEEP5TableEENS_22__unordered_map_hasherIS7_SA_NS_4hashIS7_EENS_8equal_toIS7_EELb1EEENS_21__unordered_map_equalIS7_SA_SF_SD_Lb1EEENS5_ISA_EEE6key_eqB7v160006Ev, symObjAddr: 0x4B9B0, symBinAddr: 0x10005CE84, symSize: 0xE4 }
  - { offsetInCU: 0x2DEBD, offset: 0x3855F, size: 0x8, addend: 0x0, symName: __ZNKSt3__121__unordered_map_equalINS_12basic_stringIcNS_11char_traitsIcEENS_9allocatorIcEEEENS_17__hash_value_typeIS6_P5TableEENS_8equal_toIS6_EENS_4hashIS6_EELb1EEclB7v160006ERKSA_RKS6_, symObjAddr: 0x4BA94, symBinAddr: 0x10005CF68, symSize: 0x190 }
  - { offsetInCU: 0x2DF00, offset: 0x385A2, size: 0x8, addend: 0x0, symName: __ZNSt3__117__compressed_pairImNS_22__unordered_map_hasherINS_12basic_stringIcNS_11char_traitsIcEENS_9allocatorIcEEEENS_17__hash_value_typeIS7_P5TableEENS_4hashIS7_EENS_8equal_toIS7_EELb1EEEE6secondB7v160006Ev, symObjAddr: 0x4BC24, symBinAddr: 0x10005D0F8, symSize: 0x108 }
  - { offsetInCU: 0x2DF25, offset: 0x385C7, size: 0x8, addend: 0x0, symName: __ZNSt3__122__compressed_pair_elemINS_22__unordered_map_hasherINS_12basic_stringIcNS_11char_traitsIcEENS_9allocatorIcEEEENS_17__hash_value_typeIS7_P5TableEENS_4hashIS7_EENS_8equal_toIS7_EELb1EEELi1ELb1EE5__getB7v160006Ev, symObjAddr: 0x4BD2C, symBinAddr: 0x10005D200, symSize: 0x74 }
  - { offsetInCU: 0x2DF4F, offset: 0x385F1, size: 0x8, addend: 0x0, symName: __ZNSt3__117__compressed_pairIfNS_21__unordered_map_equalINS_12basic_stringIcNS_11char_traitsIcEENS_9allocatorIcEEEENS_17__hash_value_typeIS7_P5TableEENS_8equal_toIS7_EENS_4hashIS7_EELb1EEEE6secondB7v160006Ev, symObjAddr: 0x51204, symBinAddr: 0x10005D274, symSize: 0x108 }
  - { offsetInCU: 0x2DF74, offset: 0x38616, size: 0x8, addend: 0x0, symName: __ZNSt3__122__compressed_pair_elemINS_21__unordered_map_equalINS_12basic_stringIcNS_11char_traitsIcEENS_9allocatorIcEEEENS_17__hash_value_typeIS7_P5TableEENS_8equal_toIS7_EENS_4hashIS7_EELb1EEELi1ELb1EE5__getB7v160006Ev, symObjAddr: 0x5130C, symBinAddr: 0x10005D37C, symSize: 0x74 }
  - { offsetInCU: 0x2DF99, offset: 0x3863B, size: 0x8, addend: 0x0, symName: __ZNKSt3__117__hash_value_typeINS_12basic_stringIcNS_11char_traitsIcEENS_9allocatorIcEEEEP5TableE11__get_valueB7v160006Ev, symObjAddr: 0x51470, symBinAddr: 0x10005D3F0, symSize: 0xB4 }
  - { offsetInCU: 0x2DFD2, offset: 0x38674, size: 0x8, addend: 0x0, symName: __ZNSt3__112__hash_tableINS_17__hash_value_typeINS_12basic_stringIcNS_11char_traitsIcEENS_9allocatorIcEEEEP5TableEENS_22__unordered_map_hasherIS7_SA_NS_4hashIS7_EENS_8equal_toIS7_EELb1EEENS_21__unordered_map_equalIS7_SA_SF_SD_Lb1EEENS5_ISA_EEE25__emplace_unique_key_argsIS7_JRKNS_21piecewise_construct_tENS_5tupleIJRKS7_EEENSP_IJEEEEEENS_4pairINS_15__hash_iteratorIPNS_11__hash_nodeISA_PvEEEEbEERKT_DpOT0_, symObjAddr: 0x51A60, symBinAddr: 0x10005D4DC, symSize: 0x1D24 }
  - { offsetInCU: 0x2E0E6, offset: 0x38788, size: 0x8, addend: 0x0, symName: __ZNSt3__112__hash_tableINS_17__hash_value_typeINS_12basic_stringIcNS_11char_traitsIcEENS_9allocatorIcEEEEP5TableEENS_22__unordered_map_hasherIS7_SA_NS_4hashIS7_EENS_8equal_toIS7_EELb1EEENS_21__unordered_map_equalIS7_SA_SF_SD_Lb1EEENS5_ISA_EEE21__construct_node_hashIRKNS_21piecewise_construct_tEJNS_5tupleIJRKS7_EEENSP_IJEEEEEENS_10unique_ptrINS_11__hash_nodeISA_PvEENS_22__hash_node_destructorINS5_ISX_EEEEEEmOT_DpOT0_, symObjAddr: 0x539CC, symBinAddr: 0x10005F448, symSize: 0x944 }
  - { offsetInCU: 0x2E189, offset: 0x3882B, size: 0x8, addend: 0x0, symName: __ZNSt3__112__hash_tableINS_17__hash_value_typeINS_12basic_stringIcNS_11char_traitsIcEENS_9allocatorIcEEEEP5TableEENS_22__unordered_map_hasherIS7_SA_NS_4hashIS7_EENS_8equal_toIS7_EELb1EEENS_21__unordered_map_equalIS7_SA_SF_SD_Lb1EEENS5_ISA_EEE15max_load_factorB7v160006Ev, symObjAddr: 0x54310, symBinAddr: 0x10005FD8C, symSize: 0x100 }
  - { offsetInCU: 0x2E1AE, offset: 0x38850, size: 0x8, addend: 0x0, symName: __ZNSt3__112__hash_tableINS_17__hash_value_typeINS_12basic_stringIcNS_11char_traitsIcEENS_9allocatorIcEEEEP5TableEENS_22__unordered_map_hasherIS7_SA_NS_4hashIS7_EENS_8equal_toIS7_EELb1EEENS_21__unordered_map_equalIS7_SA_SF_SD_Lb1EEENS5_ISA_EEE15__rehash_uniqueB7v160006Em, symObjAddr: 0x54410, symBinAddr: 0x10005FE8C, symSize: 0x74 }
  - { offsetInCU: 0x2E1E1, offset: 0x38883, size: 0x8, addend: 0x0, symName: __Z4ceilB7v160006f, symObjAddr: 0x545D8, symBinAddr: 0x100060054, symSize: 0x18 }
  - { offsetInCU: 0x2E211, offset: 0x388B3, size: 0x8, addend: 0x0, symName: __ZNSt3__116__hash_node_baseIPNS_11__hash_nodeINS_17__hash_value_typeINS_12basic_stringIcNS_11char_traitsIcEENS_9allocatorIcEEEEP5TableEEPvEEE5__ptrB7v160006Ev, symObjAddr: 0x545F0, symBinAddr: 0x10006006C, symSize: 0xB0 }
  - { offsetInCU: 0x2E236, offset: 0x388D8, size: 0x8, addend: 0x0, symName: __ZNKSt3__110unique_ptrINS_11__hash_nodeINS_17__hash_value_typeINS_12basic_stringIcNS_11char_traitsIcEENS_9allocatorIcEEEEP5TableEEPvEENS_22__hash_node_destructorINS6_ISD_EEEEEptB7v160006Ev, symObjAddr: 0x546A0, symBinAddr: 0x10006011C, symSize: 0x13C }
  - { offsetInCU: 0x2E25B, offset: 0x388FD, size: 0x8, addend: 0x0, symName: __ZNKSt3__110unique_ptrINS_11__hash_nodeINS_17__hash_value_typeINS_12basic_stringIcNS_11char_traitsIcEENS_9allocatorIcEEEEP5TableEEPvEENS_22__hash_node_destructorINS6_ISD_EEEEE3getB7v160006Ev, symObjAddr: 0x547DC, symBinAddr: 0x100060258, symSize: 0x13C }
  - { offsetInCU: 0x2E280, offset: 0x38922, size: 0x8, addend: 0x0, symName: __ZNSt3__110unique_ptrINS_11__hash_nodeINS_17__hash_value_typeINS_12basic_stringIcNS_11char_traitsIcEENS_9allocatorIcEEEEP5TableEEPvEENS_22__hash_node_destructorINS6_ISD_EEEEE7releaseB7v160006Ev, symObjAddr: 0x54918, symBinAddr: 0x100060394, symSize: 0x20C }
  - { offsetInCU: 0x2E2B4, offset: 0x38956, size: 0x8, addend: 0x0, symName: __ZNSt3__110unique_ptrINS_11__hash_nodeINS_17__hash_value_typeINS_12basic_stringIcNS_11char_traitsIcEENS_9allocatorIcEEEEP5TableEEPvEENS_22__hash_node_destructorINS6_ISD_EEEEED1B7v160006Ev, symObjAddr: 0x54B24, symBinAddr: 0x1000605A0, symSize: 0x78 }
  - { offsetInCU: 0x2E2E1, offset: 0x38983, size: 0x8, addend: 0x0, symName: __ZNSt3__14pairINS_15__hash_iteratorIPNS_11__hash_nodeINS_17__hash_value_typeINS_12basic_stringIcNS_11char_traitsIcEENS_9allocatorIcEEEEP5TableEEPvEEEEbEC1B7v160006ISG_RbLSD_0EEEOT_OT0_, symObjAddr: 0x54B9C, symBinAddr: 0x100060618, symSize: 0x88 }
  - { offsetInCU: 0x2E33D, offset: 0x389DF, size: 0x8, addend: 0x0, symName: __ZNSt3__116allocator_traitsINS_9allocatorINS_11__hash_nodeINS_17__hash_value_typeINS_12basic_stringIcNS_11char_traitsIcEENS1_IcEEEEP5TableEEPvEEEEE8allocateB7v160006ERSE_m, symObjAddr: 0x54C24, symBinAddr: 0x1000606A0, symSize: 0x2C }
  - { offsetInCU: 0x2E370, offset: 0x38A12, size: 0x8, addend: 0x0, symName: __ZNSt3__122__hash_node_destructorINS_9allocatorINS_11__hash_nodeINS_17__hash_value_typeINS_12basic_stringIcNS_11char_traitsIcEENS1_IcEEEEP5TableEEPvEEEEEC1B7v160006ERSE_b, symObjAddr: 0x54C50, symBinAddr: 0x1000606CC, symSize: 0xCC }
  - { offsetInCU: 0x2E3BB, offset: 0x38A5D, size: 0x8, addend: 0x0, symName: __ZNSt3__110unique_ptrINS_11__hash_nodeINS_17__hash_value_typeINS_12basic_stringIcNS_11char_traitsIcEENS_9allocatorIcEEEEP5TableEEPvEENS_22__hash_node_destructorINS6_ISD_EEEEEC1B7v160006ILb1EvEEPSD_NS_16__dependent_typeINS_27__unique_ptr_deleter_sfinaeISG_EEXT_EE20__good_rval_ref_typeE, symObjAddr: 0x54D1C, symBinAddr: 0x100060798, symSize: 0x88 }
  - { offsetInCU: 0x2E40B, offset: 0x38AAD, size: 0x8, addend: 0x0, symName: __ZNSt3__116allocator_traitsINS_9allocatorINS_11__hash_nodeINS_17__hash_value_typeINS_12basic_stringIcNS_11char_traitsIcEENS1_IcEEEEP5TableEEPvEEEEE9constructB7v160006INS_4pairIKS8_SA_EEJRKNS_21piecewise_construct_tENS_5tupleIJRSI_EEENSN_IJEEEEvEEvRSE_PT_DpOT0_, symObjAddr: 0x54DA4, symBinAddr: 0x100060820, symSize: 0xF4 }
  - { offsetInCU: 0x2E48C, offset: 0x38B2E, size: 0x8, addend: 0x0, symName: __ZNSt3__110unique_ptrINS_11__hash_nodeINS_17__hash_value_typeINS_12basic_stringIcNS_11char_traitsIcEENS_9allocatorIcEEEEP5TableEEPvEENS_22__hash_node_destructorINS6_ISD_EEEEE11get_deleterB7v160006Ev, symObjAddr: 0x54E98, symBinAddr: 0x100060914, symSize: 0xF8 }
  - { offsetInCU: 0x2E4B1, offset: 0x38B53, size: 0x8, addend: 0x0, symName: __ZNSt3__19allocatorINS_11__hash_nodeINS_17__hash_value_typeINS_12basic_stringIcNS_11char_traitsIcEENS0_IcEEEEP5TableEEPvEEE8allocateB7v160006Em, symObjAddr: 0x54F90, symBinAddr: 0x100060A0C, symSize: 0xD0 }
  - { offsetInCU: 0x2E4EE, offset: 0x38B90, size: 0x8, addend: 0x0, symName: __ZNSt3__116allocator_traitsINS_9allocatorINS_11__hash_nodeINS_17__hash_value_typeINS_12basic_stringIcNS_11char_traitsIcEENS1_IcEEEEP5TableEEPvEEEEE8max_sizeB7v160006ISE_vEEmRKSE_, symObjAddr: 0x55060, symBinAddr: 0x100060ADC, symSize: 0x24 }
  - { offsetInCU: 0x2E51D, offset: 0x38BBF, size: 0x8, addend: 0x0, symName: __ZNKSt3__19allocatorINS_11__hash_nodeINS_17__hash_value_typeINS_12basic_stringIcNS_11char_traitsIcEENS0_IcEEEEP5TableEEPvEEE8max_sizeB7v160006Ev, symObjAddr: 0x55084, symBinAddr: 0x100060B00, symSize: 0x50 }
  - { offsetInCU: 0x2E542, offset: 0x38BE4, size: 0x8, addend: 0x0, symName: __ZNSt3__122__hash_node_destructorINS_9allocatorINS_11__hash_nodeINS_17__hash_value_typeINS_12basic_stringIcNS_11char_traitsIcEENS1_IcEEEEP5TableEEPvEEEEEC2B7v160006ERSE_b, symObjAddr: 0x550D4, symBinAddr: 0x100060B50, symSize: 0x1A0 }
  - { offsetInCU: 0x2E588, offset: 0x38C2A, size: 0x8, addend: 0x0, symName: __ZNSt3__110unique_ptrINS_11__hash_nodeINS_17__hash_value_typeINS_12basic_stringIcNS_11char_traitsIcEENS_9allocatorIcEEEEP5TableEEPvEENS_22__hash_node_destructorINS6_ISD_EEEEEC2B7v160006ILb1EvEEPSD_NS_16__dependent_typeINS_27__unique_ptr_deleter_sfinaeISG_EEXT_EE20__good_rval_ref_typeE, symObjAddr: 0x55274, symBinAddr: 0x100060CF0, symSize: 0x2BC }
  - { offsetInCU: 0x2E5DE, offset: 0x38C80, size: 0x8, addend: 0x0, symName: __ZNSt3__117__compressed_pairIPNS_11__hash_nodeINS_17__hash_value_typeINS_12basic_stringIcNS_11char_traitsIcEENS_9allocatorIcEEEEP5TableEEPvEENS_22__hash_node_destructorINS6_ISD_EEEEEC1B7v160006IRSE_SH_EEOT_OT0_, symObjAddr: 0x55530, symBinAddr: 0x100060FAC, symSize: 0x88 }
  - { offsetInCU: 0x2E634, offset: 0x38CD6, size: 0x8, addend: 0x0, symName: __ZNSt3__117__compressed_pairIPNS_11__hash_nodeINS_17__hash_value_typeINS_12basic_stringIcNS_11char_traitsIcEENS_9allocatorIcEEEEP5TableEEPvEENS_22__hash_node_destructorINS6_ISD_EEEEEC2B7v160006IRSE_SH_EEOT_OT0_, symObjAddr: 0x555B8, symBinAddr: 0x100061034, symSize: 0x1B4 }
  - { offsetInCU: 0x2E68A, offset: 0x38D2C, size: 0x8, addend: 0x0, symName: __ZNSt3__122__compressed_pair_elemIPNS_11__hash_nodeINS_17__hash_value_typeINS_12basic_stringIcNS_11char_traitsIcEENS_9allocatorIcEEEEP5TableEEPvEELi0ELb0EEC2B7v160006IRSE_vEEOT_, symObjAddr: 0x5576C, symBinAddr: 0x1000611E8, symSize: 0x144 }
  - { offsetInCU: 0x2E6CB, offset: 0x38D6D, size: 0x8, addend: 0x0, symName: __ZNSt3__122__compressed_pair_elemINS_22__hash_node_destructorINS_9allocatorINS_11__hash_nodeINS_17__hash_value_typeINS_12basic_stringIcNS_11char_traitsIcEENS2_IcEEEEP5TableEEPvEEEEEELi1ELb0EEC2B7v160006ISG_vEEOT_, symObjAddr: 0x558B0, symBinAddr: 0x10006132C, symSize: 0x84 }
  - { offsetInCU: 0x2E70C, offset: 0x38DAE, size: 0x8, addend: 0x0, symName: __ZNSt3__19allocatorINS_11__hash_nodeINS_17__hash_value_typeINS_12basic_stringIcNS_11char_traitsIcEENS0_IcEEEEP5TableEEPvEEE9constructB7v160006INS_4pairIKS7_S9_EEJRKNS_21piecewise_construct_tENS_5tupleIJRSG_EEENSL_IJEEEEEEvPT_DpOT0_, symObjAddr: 0x55934, symBinAddr: 0x1000613B0, symSize: 0x284 }
  - { offsetInCU: 0x2E78D, offset: 0x38E2F, size: 0x8, addend: 0x0, symName: __ZNSt3__14pairIKNS_12basic_stringIcNS_11char_traitsIcEENS_9allocatorIcEEEEP5TableEC1B7v160006IJRS7_EJEEENS_21piecewise_construct_tENS_5tupleIJDpT_EEENSE_IJDpT0_EEE, symObjAddr: 0x55BB8, symBinAddr: 0x100061634, symSize: 0x28C }
  - { offsetInCU: 0x2E7FE, offset: 0x38EA0, size: 0x8, addend: 0x0, symName: __ZNSt3__14pairIKNS_12basic_stringIcNS_11char_traitsIcEENS_9allocatorIcEEEEP5TableEC1B7v160006IJRS7_EJEJLm0EEJEEENS_21piecewise_construct_tERNS_5tupleIJDpT_EEERNSE_IJDpT0_EEENS_15__tuple_indicesIJXspT1_EEEENSN_IJXspT2_EEEE, symObjAddr: 0x55E44, symBinAddr: 0x1000618C0, symSize: 0x88 }
  - { offsetInCU: 0x2E891, offset: 0x38F33, size: 0x8, addend: 0x0, symName: __ZNSt3__14pairIKNS_12basic_stringIcNS_11char_traitsIcEENS_9allocatorIcEEEEP5TableEC2B7v160006IJRS7_EJEJLm0EEJEEENS_21piecewise_construct_tERNS_5tupleIJDpT_EEERNSE_IJDpT0_EEENS_15__tuple_indicesIJXspT1_EEEENSN_IJXspT2_EEEE, symObjAddr: 0x55ECC, symBinAddr: 0x100061948, symSize: 0x164 }
  - { offsetInCU: 0x2E924, offset: 0x38FC6, size: 0x8, addend: 0x0, symName: __ZNSt3__112__tuple_leafILm0ERKNS_12basic_stringIcNS_11char_traitsIcEENS_9allocatorIcEEEELb0EE3getB7v160006Ev, symObjAddr: 0x56110, symBinAddr: 0x100061B8C, symSize: 0xF4 }
  - { offsetInCU: 0x2E949, offset: 0x38FEB, size: 0x8, addend: 0x0, symName: __ZNSt3__117__compressed_pairIPNS_11__hash_nodeINS_17__hash_value_typeINS_12basic_stringIcNS_11char_traitsIcEENS_9allocatorIcEEEEP5TableEEPvEENS_22__hash_node_destructorINS6_ISD_EEEEE6secondB7v160006Ev, symObjAddr: 0x56204, symBinAddr: 0x100061C80, symSize: 0x12C }
  - { offsetInCU: 0x2E96E, offset: 0x39010, size: 0x8, addend: 0x0, symName: __ZNSt3__122__compressed_pair_elemINS_22__hash_node_destructorINS_9allocatorINS_11__hash_nodeINS_17__hash_value_typeINS_12basic_stringIcNS_11char_traitsIcEENS2_IcEEEEP5TableEEPvEEEEEELi1ELb0EE5__getB7v160006Ev, symObjAddr: 0x56330, symBinAddr: 0x100061DAC, symSize: 0xAC }
  - { offsetInCU: 0x2E993, offset: 0x39035, size: 0x8, addend: 0x0, symName: __ZNSt3__117__compressed_pairIfNS_21__unordered_map_equalINS_12basic_stringIcNS_11char_traitsIcEENS_9allocatorIcEEEENS_17__hash_value_typeIS7_P5TableEENS_8equal_toIS7_EENS_4hashIS7_EELb1EEEE5firstB7v160006Ev, symObjAddr: 0x563DC, symBinAddr: 0x100061E58, symSize: 0x124 }
  - { offsetInCU: 0x2E9B8, offset: 0x3905A, size: 0x8, addend: 0x0, symName: __ZNSt3__122__compressed_pair_elemIfLi0ELb0EE5__getB7v160006Ev, symObjAddr: 0x56500, symBinAddr: 0x100061F7C, symSize: 0xAC }
  - { offsetInCU: 0x2E9DD, offset: 0x3907F, size: 0x8, addend: 0x0, symName: __ZNSt3__112__hash_tableINS_17__hash_value_typeINS_12basic_stringIcNS_11char_traitsIcEENS_9allocatorIcEEEEP5TableEENS_22__unordered_map_hasherIS7_SA_NS_4hashIS7_EENS_8equal_toIS7_EELb1EEENS_21__unordered_map_equalIS7_SA_SF_SD_Lb1EEENS5_ISA_EEE8__rehashILb1EEEvm, symObjAddr: 0x565AC, symBinAddr: 0x100062028, symSize: 0x9CC }
  - { offsetInCU: 0x2EA32, offset: 0x390D4, size: 0x8, addend: 0x0, symName: __ZNSt3__112__hash_tableINS_17__hash_value_typeINS_12basic_stringIcNS_11char_traitsIcEENS_9allocatorIcEEEEP5TableEENS_22__unordered_map_hasherIS7_SA_NS_4hashIS7_EENS_8equal_toIS7_EELb1EEENS_21__unordered_map_equalIS7_SA_SF_SD_Lb1EEENS5_ISA_EEE11__do_rehashILb1EEEvm, symObjAddr: 0x56F78, symBinAddr: 0x1000629F4, symSize: 0x108C }
  - { offsetInCU: 0x2EB1A, offset: 0x391BC, size: 0x8, addend: 0x0, symName: __ZNSt3__110unique_ptrIA_PNS_16__hash_node_baseIPNS_11__hash_nodeINS_17__hash_value_typeINS_12basic_stringIcNS_11char_traitsIcEENS_9allocatorIcEEEEP5TableEEPvEEEENS_25__bucket_list_deallocatorINS7_ISH_EEEEE11get_deleterB7v160006Ev, symObjAddr: 0x580E0, symBinAddr: 0x100063B5C, symSize: 0xF8 }
  - { offsetInCU: 0x2EB3F, offset: 0x391E1, size: 0x8, addend: 0x0, symName: __ZNSt3__110unique_ptrIA_PNS_16__hash_node_baseIPNS_11__hash_nodeINS_17__hash_value_typeINS_12basic_stringIcNS_11char_traitsIcEENS_9allocatorIcEEEEP5TableEEPvEEEENS_25__bucket_list_deallocatorINS7_ISH_EEEEE5resetB7v160006IPSH_EENS_9enable_ifIXsr28_CheckArrayPointerConversionIT_EE5valueEvE4typeESQ_, symObjAddr: 0x581D8, symBinAddr: 0x100063C54, symSize: 0x2CC }
  - { offsetInCU: 0x2EB8B, offset: 0x3922D, size: 0x8, addend: 0x0, symName: __ZNSt3__116allocator_traitsINS_9allocatorIPNS_16__hash_node_baseIPNS_11__hash_nodeINS_17__hash_value_typeINS_12basic_stringIcNS_11char_traitsIcEENS1_IcEEEEP5TableEEPvEEEEEEE8allocateB7v160006ERSI_m, symObjAddr: 0x584A4, symBinAddr: 0x100063F20, symSize: 0x2C }
  - { offsetInCU: 0x2EBBE, offset: 0x39260, size: 0x8, addend: 0x0, symName: __ZNSt3__19allocatorIPNS_16__hash_node_baseIPNS_11__hash_nodeINS_17__hash_value_typeINS_12basic_stringIcNS_11char_traitsIcEENS0_IcEEEEP5TableEEPvEEEEE8allocateB7v160006Em, symObjAddr: 0x584D0, symBinAddr: 0x100063F4C, symSize: 0xCC }
  - { offsetInCU: 0x2EBFB, offset: 0x3929D, size: 0x8, addend: 0x0, symName: __ZNSt3__116allocator_traitsINS_9allocatorIPNS_16__hash_node_baseIPNS_11__hash_nodeINS_17__hash_value_typeINS_12basic_stringIcNS_11char_traitsIcEENS1_IcEEEEP5TableEEPvEEEEEEE8max_sizeB7v160006ISI_vEEmRKSI_, symObjAddr: 0x5859C, symBinAddr: 0x100064018, symSize: 0x24 }
  - { offsetInCU: 0x2EC2A, offset: 0x392CC, size: 0x8, addend: 0x0, symName: __ZNKSt3__19allocatorIPNS_16__hash_node_baseIPNS_11__hash_nodeINS_17__hash_value_typeINS_12basic_stringIcNS_11char_traitsIcEENS0_IcEEEEP5TableEEPvEEEEE8max_sizeB7v160006Ev, symObjAddr: 0x585C0, symBinAddr: 0x10006403C, symSize: 0x4C }
  - { offsetInCU: 0x2EC4F, offset: 0x392F1, size: 0x8, addend: 0x0, symName: __ZNKSt3__117__compressed_pairIPNS_11__hash_nodeINS_17__hash_value_typeINS_12basic_stringIcNS_11char_traitsIcEENS_9allocatorIcEEEEP5TableEEPvEENS_22__hash_node_destructorINS6_ISD_EEEEE5firstB7v160006Ev, symObjAddr: 0x588E8, symBinAddr: 0x100064364, symSize: 0x124 }
  - { offsetInCU: 0x2EC74, offset: 0x39316, size: 0x8, addend: 0x0, symName: __ZNKSt3__122__compressed_pair_elemIPNS_11__hash_nodeINS_17__hash_value_typeINS_12basic_stringIcNS_11char_traitsIcEENS_9allocatorIcEEEEP5TableEEPvEELi0ELb0EE5__getB7v160006Ev, symObjAddr: 0x58A0C, symBinAddr: 0x100064488, symSize: 0xAC }
  - { offsetInCU: 0x2EC99, offset: 0x3933B, size: 0x8, addend: 0x0, symName: __ZNSt3__117__compressed_pairIPNS_11__hash_nodeINS_17__hash_value_typeINS_12basic_stringIcNS_11char_traitsIcEENS_9allocatorIcEEEEP5TableEEPvEENS_22__hash_node_destructorINS6_ISD_EEEEE5firstB7v160006Ev, symObjAddr: 0x58AB8, symBinAddr: 0x100064534, symSize: 0x124 }
  - { offsetInCU: 0x2ECBE, offset: 0x39360, size: 0x8, addend: 0x0, symName: __ZNSt3__122__compressed_pair_elemIPNS_11__hash_nodeINS_17__hash_value_typeINS_12basic_stringIcNS_11char_traitsIcEENS_9allocatorIcEEEEP5TableEEPvEELi0ELb0EE5__getB7v160006Ev, symObjAddr: 0x58BDC, symBinAddr: 0x100064658, symSize: 0xAC }
  - { offsetInCU: 0x2ECE3, offset: 0x39385, size: 0x8, addend: 0x0, symName: __ZNSt3__110unique_ptrINS_11__hash_nodeINS_17__hash_value_typeINS_12basic_stringIcNS_11char_traitsIcEENS_9allocatorIcEEEEP5TableEEPvEENS_22__hash_node_destructorINS6_ISD_EEEEED2B7v160006Ev, symObjAddr: 0x58C88, symBinAddr: 0x100064704, symSize: 0x7C }
  - { offsetInCU: 0x2ED0B, offset: 0x393AD, size: 0x8, addend: 0x0, symName: __ZNSt3__110unique_ptrINS_11__hash_nodeINS_17__hash_value_typeINS_12basic_stringIcNS_11char_traitsIcEENS_9allocatorIcEEEEP5TableEEPvEENS_22__hash_node_destructorINS6_ISD_EEEEE5resetB7v160006EPSD_, symObjAddr: 0x58D04, symBinAddr: 0x100064780, symSize: 0x2CC }
  - { offsetInCU: 0x2ED4E, offset: 0x393F0, size: 0x8, addend: 0x0, symName: __ZNSt3__122__hash_node_destructorINS_9allocatorINS_11__hash_nodeINS_17__hash_value_typeINS_12basic_stringIcNS_11char_traitsIcEENS1_IcEEEEP5TableEEPvEEEEEclB7v160006EPSD_, symObjAddr: 0x58FD0, symBinAddr: 0x100064A4C, symSize: 0x2A4 }
  - { offsetInCU: 0x2ED82, offset: 0x39424, size: 0x8, addend: 0x0, symName: __ZNSt3__14pairINS_15__hash_iteratorIPNS_11__hash_nodeINS_17__hash_value_typeINS_12basic_stringIcNS_11char_traitsIcEENS_9allocatorIcEEEEP5TableEEPvEEEEbEC2B7v160006ISG_RbLSD_0EEEOT_OT0_, symObjAddr: 0x59274, symBinAddr: 0x100064CF0, symSize: 0x1C8 }
  - { offsetInCU: 0x2EDDE, offset: 0x39480, size: 0x8, addend: 0x0, symName: __ZNSt3__15tupleIJRKNS_12basic_stringIcNS_11char_traitsIcEENS_9allocatorIcEEEEEEC1B7v160006INS_4_AndELi0EEES8_, symObjAddr: 0x5943C, symBinAddr: 0x100064EB8, symSize: 0x80 }
  - { offsetInCU: 0x2EE25, offset: 0x394C7, size: 0x8, addend: 0x0, symName: __ZNSt3__15tupleIJRKNS_12basic_stringIcNS_11char_traitsIcEENS_9allocatorIcEEEEEEC2B7v160006INS_4_AndELi0EEES8_, symObjAddr: 0x594BC, symBinAddr: 0x100064F38, symSize: 0xC8 }
  - { offsetInCU: 0x2EE6C, offset: 0x3950E, size: 0x8, addend: 0x0, symName: __ZNSt3__112__tuple_implINS_15__tuple_indicesIJLm0EEEEJRKNS_12basic_stringIcNS_11char_traitsIcEENS_9allocatorIcEEEEEEC1B7v160006IJLm0EEJSA_EJEJEJSA_EEENS1_IJXspT_EEEENS_13__tuple_typesIJDpT0_EEENS1_IJXspT1_EEEENSE_IJDpT2_EEEDpOT3_, symObjAddr: 0x59584, symBinAddr: 0x100065000, symSize: 0x80 }
  - { offsetInCU: 0x2EF04, offset: 0x395A6, size: 0x8, addend: 0x0, symName: __ZNSt3__112__tuple_implINS_15__tuple_indicesIJLm0EEEEJRKNS_12basic_stringIcNS_11char_traitsIcEENS_9allocatorIcEEEEEEC2B7v160006IJLm0EEJSA_EJEJEJSA_EEENS1_IJXspT_EEEENS_13__tuple_typesIJDpT0_EEENS1_IJXspT1_EEEENSE_IJDpT2_EEEDpOT3_, symObjAddr: 0x59604, symBinAddr: 0x100065080, symSize: 0x10C }
  - { offsetInCU: 0x2EF9C, offset: 0x3963E, size: 0x8, addend: 0x0, symName: __ZNSt3__112__tuple_leafILm0ERKNS_12basic_stringIcNS_11char_traitsIcEENS_9allocatorIcEEEELb0EEC2B7v160006IS8_vEEOT_, symObjAddr: 0x59710, symBinAddr: 0x10006518C, symSize: 0x108 }
  - { offsetInCU: 0x2EFDE, offset: 0x39680, size: 0x8, addend: 0x0, symName: __ZNSt3__16vectorINS_12basic_stringIcNS_11char_traitsIcEENS_9allocatorIcEEEENS4_IS6_EEE11__make_iterB7v160006EPS6_, symObjAddr: 0x59818, symBinAddr: 0x100065294, symSize: 0x24C }
  - { offsetInCU: 0x2F014, offset: 0x396B6, size: 0x8, addend: 0x0, symName: __ZNSt3__111__wrap_iterIPNS_12basic_stringIcNS_11char_traitsIcEENS_9allocatorIcEEEEEC1B7v160006EPKvS7_, symObjAddr: 0x59A64, symBinAddr: 0x1000654E0, symSize: 0x88 }
  - { offsetInCU: 0x2F058, offset: 0x396FA, size: 0x8, addend: 0x0, symName: __ZNSt3__111__wrap_iterIPNS_12basic_stringIcNS_11char_traitsIcEENS_9allocatorIcEEEEEC2B7v160006EPKvS7_, symObjAddr: 0x59AEC, symBinAddr: 0x100065568, symSize: 0xCC }
  - { offsetInCU: 0x2F09C, offset: 0x3973E, size: 0x8, addend: 0x0, symName: __ZNSt3__16vectorINS0_INS_12basic_stringIcNS_11char_traitsIcEENS_9allocatorIcEEEENS4_IS6_EEEENS4_IS8_EEEC2B7v160006Ev, symObjAddr: 0x59BB8, symBinAddr: 0x100065634, symSize: 0x34C }
  - { offsetInCU: 0x2F0C5, offset: 0x39767, size: 0x8, addend: 0x0, symName: __ZNSt3__117__compressed_pairIPNS_6vectorINS_12basic_stringIcNS_11char_traitsIcEENS_9allocatorIcEEEENS5_IS7_EEEENS5_IS9_EEEC1B7v160006IDnNS_18__default_init_tagEEEOT_OT0_, symObjAddr: 0x59F04, symBinAddr: 0x100065980, symSize: 0x88 }
  - { offsetInCU: 0x2F11B, offset: 0x397BD, size: 0x8, addend: 0x0, symName: __ZNSt3__117__compressed_pairIPNS_6vectorINS_12basic_stringIcNS_11char_traitsIcEENS_9allocatorIcEEEENS5_IS7_EEEENS5_IS9_EEEC2B7v160006IDnNS_18__default_init_tagEEEOT_OT0_, symObjAddr: 0x59F9C, symBinAddr: 0x100065A18, symSize: 0x140 }
  - { offsetInCU: 0x2F171, offset: 0x39813, size: 0x8, addend: 0x0, symName: __ZNSt3__122__compressed_pair_elemIPNS_6vectorINS_12basic_stringIcNS_11char_traitsIcEENS_9allocatorIcEEEENS5_IS7_EEEELi0ELb0EEC2B7v160006IDnvEEOT_, symObjAddr: 0x5A0DC, symBinAddr: 0x100065B58, symSize: 0xBC }
  - { offsetInCU: 0x2F1B2, offset: 0x39854, size: 0x8, addend: 0x0, symName: __ZNSt3__122__compressed_pair_elemINS_9allocatorINS_6vectorINS_12basic_stringIcNS_11char_traitsIcEENS1_IcEEEENS1_IS7_EEEEEELi1ELb1EEC2B7v160006ENS_18__default_init_tagE, symObjAddr: 0x5A198, symBinAddr: 0x100065C14, symSize: 0x84 }
  - { offsetInCU: 0x2F1E5, offset: 0x39887, size: 0x8, addend: 0x0, symName: __ZNSt3__19allocatorINS_6vectorINS_12basic_stringIcNS_11char_traitsIcEENS0_IcEEEENS0_IS6_EEEEEC2B7v160006Ev, symObjAddr: 0x5A21C, symBinAddr: 0x100065C98, symSize: 0x84 }
  - { offsetInCU: 0x2F20D, offset: 0x398AF, size: 0x8, addend: 0x0, symName: __ZNSt3__116__non_trivial_ifILb1ENS_9allocatorINS_6vectorINS_12basic_stringIcNS_11char_traitsIcEENS1_IcEEEENS1_IS7_EEEEEEEC2B7v160006Ev, symObjAddr: 0x5A2A0, symBinAddr: 0x100065D1C, symSize: 0x54 }
  - { offsetInCU: 0x2F235, offset: 0x398D7, size: 0x8, addend: 0x0, symName: __ZNSt3__16vectorINS0_INS_12basic_stringIcNS_11char_traitsIcEENS_9allocatorIcEEEENS4_IS6_EEEENS4_IS8_EEED2B7v160006Ev, symObjAddr: 0x5A2F4, symBinAddr: 0x100065D70, symSize: 0x298 }
  - { offsetInCU: 0x2F25E, offset: 0x39900, size: 0x8, addend: 0x0, symName: __ZNSt3__16vectorINS0_INS_12basic_stringIcNS_11char_traitsIcEENS_9allocatorIcEEEENS4_IS6_EEEENS4_IS8_EEE16__destroy_vectorC1ERSA_, symObjAddr: 0x5A58C, symBinAddr: 0x100066008, symSize: 0x80 }
  - { offsetInCU: 0x2F295, offset: 0x39937, size: 0x8, addend: 0x0, symName: __ZNSt3__16vectorINS0_INS_12basic_stringIcNS_11char_traitsIcEENS_9allocatorIcEEEENS4_IS6_EEEENS4_IS8_EEE16__destroy_vectorclB7v160006Ev, symObjAddr: 0x5A60C, symBinAddr: 0x100066088, symSize: 0x478 }
  - { offsetInCU: 0x2F2BA, offset: 0x3995C, size: 0x8, addend: 0x0, symName: __ZNSt3__16vectorINS0_INS_12basic_stringIcNS_11char_traitsIcEENS_9allocatorIcEEEENS4_IS6_EEEENS4_IS8_EEE16__destroy_vectorC2ERSA_, symObjAddr: 0x5AA84, symBinAddr: 0x100066500, symSize: 0x108 }
  - { offsetInCU: 0x2F2F1, offset: 0x39993, size: 0x8, addend: 0x0, symName: __ZNKSt3__16vectorINS0_INS_12basic_stringIcNS_11char_traitsIcEENS_9allocatorIcEEEENS4_IS6_EEEENS4_IS8_EEE17__annotate_deleteB7v160006Ev, symObjAddr: 0x5AB8C, symBinAddr: 0x100066608, symSize: 0x388 }
  - { offsetInCU: 0x2F316, offset: 0x399B8, size: 0x8, addend: 0x0, symName: __ZNSt3__16vectorINS0_INS_12basic_stringIcNS_11char_traitsIcEENS_9allocatorIcEEEENS4_IS6_EEEENS4_IS8_EEE7__clearB7v160006Ev, symObjAddr: 0x5AF24, symBinAddr: 0x1000669A0, symSize: 0xB0 }
  - { offsetInCU: 0x2F33B, offset: 0x399DD, size: 0x8, addend: 0x0, symName: __ZNSt3__116allocator_traitsINS_9allocatorINS_6vectorINS_12basic_stringIcNS_11char_traitsIcEENS1_IcEEEENS1_IS7_EEEEEEE10deallocateB7v160006ERSA_PS9_m, symObjAddr: 0x5AFD4, symBinAddr: 0x100066A50, symSize: 0x34 }
  - { offsetInCU: 0x2F37D, offset: 0x39A1F, size: 0x8, addend: 0x0, symName: __ZNSt3__16vectorINS0_INS_12basic_stringIcNS_11char_traitsIcEENS_9allocatorIcEEEENS4_IS6_EEEENS4_IS8_EEE7__allocB7v160006Ev, symObjAddr: 0x5B008, symBinAddr: 0x100066A84, symSize: 0xE4 }
  - { offsetInCU: 0x2F3A2, offset: 0x39A44, size: 0x8, addend: 0x0, symName: __ZNKSt3__16vectorINS0_INS_12basic_stringIcNS_11char_traitsIcEENS_9allocatorIcEEEENS4_IS6_EEEENS4_IS8_EEE8capacityB7v160006Ev, symObjAddr: 0x5B0EC, symBinAddr: 0x100066B68, symSize: 0x144 }
  - { offsetInCU: 0x2F3C7, offset: 0x39A69, size: 0x8, addend: 0x0, symName: __ZNKSt3__16vectorINS0_INS_12basic_stringIcNS_11char_traitsIcEENS_9allocatorIcEEEENS4_IS6_EEEENS4_IS8_EEE31__annotate_contiguous_containerEPKvSC_SC_SC_, symObjAddr: 0x5B230, symBinAddr: 0x100066CAC, symSize: 0x9C }
  - { offsetInCU: 0x2F428, offset: 0x39ACA, size: 0x8, addend: 0x0, symName: __ZNKSt3__16vectorINS0_INS_12basic_stringIcNS_11char_traitsIcEENS_9allocatorIcEEEENS4_IS6_EEEENS4_IS8_EEE4dataB7v160006Ev, symObjAddr: 0x5B2CC, symBinAddr: 0x100066D48, symSize: 0xB0 }
  - { offsetInCU: 0x2F44D, offset: 0x39AEF, size: 0x8, addend: 0x0, symName: __ZNSt3__16vectorINS0_INS_12basic_stringIcNS_11char_traitsIcEENS_9allocatorIcEEEENS4_IS6_EEEENS4_IS8_EEE22__base_destruct_at_endB7v160006EPS8_, symObjAddr: 0x5B390, symBinAddr: 0x100066E0C, symSize: 0x1FC }
  - { offsetInCU: 0x2F490, offset: 0x39B32, size: 0x8, addend: 0x0, symName: __ZNSt3__116allocator_traitsINS_9allocatorINS_6vectorINS_12basic_stringIcNS_11char_traitsIcEENS1_IcEEEENS1_IS7_EEEEEEE7destroyB7v160006IS9_vEEvRSA_PT_, symObjAddr: 0x5B58C, symBinAddr: 0x100067008, symSize: 0x2C }
  - { offsetInCU: 0x2F4CE, offset: 0x39B70, size: 0x8, addend: 0x0, symName: __ZNSt3__19allocatorINS_6vectorINS_12basic_stringIcNS_11char_traitsIcEENS0_IcEEEENS0_IS6_EEEEE7destroyB7v160006EPS8_, symObjAddr: 0x5B5B8, symBinAddr: 0x100067034, symSize: 0x9C }
  - { offsetInCU: 0x2F501, offset: 0x39BA3, size: 0x8, addend: 0x0, symName: __ZNSt3__19allocatorINS_6vectorINS_12basic_stringIcNS_11char_traitsIcEENS0_IcEEEENS0_IS6_EEEEE10deallocateB7v160006EPS8_m, symObjAddr: 0x5B654, symBinAddr: 0x1000670D0, symSize: 0x7C }
  - { offsetInCU: 0x2F542, offset: 0x39BE4, size: 0x8, addend: 0x0, symName: __ZNSt3__117__compressed_pairIPNS_6vectorINS_12basic_stringIcNS_11char_traitsIcEENS_9allocatorIcEEEENS5_IS7_EEEENS5_IS9_EEE6secondB7v160006Ev, symObjAddr: 0x5B6D0, symBinAddr: 0x10006714C, symSize: 0x108 }
  - { offsetInCU: 0x2F567, offset: 0x39C09, size: 0x8, addend: 0x0, symName: __ZNSt3__122__compressed_pair_elemINS_9allocatorINS_6vectorINS_12basic_stringIcNS_11char_traitsIcEENS1_IcEEEENS1_IS7_EEEEEELi1ELb1EE5__getB7v160006Ev, symObjAddr: 0x5B7D8, symBinAddr: 0x100067254, symSize: 0x74 }
  - { offsetInCU: 0x2F58C, offset: 0x39C2E, size: 0x8, addend: 0x0, symName: __ZNKSt3__16vectorINS0_INS_12basic_stringIcNS_11char_traitsIcEENS_9allocatorIcEEEENS4_IS6_EEEENS4_IS8_EEE9__end_capB7v160006Ev, symObjAddr: 0x5B84C, symBinAddr: 0x1000672C8, symSize: 0x100 }
  - { offsetInCU: 0x2F5B1, offset: 0x39C53, size: 0x8, addend: 0x0, symName: __ZNKSt3__117__compressed_pairIPNS_6vectorINS_12basic_stringIcNS_11char_traitsIcEENS_9allocatorIcEEEENS5_IS7_EEEENS5_IS9_EEE5firstB7v160006Ev, symObjAddr: 0x5B94C, symBinAddr: 0x1000673C8, symSize: 0x124 }
  - { offsetInCU: 0x2F5D6, offset: 0x39C78, size: 0x8, addend: 0x0, symName: __ZNKSt3__122__compressed_pair_elemIPNS_6vectorINS_12basic_stringIcNS_11char_traitsIcEENS_9allocatorIcEEEENS5_IS7_EEEELi0ELb0EE5__getB7v160006Ev, symObjAddr: 0x5BA70, symBinAddr: 0x1000674EC, symSize: 0xAC }
  - { offsetInCU: 0x2F5FB, offset: 0x39C9D, size: 0x8, addend: 0x0, symName: __ZNSt3__16vectorINS_12basic_stringIcNS_11char_traitsIcEENS_9allocatorIcEEEENS4_IS6_EEEC2B7v160006Ev, symObjAddr: 0x5BB1C, symBinAddr: 0x100067598, symSize: 0x348 }
  - { offsetInCU: 0x2F624, offset: 0x39CC6, size: 0x8, addend: 0x0, symName: __ZNSt3__16vectorINS_12basic_stringIcNS_11char_traitsIcEENS_9allocatorIcEEEENS4_IS6_EEE22__construct_one_at_endB7v160006IJRKS6_EEEvDpOT_, symObjAddr: 0x5BE64, symBinAddr: 0x1000678E0, symSize: 0x550 }
  - { offsetInCU: 0x2F679, offset: 0x39D1B, size: 0x8, addend: 0x0, symName: __ZNSt3__16vectorINS_12basic_stringIcNS_11char_traitsIcEENS_9allocatorIcEEEENS4_IS6_EEE21__push_back_slow_pathIRKS6_EEvOT_, symObjAddr: 0x5C3B4, symBinAddr: 0x100067E30, symSize: 0x5B0 }
  - { offsetInCU: 0x2F6DD, offset: 0x39D7F, size: 0x8, addend: 0x0, symName: __ZNSt3__116allocator_traitsINS_9allocatorINS_12basic_stringIcNS_11char_traitsIcEENS1_IcEEEEEEE9constructB7v160006IS6_JRKS6_EvEEvRS7_PT_DpOT0_, symObjAddr: 0x5C964, symBinAddr: 0x1000683E0, symSize: 0x8C }
  - { offsetInCU: 0x2F736, offset: 0x39DD8, size: 0x8, addend: 0x0, symName: __ZNSt3__19allocatorINS_12basic_stringIcNS_11char_traitsIcEENS0_IcEEEEE9constructB7v160006IS5_JRKS5_EEEvPT_DpOT0_, symObjAddr: 0x5C9F0, symBinAddr: 0x10006846C, symSize: 0xEC }
  - { offsetInCU: 0x2F78C, offset: 0x39E2E, size: 0x8, addend: 0x0, symName: __ZNKSt3__16vectorINS_12basic_stringIcNS_11char_traitsIcEENS_9allocatorIcEEEENS4_IS6_EEE11__recommendB7v160006Em, symObjAddr: 0x5CADC, symBinAddr: 0x100068558, symSize: 0x45C }
  - { offsetInCU: 0x2F7E7, offset: 0x39E89, size: 0x8, addend: 0x0, symName: __ZNSt3__114__split_bufferINS_12basic_stringIcNS_11char_traitsIcEENS_9allocatorIcEEEERNS4_IS6_EEEC1EmmS8_, symObjAddr: 0x5CF38, symBinAddr: 0x1000689B4, symSize: 0x90 }
  - { offsetInCU: 0x2F83C, offset: 0x39EDE, size: 0x8, addend: 0x0, symName: __ZNSt3__114__split_bufferINS_12basic_stringIcNS_11char_traitsIcEENS_9allocatorIcEEEERNS4_IS6_EEED1Ev, symObjAddr: 0x5D82C, symBinAddr: 0x1000692A8, symSize: 0x78 }
  - { offsetInCU: 0x2F867, offset: 0x39F09, size: 0x8, addend: 0x0, symName: __ZNSt3__114__split_bufferINS_12basic_stringIcNS_11char_traitsIcEENS_9allocatorIcEEEERNS4_IS6_EEEC2EmmS8_, symObjAddr: 0x5D8A4, symBinAddr: 0x100069320, symSize: 0x7E8 }
  - { offsetInCU: 0x2F8E2, offset: 0x39F84, size: 0x8, addend: 0x0, symName: __ZNSt3__117__compressed_pairIPNS_12basic_stringIcNS_11char_traitsIcEENS_9allocatorIcEEEERNS4_IS6_EEEC1B7v160006IDnS9_EEOT_OT0_, symObjAddr: 0x5E08C, symBinAddr: 0x100069B08, symSize: 0x88 }
  - { offsetInCU: 0x2F938, offset: 0x39FDA, size: 0x8, addend: 0x0, symName: __ZNSt3__114__split_bufferINS_12basic_stringIcNS_11char_traitsIcEENS_9allocatorIcEEEERNS4_IS6_EEE7__allocB7v160006Ev, symObjAddr: 0x5E114, symBinAddr: 0x100069B90, symSize: 0xE4 }
  - { offsetInCU: 0x2F95D, offset: 0x39FFF, size: 0x8, addend: 0x0, symName: __ZNSt3__114__split_bufferINS_12basic_stringIcNS_11char_traitsIcEENS_9allocatorIcEEEERNS4_IS6_EEE9__end_capB7v160006Ev, symObjAddr: 0x5E1F8, symBinAddr: 0x100069C74, symSize: 0x100 }
  - { offsetInCU: 0x2F982, offset: 0x3A024, size: 0x8, addend: 0x0, symName: __ZNSt3__117__compressed_pairIPNS_12basic_stringIcNS_11char_traitsIcEENS_9allocatorIcEEEERNS4_IS6_EEEC2B7v160006IDnS9_EEOT_OT0_, symObjAddr: 0x5E2F8, symBinAddr: 0x100069D74, symSize: 0x198 }
  - { offsetInCU: 0x2F9D8, offset: 0x3A07A, size: 0x8, addend: 0x0, symName: __ZNSt3__122__compressed_pair_elemIRNS_9allocatorINS_12basic_stringIcNS_11char_traitsIcEENS1_IcEEEEEELi1ELb0EEC2B7v160006IS8_vEEOT_, symObjAddr: 0x5E490, symBinAddr: 0x100069F0C, symSize: 0xEC }
  - { offsetInCU: 0x2FA19, offset: 0x3A0BB, size: 0x8, addend: 0x0, symName: __ZNSt3__117__compressed_pairIPNS_12basic_stringIcNS_11char_traitsIcEENS_9allocatorIcEEEERNS4_IS6_EEE6secondB7v160006Ev, symObjAddr: 0x5E57C, symBinAddr: 0x100069FF8, symSize: 0x110 }
  - { offsetInCU: 0x2FA3E, offset: 0x3A0E0, size: 0x8, addend: 0x0, symName: __ZNSt3__122__compressed_pair_elemIRNS_9allocatorINS_12basic_stringIcNS_11char_traitsIcEENS1_IcEEEEEELi1ELb0EE5__getB7v160006Ev, symObjAddr: 0x5E68C, symBinAddr: 0x10006A108, symSize: 0xD8 }
  - { offsetInCU: 0x2FA63, offset: 0x3A105, size: 0x8, addend: 0x0, symName: __ZNSt3__117__compressed_pairIPNS_12basic_stringIcNS_11char_traitsIcEENS_9allocatorIcEEEERNS4_IS6_EEE5firstB7v160006Ev, symObjAddr: 0x5E764, symBinAddr: 0x10006A1E0, symSize: 0x124 }
  - { offsetInCU: 0x2FA88, offset: 0x3A12A, size: 0x8, addend: 0x0, symName: __ZNSt3__129_AllocatorDestroyRangeReverseINS_9allocatorINS_12basic_stringIcNS_11char_traitsIcEENS1_IcEEEEEENS_16reverse_iteratorIPS6_EEEC1B7v160006ERS7_RSA_SD_, symObjAddr: 0x5F25C, symBinAddr: 0x10006ACD8, symSize: 0x90 }
  - { offsetInCU: 0x2FADD, offset: 0x3A17F, size: 0x8, addend: 0x0, symName: __ZNSt3__116allocator_traitsINS_9allocatorINS_12basic_stringIcNS_11char_traitsIcEENS1_IcEEEEEEE9constructB7v160006IS6_JS6_EvEEvRS7_PT_DpOT0_, symObjAddr: 0x5F2EC, symBinAddr: 0x10006AD68, symSize: 0x8C }
  - { offsetInCU: 0x2FB36, offset: 0x3A1D8, size: 0x8, addend: 0x0, symName: __ZNSt3__128__exception_guard_exceptionsINS_29_AllocatorDestroyRangeReverseINS_9allocatorINS_12basic_stringIcNS_11char_traitsIcEENS2_IcEEEEEENS_16reverse_iteratorIPS7_EEEEE10__completeB7v160006Ev, symObjAddr: 0x5F378, symBinAddr: 0x10006ADF4, symSize: 0xD8 }
  - { offsetInCU: 0x2FB5B, offset: 0x3A1FD, size: 0x8, addend: 0x0, symName: __ZNSt3__128__exception_guard_exceptionsINS_29_AllocatorDestroyRangeReverseINS_9allocatorINS_12basic_stringIcNS_11char_traitsIcEENS2_IcEEEEEENS_16reverse_iteratorIPS7_EEEEED1B7v160006Ev, symObjAddr: 0x5F450, symBinAddr: 0x10006AECC, symSize: 0x78 }
  - { offsetInCU: 0x2FB83, offset: 0x3A225, size: 0x8, addend: 0x0, symName: __ZNSt3__128__exception_guard_exceptionsINS_29_AllocatorDestroyRangeReverseINS_9allocatorINS_12basic_stringIcNS_11char_traitsIcEENS2_IcEEEEEENS_16reverse_iteratorIPS7_EEEEEC1B7v160006ESC_, symObjAddr: 0x5F4C8, symBinAddr: 0x10006AF44, symSize: 0x84 }
  - { offsetInCU: 0x2FBBA, offset: 0x3A25C, size: 0x8, addend: 0x0, symName: __ZNSt3__128__exception_guard_exceptionsINS_29_AllocatorDestroyRangeReverseINS_9allocatorINS_12basic_stringIcNS_11char_traitsIcEENS2_IcEEEEEENS_16reverse_iteratorIPS7_EEEEEC2B7v160006ESC_, symObjAddr: 0x5F54C, symBinAddr: 0x10006AFC8, symSize: 0xF8 }
  - { offsetInCU: 0x2FBF1, offset: 0x3A293, size: 0x8, addend: 0x0, symName: __ZNSt3__129_AllocatorDestroyRangeReverseINS_9allocatorINS_12basic_stringIcNS_11char_traitsIcEENS1_IcEEEEEENS_16reverse_iteratorIPS6_EEEC2B7v160006ERS7_RSA_SD_, symObjAddr: 0x5F644, symBinAddr: 0x10006B0C0, symSize: 0x20C }
  - { offsetInCU: 0x2FC46, offset: 0x3A2E8, size: 0x8, addend: 0x0, symName: __ZNSt3__19allocatorINS_12basic_stringIcNS_11char_traitsIcEENS0_IcEEEEE9constructB7v160006IS5_JS5_EEEvPT_DpOT0_, symObjAddr: 0x5F850, symBinAddr: 0x10006B2CC, symSize: 0xEC }
  - { offsetInCU: 0x2FC9C, offset: 0x3A33E, size: 0x8, addend: 0x0, symName: __ZNSt3__128__exception_guard_exceptionsINS_29_AllocatorDestroyRangeReverseINS_9allocatorINS_12basic_stringIcNS_11char_traitsIcEENS2_IcEEEEEENS_16reverse_iteratorIPS7_EEEEED2B7v160006Ev, symObjAddr: 0x5FAC4, symBinAddr: 0x10006B3B8, symSize: 0x17C }
  - { offsetInCU: 0x2FCC4, offset: 0x3A366, size: 0x8, addend: 0x0, symName: __ZNKSt3__129_AllocatorDestroyRangeReverseINS_9allocatorINS_12basic_stringIcNS_11char_traitsIcEENS1_IcEEEEEENS_16reverse_iteratorIPS6_EEEclB7v160006Ev, symObjAddr: 0x5FC40, symBinAddr: 0x10006B534, symSize: 0x418 }
  - { offsetInCU: 0x2FCEA, offset: 0x3A38C, size: 0x8, addend: 0x0, symName: __ZNSt3__116reverse_iteratorINS0_IPNS_12basic_stringIcNS_11char_traitsIcEENS_9allocatorIcEEEEEEEC1B7v160006ES8_, symObjAddr: 0x601FC, symBinAddr: 0x10006BAF0, symSize: 0x29C }
  - { offsetInCU: 0x2FD25, offset: 0x3A3C7, size: 0x8, addend: 0x0, symName: __ZNSt3__116reverse_iteratorINS0_IPNS_12basic_stringIcNS_11char_traitsIcEENS_9allocatorIcEEEEEEEppB7v160006Ev, symObjAddr: 0x60828, symBinAddr: 0x10006C11C, symSize: 0x100 }
  - { offsetInCU: 0x2FD4A, offset: 0x3A3EC, size: 0x8, addend: 0x0, symName: __ZNKSt3__116reverse_iteratorINS0_IPNS_12basic_stringIcNS_11char_traitsIcEENS_9allocatorIcEEEEEEE4baseB7v160006Ev, symObjAddr: 0x60928, symBinAddr: 0x10006C21C, symSize: 0x258 }
  - { offsetInCU: 0x2FD75, offset: 0x3A417, size: 0x8, addend: 0x0, symName: __ZNSt3__119__to_address_helperINS_16reverse_iteratorINS1_IPNS_12basic_stringIcNS_11char_traitsIcEENS_9allocatorIcEEEEEEEEvE6__callB7v160006ERKSA_, symObjAddr: 0x60B80, symBinAddr: 0x10006C474, symSize: 0x70 }
  - { offsetInCU: 0x2FD98, offset: 0x3A43A, size: 0x8, addend: 0x0, symName: __ZNKSt3__116reverse_iteratorINS0_IPNS_12basic_stringIcNS_11char_traitsIcEENS_9allocatorIcEEEEEEEptB7v160006Ev, symObjAddr: 0x60BF0, symBinAddr: 0x10006C4E4, symSize: 0x6C }
  - { offsetInCU: 0x2FDBD, offset: 0x3A45F, size: 0x8, addend: 0x0, symName: __ZNKSt3__116reverse_iteratorINS0_IPNS_12basic_stringIcNS_11char_traitsIcEENS_9allocatorIcEEEEEEEdeB7v160006Ev, symObjAddr: 0x60C5C, symBinAddr: 0x10006C550, symSize: 0x2C4 }
  - { offsetInCU: 0x2FDF5, offset: 0x3A497, size: 0x8, addend: 0x0, symName: __ZNSt3__116reverse_iteratorIPNS_12basic_stringIcNS_11char_traitsIcEENS_9allocatorIcEEEEEmmB7v160006Ev, symObjAddr: 0x60F20, symBinAddr: 0x10006C814, symSize: 0x1B0 }
  - { offsetInCU: 0x2FE1A, offset: 0x3A4BC, size: 0x8, addend: 0x0, symName: __ZNSt3__116reverse_iteratorINS0_IPNS_12basic_stringIcNS_11char_traitsIcEENS_9allocatorIcEEEEEEEC2B7v160006ES8_, symObjAddr: 0x610D0, symBinAddr: 0x10006C9C4, symSize: 0x284 }
  - { offsetInCU: 0x2FE55, offset: 0x3A4F7, size: 0x8, addend: 0x0, symName: __ZNSt3__114__split_bufferINS_12basic_stringIcNS_11char_traitsIcEENS_9allocatorIcEEEERNS4_IS6_EEED2Ev, symObjAddr: 0x61354, symBinAddr: 0x10006CC48, symSize: 0x16C }
  - { offsetInCU: 0x2FE80, offset: 0x3A522, size: 0x8, addend: 0x0, symName: __ZNSt3__114__split_bufferINS_12basic_stringIcNS_11char_traitsIcEENS_9allocatorIcEEEERNS4_IS6_EEE5clearB7v160006Ev, symObjAddr: 0x614C0, symBinAddr: 0x10006CDB4, symSize: 0xB4 }
  - { offsetInCU: 0x2FEA5, offset: 0x3A547, size: 0x8, addend: 0x0, symName: __ZNKSt3__114__split_bufferINS_12basic_stringIcNS_11char_traitsIcEENS_9allocatorIcEEEERNS4_IS6_EEE8capacityB7v160006Ev, symObjAddr: 0x61574, symBinAddr: 0x10006CE68, symSize: 0x144 }
  - { offsetInCU: 0x2FECA, offset: 0x3A56C, size: 0x8, addend: 0x0, symName: __ZNSt3__114__split_bufferINS_12basic_stringIcNS_11char_traitsIcEENS_9allocatorIcEEEERNS4_IS6_EEE17__destruct_at_endB7v160006EPS6_, symObjAddr: 0x616B8, symBinAddr: 0x10006CFAC, symSize: 0x74 }
  - { offsetInCU: 0x2FEFD, offset: 0x3A59F, size: 0x8, addend: 0x0, symName: __ZNSt3__114__split_bufferINS_12basic_stringIcNS_11char_traitsIcEENS_9allocatorIcEEEERNS4_IS6_EEE17__destruct_at_endB7v160006EPS6_NS_17integral_constantIbLb0EEE, symObjAddr: 0x6172C, symBinAddr: 0x10006D020, symSize: 0x224 }
  - { offsetInCU: 0x2FF3D, offset: 0x3A5DF, size: 0x8, addend: 0x0, symName: __ZNKSt3__114__split_bufferINS_12basic_stringIcNS_11char_traitsIcEENS_9allocatorIcEEEERNS4_IS6_EEE9__end_capB7v160006Ev, symObjAddr: 0x61950, symBinAddr: 0x10006D244, symSize: 0x100 }
  - { offsetInCU: 0x2FF62, offset: 0x3A604, size: 0x8, addend: 0x0, symName: __ZNKSt3__117__compressed_pairIPNS_12basic_stringIcNS_11char_traitsIcEENS_9allocatorIcEEEERNS4_IS6_EEE5firstB7v160006Ev, symObjAddr: 0x61A50, symBinAddr: 0x10006D344, symSize: 0x124 }
  - { offsetInCU: 0x2FF87, offset: 0x3A629, size: 0x8, addend: 0x0, symName: __ZNSt3__16vectorINS0_INS_12basic_stringIcNS_11char_traitsIcEENS_9allocatorIcEEEENS4_IS6_EEEENS4_IS8_EEE9__end_capB7v160006Ev, symObjAddr: 0x61B74, symBinAddr: 0x10006D468, symSize: 0x100 }
  - { offsetInCU: 0x2FFAC, offset: 0x3A64E, size: 0x8, addend: 0x0, symName: __ZNSt3__16vectorINS0_INS_12basic_stringIcNS_11char_traitsIcEENS_9allocatorIcEEEENS4_IS6_EEEENS4_IS8_EEE22__construct_one_at_endB7v160006IJRKS8_EEEvDpOT_, symObjAddr: 0x61C74, symBinAddr: 0x10006D568, symSize: 0x550 }
  - { offsetInCU: 0x30001, offset: 0x3A6A3, size: 0x8, addend: 0x0, symName: __ZNSt3__16vectorINS0_INS_12basic_stringIcNS_11char_traitsIcEENS_9allocatorIcEEEENS4_IS6_EEEENS4_IS8_EEE21__push_back_slow_pathIRKS8_EEvOT_, symObjAddr: 0x621C4, symBinAddr: 0x10006DAB8, symSize: 0x5B0 }
  - { offsetInCU: 0x30065, offset: 0x3A707, size: 0x8, addend: 0x0, symName: __ZNSt3__117__compressed_pairIPNS_6vectorINS_12basic_stringIcNS_11char_traitsIcEENS_9allocatorIcEEEENS5_IS7_EEEENS5_IS9_EEE5firstB7v160006Ev, symObjAddr: 0x62774, symBinAddr: 0x10006E068, symSize: 0x124 }
  - { offsetInCU: 0x3008A, offset: 0x3A72C, size: 0x8, addend: 0x0, symName: __ZNSt3__122__compressed_pair_elemIPNS_6vectorINS_12basic_stringIcNS_11char_traitsIcEENS_9allocatorIcEEEENS5_IS7_EEEELi0ELb0EE5__getB7v160006Ev, symObjAddr: 0x62898, symBinAddr: 0x10006E18C, symSize: 0xAC }
  - { offsetInCU: 0x300C8, offset: 0x3A76A, size: 0x8, addend: 0x0, symName: __ZNSt3__16vectorINS0_INS_12basic_stringIcNS_11char_traitsIcEENS_9allocatorIcEEEENS4_IS6_EEEENS4_IS8_EEE21_ConstructTransactionC1B7v160006ERSA_m, symObjAddr: 0x62944, symBinAddr: 0x10006E238, symSize: 0x88 }
  - { offsetInCU: 0x3010E, offset: 0x3A7B0, size: 0x8, addend: 0x0, symName: __ZNSt3__116allocator_traitsINS_9allocatorINS_6vectorINS_12basic_stringIcNS_11char_traitsIcEENS1_IcEEEENS1_IS7_EEEEEEE9constructB7v160006IS9_JRKS9_EvEEvRSA_PT_DpOT0_, symObjAddr: 0x629CC, symBinAddr: 0x10006E2C0, symSize: 0x8C }
  - { offsetInCU: 0x30167, offset: 0x3A809, size: 0x8, addend: 0x0, symName: __ZNSt3__16vectorINS0_INS_12basic_stringIcNS_11char_traitsIcEENS_9allocatorIcEEEENS4_IS6_EEEENS4_IS8_EEE21_ConstructTransactionD1B7v160006Ev, symObjAddr: 0x62A58, symBinAddr: 0x10006E34C, symSize: 0x78 }
  - { offsetInCU: 0x3018F, offset: 0x3A831, size: 0x8, addend: 0x0, symName: __ZNSt3__16vectorINS0_INS_12basic_stringIcNS_11char_traitsIcEENS_9allocatorIcEEEENS4_IS6_EEEENS4_IS8_EEE21_ConstructTransactionC2B7v160006ERSA_m, symObjAddr: 0x62AD0, symBinAddr: 0x10006E3C4, symSize: 0x3E0 }
  - { offsetInCU: 0x301D5, offset: 0x3A877, size: 0x8, addend: 0x0, symName: __ZNKSt3__16vectorINS0_INS_12basic_stringIcNS_11char_traitsIcEENS_9allocatorIcEEEENS4_IS6_EEEENS4_IS8_EEE19__annotate_increaseB7v160006Em, symObjAddr: 0x62EB0, symBinAddr: 0x10006E7A4, symSize: 0x46C }
  - { offsetInCU: 0x30209, offset: 0x3A8AB, size: 0x8, addend: 0x0, symName: __ZNSt3__19allocatorINS_6vectorINS_12basic_stringIcNS_11char_traitsIcEENS0_IcEEEENS0_IS6_EEEEE9constructB7v160006IS8_JRKS8_EEEvPT_DpOT0_, symObjAddr: 0x6331C, symBinAddr: 0x10006EC10, symSize: 0xEC }
  - { offsetInCU: 0x3025F, offset: 0x3A901, size: 0x8, addend: 0x0, symName: __ZNSt3__16vectorINS0_INS_12basic_stringIcNS_11char_traitsIcEENS_9allocatorIcEEEENS4_IS6_EEEENS4_IS8_EEE21_ConstructTransactionD2B7v160006Ev, symObjAddr: 0x63408, symBinAddr: 0x10006ECFC, symSize: 0x390 }
  - { offsetInCU: 0x30287, offset: 0x3A929, size: 0x8, addend: 0x0, symName: __ZNKSt3__16vectorINS0_INS_12basic_stringIcNS_11char_traitsIcEENS_9allocatorIcEEEENS4_IS6_EEEENS4_IS8_EEE17__annotate_shrinkB7v160006Em, symObjAddr: 0x63798, symBinAddr: 0x10006F08C, symSize: 0x378 }
  - { offsetInCU: 0x302BB, offset: 0x3A95D, size: 0x8, addend: 0x0, symName: __ZNKSt3__16vectorINS0_INS_12basic_stringIcNS_11char_traitsIcEENS_9allocatorIcEEEENS4_IS6_EEEENS4_IS8_EEE11__recommendB7v160006Em, symObjAddr: 0x63B10, symBinAddr: 0x10006F404, symSize: 0x45C }
  - { offsetInCU: 0x30316, offset: 0x3A9B8, size: 0x8, addend: 0x0, symName: __ZNSt3__114__split_bufferINS_6vectorINS_12basic_stringIcNS_11char_traitsIcEENS_9allocatorIcEEEENS5_IS7_EEEERNS5_IS9_EEEC1EmmSB_, symObjAddr: 0x63F6C, symBinAddr: 0x10006F860, symSize: 0x90 }
  - { offsetInCU: 0x3036B, offset: 0x3AA0D, size: 0x8, addend: 0x0, symName: __ZNSt3__114__split_bufferINS_6vectorINS_12basic_stringIcNS_11char_traitsIcEENS_9allocatorIcEEEENS5_IS7_EEEERNS5_IS9_EEED1Ev, symObjAddr: 0x64860, symBinAddr: 0x100070154, symSize: 0x78 }
  - { offsetInCU: 0x30396, offset: 0x3AA38, size: 0x8, addend: 0x0, symName: __ZNKSt3__16vectorINS0_INS_12basic_stringIcNS_11char_traitsIcEENS_9allocatorIcEEEENS4_IS6_EEEENS4_IS8_EEE8max_sizeEv, symObjAddr: 0x648D8, symBinAddr: 0x1000701CC, symSize: 0x3B8 }
  - { offsetInCU: 0x303BE, offset: 0x3AA60, size: 0x8, addend: 0x0, symName: __ZNKSt3__16vectorINS0_INS_12basic_stringIcNS_11char_traitsIcEENS_9allocatorIcEEEENS4_IS6_EEEENS4_IS8_EEE20__throw_length_errorB7v160006Ev, symObjAddr: 0x64C90, symBinAddr: 0x100070584, symSize: 0x80 }
  - { offsetInCU: 0x303ED, offset: 0x3AA8F, size: 0x8, addend: 0x0, symName: __ZNSt3__116allocator_traitsINS_9allocatorINS_6vectorINS_12basic_stringIcNS_11char_traitsIcEENS1_IcEEEENS1_IS7_EEEEEEE8max_sizeB7v160006ISA_vEEmRKSA_, symObjAddr: 0x64D10, symBinAddr: 0x100070604, symSize: 0x24 }
  - { offsetInCU: 0x3041C, offset: 0x3AABE, size: 0x8, addend: 0x0, symName: __ZNKSt3__16vectorINS0_INS_12basic_stringIcNS_11char_traitsIcEENS_9allocatorIcEEEENS4_IS6_EEEENS4_IS8_EEE7__allocB7v160006Ev, symObjAddr: 0x64D34, symBinAddr: 0x100070628, symSize: 0xE4 }
  - { offsetInCU: 0x30441, offset: 0x3AAE3, size: 0x8, addend: 0x0, symName: __ZNKSt3__19allocatorINS_6vectorINS_12basic_stringIcNS_11char_traitsIcEENS0_IcEEEENS0_IS6_EEEEE8max_sizeB7v160006Ev, symObjAddr: 0x64E18, symBinAddr: 0x10007070C, symSize: 0x50 }
  - { offsetInCU: 0x30466, offset: 0x3AB08, size: 0x8, addend: 0x0, symName: __ZNKSt3__117__compressed_pairIPNS_6vectorINS_12basic_stringIcNS_11char_traitsIcEENS_9allocatorIcEEEENS5_IS7_EEEENS5_IS9_EEE6secondB7v160006Ev, symObjAddr: 0x64E68, symBinAddr: 0x10007075C, symSize: 0x108 }
  - { offsetInCU: 0x3048B, offset: 0x3AB2D, size: 0x8, addend: 0x0, symName: __ZNKSt3__122__compressed_pair_elemINS_9allocatorINS_6vectorINS_12basic_stringIcNS_11char_traitsIcEENS1_IcEEEENS1_IS7_EEEEEELi1ELb1EE5__getB7v160006Ev, symObjAddr: 0x64F70, symBinAddr: 0x100070864, symSize: 0x74 }
  - { offsetInCU: 0x304B0, offset: 0x3AB52, size: 0x8, addend: 0x0, symName: __ZNSt3__114__split_bufferINS_6vectorINS_12basic_stringIcNS_11char_traitsIcEENS_9allocatorIcEEEENS5_IS7_EEEERNS5_IS9_EEEC2EmmSB_, symObjAddr: 0x64FE4, symBinAddr: 0x1000708D8, symSize: 0x7E8 }
  - { offsetInCU: 0x3052B, offset: 0x3ABCD, size: 0x8, addend: 0x0, symName: __ZNSt3__117__compressed_pairIPNS_6vectorINS_12basic_stringIcNS_11char_traitsIcEENS_9allocatorIcEEEENS5_IS7_EEEERNS5_IS9_EEEC1B7v160006IDnSC_EEOT_OT0_, symObjAddr: 0x657CC, symBinAddr: 0x1000710C0, symSize: 0x88 }
  - { offsetInCU: 0x30581, offset: 0x3AC23, size: 0x8, addend: 0x0, symName: __ZNSt3__114__split_bufferINS_6vectorINS_12basic_stringIcNS_11char_traitsIcEENS_9allocatorIcEEEENS5_IS7_EEEERNS5_IS9_EEE7__allocB7v160006Ev, symObjAddr: 0x65AE0, symBinAddr: 0x1000713D4, symSize: 0xE4 }
  - { offsetInCU: 0x305A6, offset: 0x3AC48, size: 0x8, addend: 0x0, symName: __ZNSt3__114__split_bufferINS_6vectorINS_12basic_stringIcNS_11char_traitsIcEENS_9allocatorIcEEEENS5_IS7_EEEERNS5_IS9_EEE9__end_capB7v160006Ev, symObjAddr: 0x65BC4, symBinAddr: 0x1000714B8, symSize: 0x100 }
  - { offsetInCU: 0x305CB, offset: 0x3AC6D, size: 0x8, addend: 0x0, symName: __ZNSt3__117__compressed_pairIPNS_6vectorINS_12basic_stringIcNS_11char_traitsIcEENS_9allocatorIcEEEENS5_IS7_EEEERNS5_IS9_EEEC2B7v160006IDnSC_EEOT_OT0_, symObjAddr: 0x65CC4, symBinAddr: 0x1000715B8, symSize: 0x198 }
  - { offsetInCU: 0x30621, offset: 0x3ACC3, size: 0x8, addend: 0x0, symName: __ZNSt3__122__compressed_pair_elemIRNS_9allocatorINS_6vectorINS_12basic_stringIcNS_11char_traitsIcEENS1_IcEEEENS1_IS7_EEEEEELi1ELb0EEC2B7v160006ISB_vEEOT_, symObjAddr: 0x65E5C, symBinAddr: 0x100071750, symSize: 0xEC }
  - { offsetInCU: 0x30662, offset: 0x3AD04, size: 0x8, addend: 0x0, symName: __ZNSt3__19allocatorINS_6vectorINS_12basic_stringIcNS_11char_traitsIcEENS0_IcEEEENS0_IS6_EEEEE8allocateB7v160006Em, symObjAddr: 0x65F48, symBinAddr: 0x10007183C, symSize: 0xD0 }
  - { offsetInCU: 0x30695, offset: 0x3AD37, size: 0x8, addend: 0x0, symName: __ZNSt3__117__compressed_pairIPNS_6vectorINS_12basic_stringIcNS_11char_traitsIcEENS_9allocatorIcEEEENS5_IS7_EEEERNS5_IS9_EEE6secondB7v160006Ev, symObjAddr: 0x66018, symBinAddr: 0x10007190C, symSize: 0x110 }
  - { offsetInCU: 0x306BA, offset: 0x3AD5C, size: 0x8, addend: 0x0, symName: __ZNSt3__122__compressed_pair_elemIRNS_9allocatorINS_6vectorINS_12basic_stringIcNS_11char_traitsIcEENS1_IcEEEENS1_IS7_EEEEEELi1ELb0EE5__getB7v160006Ev, symObjAddr: 0x66128, symBinAddr: 0x100071A1C, symSize: 0xD8 }
  - { offsetInCU: 0x306DF, offset: 0x3AD81, size: 0x8, addend: 0x0, symName: __ZNSt3__117__compressed_pairIPNS_6vectorINS_12basic_stringIcNS_11char_traitsIcEENS_9allocatorIcEEEENS5_IS7_EEEERNS5_IS9_EEE5firstB7v160006Ev, symObjAddr: 0x66200, symBinAddr: 0x100071AF4, symSize: 0x124 }
  - { offsetInCU: 0x30704, offset: 0x3ADA6, size: 0x8, addend: 0x0, symName: __ZNSt3__116reverse_iteratorIPNS_6vectorINS_12basic_stringIcNS_11char_traitsIcEENS_9allocatorIcEEEENS5_IS7_EEEEEC1B7v160006ESA_, symObjAddr: 0x668FC, symBinAddr: 0x1000721F0, symSize: 0x80 }
  - { offsetInCU: 0x3073A, offset: 0x3ADDC, size: 0x8, addend: 0x0, symName: __ZNKSt3__116reverse_iteratorIPNS_6vectorINS_12basic_stringIcNS_11char_traitsIcEENS_9allocatorIcEEEENS5_IS7_EEEEE4baseB7v160006Ev, symObjAddr: 0x6697C, symBinAddr: 0x100072270, symSize: 0xB0 }
  - { offsetInCU: 0x3075F, offset: 0x3AE01, size: 0x8, addend: 0x0, symName: __ZNKSt3__16vectorINS0_INS_12basic_stringIcNS_11char_traitsIcEENS_9allocatorIcEEEENS4_IS6_EEEENS4_IS8_EEE14__annotate_newB7v160006Em, symObjAddr: 0x66BEC, symBinAddr: 0x1000724E0, symSize: 0x378 }
  - { offsetInCU: 0x30793, offset: 0x3AE35, size: 0x8, addend: 0x0, symName: __ZNSt3__129_AllocatorDestroyRangeReverseINS_9allocatorINS_6vectorINS_12basic_stringIcNS_11char_traitsIcEENS1_IcEEEENS1_IS7_EEEEEENS_16reverse_iteratorIPS9_EEEC1B7v160006ERSA_RSD_SG_, symObjAddr: 0x671B0, symBinAddr: 0x100072AA4, symSize: 0x90 }
  - { offsetInCU: 0x307E8, offset: 0x3AE8A, size: 0x8, addend: 0x0, symName: __ZNSt3__116allocator_traitsINS_9allocatorINS_6vectorINS_12basic_stringIcNS_11char_traitsIcEENS1_IcEEEENS1_IS7_EEEEEEE9constructB7v160006IS9_JS9_EvEEvRSA_PT_DpOT0_, symObjAddr: 0x672DC, symBinAddr: 0x100072BD0, symSize: 0x8C }
  - { offsetInCU: 0x30841, offset: 0x3AEE3, size: 0x8, addend: 0x0, symName: __ZNKSt3__116reverse_iteratorIPNS_6vectorINS_12basic_stringIcNS_11char_traitsIcEENS_9allocatorIcEEEENS5_IS7_EEEEEdeB7v160006Ev, symObjAddr: 0x673D4, symBinAddr: 0x100072CC8, symSize: 0x184 }
  - { offsetInCU: 0x30874, offset: 0x3AF16, size: 0x8, addend: 0x0, symName: __ZNSt3__116reverse_iteratorIPNS_6vectorINS_12basic_stringIcNS_11char_traitsIcEENS_9allocatorIcEEEENS5_IS7_EEEEEppB7v160006Ev, symObjAddr: 0x67558, symBinAddr: 0x100072E4C, symSize: 0x1B0 }
  - { offsetInCU: 0x30899, offset: 0x3AF3B, size: 0x8, addend: 0x0, symName: __ZNSt3__128__exception_guard_exceptionsINS_29_AllocatorDestroyRangeReverseINS_9allocatorINS_6vectorINS_12basic_stringIcNS_11char_traitsIcEENS2_IcEEEENS2_IS8_EEEEEENS_16reverse_iteratorIPSA_EEEEE10__completeB7v160006Ev, symObjAddr: 0x67708, symBinAddr: 0x100072FFC, symSize: 0xD8 }
  - { offsetInCU: 0x308BE, offset: 0x3AF60, size: 0x8, addend: 0x0, symName: __ZNSt3__128__exception_guard_exceptionsINS_29_AllocatorDestroyRangeReverseINS_9allocatorINS_6vectorINS_12basic_stringIcNS_11char_traitsIcEENS2_IcEEEENS2_IS8_EEEEEENS_16reverse_iteratorIPSA_EEEEED1B7v160006Ev, symObjAddr: 0x677E0, symBinAddr: 0x1000730D4, symSize: 0x78 }
  - { offsetInCU: 0x308E6, offset: 0x3AF88, size: 0x8, addend: 0x0, symName: __ZNSt3__128__exception_guard_exceptionsINS_29_AllocatorDestroyRangeReverseINS_9allocatorINS_6vectorINS_12basic_stringIcNS_11char_traitsIcEENS2_IcEEEENS2_IS8_EEEEEENS_16reverse_iteratorIPSA_EEEEEC1B7v160006ESF_, symObjAddr: 0x67858, symBinAddr: 0x10007314C, symSize: 0x84 }
  - { offsetInCU: 0x3091D, offset: 0x3AFBF, size: 0x8, addend: 0x0, symName: __ZNSt3__128__exception_guard_exceptionsINS_29_AllocatorDestroyRangeReverseINS_9allocatorINS_6vectorINS_12basic_stringIcNS_11char_traitsIcEENS2_IcEEEENS2_IS8_EEEEEENS_16reverse_iteratorIPSA_EEEEEC2B7v160006ESF_, symObjAddr: 0x678DC, symBinAddr: 0x1000731D0, symSize: 0xF8 }
  - { offsetInCU: 0x30954, offset: 0x3AFF6, size: 0x8, addend: 0x0, symName: __ZNSt3__129_AllocatorDestroyRangeReverseINS_9allocatorINS_6vectorINS_12basic_stringIcNS_11char_traitsIcEENS1_IcEEEENS1_IS7_EEEEEENS_16reverse_iteratorIPS9_EEEC2B7v160006ERSA_RSD_SG_, symObjAddr: 0x679D4, symBinAddr: 0x1000732C8, symSize: 0x20C }
  - { offsetInCU: 0x309A9, offset: 0x3B04B, size: 0x8, addend: 0x0, symName: __ZNSt3__19allocatorINS_6vectorINS_12basic_stringIcNS_11char_traitsIcEENS0_IcEEEENS0_IS6_EEEEE9constructB7v160006IS8_JS8_EEEvPT_DpOT0_, symObjAddr: 0x67BE0, symBinAddr: 0x1000734D4, symSize: 0xEC }
  - { offsetInCU: 0x309FF, offset: 0x3B0A1, size: 0x8, addend: 0x0, symName: __ZNSt3__16vectorINS_12basic_stringIcNS_11char_traitsIcEENS_9allocatorIcEEEENS4_IS6_EEEC1B7v160006EOS8_, symObjAddr: 0x67CCC, symBinAddr: 0x1000735C0, symSize: 0x80 }
  - { offsetInCU: 0x30A39, offset: 0x3B0DB, size: 0x8, addend: 0x0, symName: __ZNSt3__16vectorINS_12basic_stringIcNS_11char_traitsIcEENS_9allocatorIcEEEENS4_IS6_EEEC2B7v160006EOS8_, symObjAddr: 0x67D4C, symBinAddr: 0x100073640, symSize: 0x794 }
  - { offsetInCU: 0x30A7A, offset: 0x3B11C, size: 0x8, addend: 0x0, symName: __ZNSt3__119__to_address_helperINS_16reverse_iteratorIPNS_6vectorINS_12basic_stringIcNS_11char_traitsIcEENS_9allocatorIcEEEENS6_IS8_EEEEEEvE6__callB7v160006ERKSC_, symObjAddr: 0x684F4, symBinAddr: 0x100073DE8, symSize: 0x70 }
  - { offsetInCU: 0x30A9D, offset: 0x3B13F, size: 0x8, addend: 0x0, symName: __ZNKSt3__116reverse_iteratorIPNS_6vectorINS_12basic_stringIcNS_11char_traitsIcEENS_9allocatorIcEEEENS5_IS7_EEEEEptB7v160006Ev, symObjAddr: 0x68564, symBinAddr: 0x100073E58, symSize: 0x6C }
  - { offsetInCU: 0x30AC2, offset: 0x3B164, size: 0x8, addend: 0x0, symName: __ZNSt3__128__exception_guard_exceptionsINS_29_AllocatorDestroyRangeReverseINS_9allocatorINS_6vectorINS_12basic_stringIcNS_11char_traitsIcEENS2_IcEEEENS2_IS8_EEEEEENS_16reverse_iteratorIPSA_EEEEED2B7v160006Ev, symObjAddr: 0x685D0, symBinAddr: 0x100073EC4, symSize: 0x17C }
  - { offsetInCU: 0x30AEA, offset: 0x3B18C, size: 0x8, addend: 0x0, symName: __ZNKSt3__129_AllocatorDestroyRangeReverseINS_9allocatorINS_6vectorINS_12basic_stringIcNS_11char_traitsIcEENS1_IcEEEENS1_IS7_EEEEEENS_16reverse_iteratorIPS9_EEEclB7v160006Ev, symObjAddr: 0x6874C, symBinAddr: 0x100074040, symSize: 0x418 }
  - { offsetInCU: 0x30B10, offset: 0x3B1B2, size: 0x8, addend: 0x0, symName: __ZNSt3__116reverse_iteratorINS0_IPNS_6vectorINS_12basic_stringIcNS_11char_traitsIcEENS_9allocatorIcEEEENS5_IS7_EEEEEEEC1B7v160006ESB_, symObjAddr: 0x68D08, symBinAddr: 0x1000745FC, symSize: 0x29C }
  - { offsetInCU: 0x30B4B, offset: 0x3B1ED, size: 0x8, addend: 0x0, symName: __ZNSt3__116reverse_iteratorINS0_IPNS_6vectorINS_12basic_stringIcNS_11char_traitsIcEENS_9allocatorIcEEEENS5_IS7_EEEEEEEppB7v160006Ev, symObjAddr: 0x69334, symBinAddr: 0x100074C28, symSize: 0x100 }
  - { offsetInCU: 0x30B70, offset: 0x3B212, size: 0x8, addend: 0x0, symName: __ZNKSt3__116reverse_iteratorINS0_IPNS_6vectorINS_12basic_stringIcNS_11char_traitsIcEENS_9allocatorIcEEEENS5_IS7_EEEEEEE4baseB7v160006Ev, symObjAddr: 0x69434, symBinAddr: 0x100074D28, symSize: 0x258 }
  - { offsetInCU: 0x30B9B, offset: 0x3B23D, size: 0x8, addend: 0x0, symName: __ZNSt3__119__to_address_helperINS_16reverse_iteratorINS1_IPNS_6vectorINS_12basic_stringIcNS_11char_traitsIcEENS_9allocatorIcEEEENS6_IS8_EEEEEEEEvE6__callB7v160006ERKSD_, symObjAddr: 0x6968C, symBinAddr: 0x100074F80, symSize: 0x70 }
  - { offsetInCU: 0x30BBE, offset: 0x3B260, size: 0x8, addend: 0x0, symName: __ZNKSt3__116reverse_iteratorINS0_IPNS_6vectorINS_12basic_stringIcNS_11char_traitsIcEENS_9allocatorIcEEEENS5_IS7_EEEEEEEptB7v160006Ev, symObjAddr: 0x696FC, symBinAddr: 0x100074FF0, symSize: 0x6C }
  - { offsetInCU: 0x30BE3, offset: 0x3B285, size: 0x8, addend: 0x0, symName: __ZNKSt3__116reverse_iteratorINS0_IPNS_6vectorINS_12basic_stringIcNS_11char_traitsIcEENS_9allocatorIcEEEENS5_IS7_EEEEEEEdeB7v160006Ev, symObjAddr: 0x69768, symBinAddr: 0x10007505C, symSize: 0x2C4 }
  - { offsetInCU: 0x30C1B, offset: 0x3B2BD, size: 0x8, addend: 0x0, symName: __ZNSt3__116reverse_iteratorIPNS_6vectorINS_12basic_stringIcNS_11char_traitsIcEENS_9allocatorIcEEEENS5_IS7_EEEEEmmB7v160006Ev, symObjAddr: 0x69A2C, symBinAddr: 0x100075320, symSize: 0x1B0 }
  - { offsetInCU: 0x30C40, offset: 0x3B2E2, size: 0x8, addend: 0x0, symName: __ZNSt3__116reverse_iteratorINS0_IPNS_6vectorINS_12basic_stringIcNS_11char_traitsIcEENS_9allocatorIcEEEENS5_IS7_EEEEEEEC2B7v160006ESB_, symObjAddr: 0x69BDC, symBinAddr: 0x1000754D0, symSize: 0x284 }
  - { offsetInCU: 0x30C7B, offset: 0x3B31D, size: 0x8, addend: 0x0, symName: __ZNSt3__116reverse_iteratorIPNS_6vectorINS_12basic_stringIcNS_11char_traitsIcEENS_9allocatorIcEEEENS5_IS7_EEEEEC2B7v160006ESA_, symObjAddr: 0x69E60, symBinAddr: 0x100075754, symSize: 0x10C }
  - { offsetInCU: 0x30CB1, offset: 0x3B353, size: 0x8, addend: 0x0, symName: __ZNSt3__114__split_bufferINS_6vectorINS_12basic_stringIcNS_11char_traitsIcEENS_9allocatorIcEEEENS5_IS7_EEEERNS5_IS9_EEED2Ev, symObjAddr: 0x69F6C, symBinAddr: 0x100075860, symSize: 0x16C }
  - { offsetInCU: 0x30CDC, offset: 0x3B37E, size: 0x8, addend: 0x0, symName: __ZNSt3__114__split_bufferINS_6vectorINS_12basic_stringIcNS_11char_traitsIcEENS_9allocatorIcEEEENS5_IS7_EEEERNS5_IS9_EEE5clearB7v160006Ev, symObjAddr: 0x6A0D8, symBinAddr: 0x1000759CC, symSize: 0xB4 }
  - { offsetInCU: 0x30D01, offset: 0x3B3A3, size: 0x8, addend: 0x0, symName: __ZNKSt3__114__split_bufferINS_6vectorINS_12basic_stringIcNS_11char_traitsIcEENS_9allocatorIcEEEENS5_IS7_EEEERNS5_IS9_EEE8capacityB7v160006Ev, symObjAddr: 0x6A18C, symBinAddr: 0x100075A80, symSize: 0x144 }
  - { offsetInCU: 0x30D26, offset: 0x3B3C8, size: 0x8, addend: 0x0, symName: __ZNSt3__114__split_bufferINS_6vectorINS_12basic_stringIcNS_11char_traitsIcEENS_9allocatorIcEEEENS5_IS7_EEEERNS5_IS9_EEE17__destruct_at_endB7v160006EPS9_, symObjAddr: 0x6A2D0, symBinAddr: 0x100075BC4, symSize: 0x74 }
  - { offsetInCU: 0x30D59, offset: 0x3B3FB, size: 0x8, addend: 0x0, symName: __ZNSt3__114__split_bufferINS_6vectorINS_12basic_stringIcNS_11char_traitsIcEENS_9allocatorIcEEEENS5_IS7_EEEERNS5_IS9_EEE17__destruct_at_endB7v160006EPS9_NS_17integral_constantIbLb0EEE, symObjAddr: 0x6A344, symBinAddr: 0x100075C38, symSize: 0x224 }
  - { offsetInCU: 0x30D99, offset: 0x3B43B, size: 0x8, addend: 0x0, symName: __ZNKSt3__114__split_bufferINS_6vectorINS_12basic_stringIcNS_11char_traitsIcEENS_9allocatorIcEEEENS5_IS7_EEEERNS5_IS9_EEE9__end_capB7v160006Ev, symObjAddr: 0x6A568, symBinAddr: 0x100075E5C, symSize: 0x100 }
  - { offsetInCU: 0x30DBE, offset: 0x3B460, size: 0x8, addend: 0x0, symName: __ZNKSt3__117__compressed_pairIPNS_6vectorINS_12basic_stringIcNS_11char_traitsIcEENS_9allocatorIcEEEENS5_IS7_EEEERNS5_IS9_EEE5firstB7v160006Ev, symObjAddr: 0x6A668, symBinAddr: 0x100075F5C, symSize: 0x124 }
  - { offsetInCU: 0x30DE3, offset: 0x3B485, size: 0x8, addend: 0x0, symName: __ZNSt3__16vectorI5FieldNS_9allocatorIS1_EEEC2B7v160006Ev, symObjAddr: 0x6A78C, symBinAddr: 0x100076080, symSize: 0x34C }
  - { offsetInCU: 0x30E0C, offset: 0x3B4AE, size: 0x8, addend: 0x0, symName: __ZNSt3__117__compressed_pairIP5FieldNS_9allocatorIS1_EEEC1B7v160006IDnNS_18__default_init_tagEEEOT_OT0_, symObjAddr: 0x6AAD8, symBinAddr: 0x1000763CC, symSize: 0x88 }
  - { offsetInCU: 0x30E62, offset: 0x3B504, size: 0x8, addend: 0x0, symName: __ZNSt3__117__compressed_pairIP5FieldNS_9allocatorIS1_EEEC2B7v160006IDnNS_18__default_init_tagEEEOT_OT0_, symObjAddr: 0x6AB70, symBinAddr: 0x100076464, symSize: 0x140 }
  - { offsetInCU: 0x30EB8, offset: 0x3B55A, size: 0x8, addend: 0x0, symName: __ZNSt3__122__compressed_pair_elemIP5FieldLi0ELb0EEC2B7v160006IDnvEEOT_, symObjAddr: 0x6ACB0, symBinAddr: 0x1000765A4, symSize: 0xBC }
  - { offsetInCU: 0x30EF9, offset: 0x3B59B, size: 0x8, addend: 0x0, symName: __ZNSt3__122__compressed_pair_elemINS_9allocatorI5FieldEELi1ELb1EEC2B7v160006ENS_18__default_init_tagE, symObjAddr: 0x6AD6C, symBinAddr: 0x100076660, symSize: 0x84 }
  - { offsetInCU: 0x30F2C, offset: 0x3B5CE, size: 0x8, addend: 0x0, symName: __ZNSt3__19allocatorI5FieldEC2B7v160006Ev, symObjAddr: 0x6ADF0, symBinAddr: 0x1000766E4, symSize: 0x84 }
  - { offsetInCU: 0x30F54, offset: 0x3B5F6, size: 0x8, addend: 0x0, symName: __ZNSt3__116__non_trivial_ifILb1ENS_9allocatorI5FieldEEEC2B7v160006Ev, symObjAddr: 0x6AE74, symBinAddr: 0x100076768, symSize: 0x54 }
  - { offsetInCU: 0x30F7C, offset: 0x3B61E, size: 0x8, addend: 0x0, symName: __ZNSt3__16vectorI5FieldNS_9allocatorIS1_EEED2B7v160006Ev, symObjAddr: 0x6AEC8, symBinAddr: 0x1000767BC, symSize: 0x298 }
  - { offsetInCU: 0x30FA5, offset: 0x3B647, size: 0x8, addend: 0x0, symName: __ZNSt3__16vectorI5FieldNS_9allocatorIS1_EEE16__destroy_vectorC1ERS4_, symObjAddr: 0x6B160, symBinAddr: 0x100076A54, symSize: 0x80 }
  - { offsetInCU: 0x30FDC, offset: 0x3B67E, size: 0x8, addend: 0x0, symName: __ZNSt3__16vectorI5FieldNS_9allocatorIS1_EEE16__destroy_vectorclB7v160006Ev, symObjAddr: 0x6B1E0, symBinAddr: 0x100076AD4, symSize: 0x478 }
  - { offsetInCU: 0x31001, offset: 0x3B6A3, size: 0x8, addend: 0x0, symName: __ZNSt3__16vectorI5FieldNS_9allocatorIS1_EEE16__destroy_vectorC2ERS4_, symObjAddr: 0x6B658, symBinAddr: 0x100076F4C, symSize: 0x108 }
  - { offsetInCU: 0x31038, offset: 0x3B6DA, size: 0x8, addend: 0x0, symName: __ZNKSt3__16vectorI5FieldNS_9allocatorIS1_EEE17__annotate_deleteB7v160006Ev, symObjAddr: 0x6B760, symBinAddr: 0x100077054, symSize: 0x370 }
  - { offsetInCU: 0x3105D, offset: 0x3B6FF, size: 0x8, addend: 0x0, symName: __ZNSt3__16vectorI5FieldNS_9allocatorIS1_EEE7__clearB7v160006Ev, symObjAddr: 0x6BAE0, symBinAddr: 0x1000773D4, symSize: 0xB0 }
  - { offsetInCU: 0x31082, offset: 0x3B724, size: 0x8, addend: 0x0, symName: __ZNSt3__116allocator_traitsINS_9allocatorI5FieldEEE10deallocateB7v160006ERS3_PS2_m, symObjAddr: 0x6BB90, symBinAddr: 0x100077484, symSize: 0x34 }
  - { offsetInCU: 0x310C4, offset: 0x3B766, size: 0x8, addend: 0x0, symName: __ZNSt3__16vectorI5FieldNS_9allocatorIS1_EEE7__allocB7v160006Ev, symObjAddr: 0x6BBC4, symBinAddr: 0x1000774B8, symSize: 0xE4 }
  - { offsetInCU: 0x310E9, offset: 0x3B78B, size: 0x8, addend: 0x0, symName: __ZNKSt3__16vectorI5FieldNS_9allocatorIS1_EEE8capacityB7v160006Ev, symObjAddr: 0x6BCA8, symBinAddr: 0x10007759C, symSize: 0x144 }
  - { offsetInCU: 0x3110E, offset: 0x3B7B0, size: 0x8, addend: 0x0, symName: __ZNKSt3__16vectorI5FieldNS_9allocatorIS1_EEE31__annotate_contiguous_containerEPKvS6_S6_S6_, symObjAddr: 0x6BDEC, symBinAddr: 0x1000776E0, symSize: 0x9C }
  - { offsetInCU: 0x3116F, offset: 0x3B811, size: 0x8, addend: 0x0, symName: __ZNKSt3__16vectorI5FieldNS_9allocatorIS1_EEE4dataB7v160006Ev, symObjAddr: 0x6BE88, symBinAddr: 0x10007777C, symSize: 0xB0 }
  - { offsetInCU: 0x31194, offset: 0x3B836, size: 0x8, addend: 0x0, symName: __ZNKSt3__16vectorI5FieldNS_9allocatorIS1_EEE4sizeB7v160006Ev, symObjAddr: 0x6BF38, symBinAddr: 0x10007782C, symSize: 0xF8 }
  - { offsetInCU: 0x311B9, offset: 0x3B85B, size: 0x8, addend: 0x0, symName: __ZNSt3__16vectorI5FieldNS_9allocatorIS1_EEE22__base_destruct_at_endB7v160006EPS1_, symObjAddr: 0x6C044, symBinAddr: 0x100077938, symSize: 0x1FC }
  - { offsetInCU: 0x311FC, offset: 0x3B89E, size: 0x8, addend: 0x0, symName: __ZNSt3__116allocator_traitsINS_9allocatorI5FieldEEE7destroyB7v160006IS2_vEEvRS3_PT_, symObjAddr: 0x6C240, symBinAddr: 0x100077B34, symSize: 0x2C }
  - { offsetInCU: 0x3123A, offset: 0x3B8DC, size: 0x8, addend: 0x0, symName: __ZNSt3__19allocatorI5FieldE7destroyB7v160006EPS1_, symObjAddr: 0x6C26C, symBinAddr: 0x100077B60, symSize: 0x9C }
  - { offsetInCU: 0x3126D, offset: 0x3B90F, size: 0x8, addend: 0x0, symName: __ZNSt3__19allocatorI5FieldE10deallocateB7v160006EPS1_m, symObjAddr: 0x6C308, symBinAddr: 0x100077BFC, symSize: 0x78 }
  - { offsetInCU: 0x312AE, offset: 0x3B950, size: 0x8, addend: 0x0, symName: __ZNSt3__117__compressed_pairIP5FieldNS_9allocatorIS1_EEE6secondB7v160006Ev, symObjAddr: 0x6C380, symBinAddr: 0x100077C74, symSize: 0x108 }
  - { offsetInCU: 0x312D3, offset: 0x3B975, size: 0x8, addend: 0x0, symName: __ZNSt3__122__compressed_pair_elemINS_9allocatorI5FieldEELi1ELb1EE5__getB7v160006Ev, symObjAddr: 0x6C488, symBinAddr: 0x100077D7C, symSize: 0x74 }
  - { offsetInCU: 0x312F8, offset: 0x3B99A, size: 0x8, addend: 0x0, symName: __ZNKSt3__16vectorI5FieldNS_9allocatorIS1_EEE9__end_capB7v160006Ev, symObjAddr: 0x6C4FC, symBinAddr: 0x100077DF0, symSize: 0x100 }
  - { offsetInCU: 0x3131D, offset: 0x3B9BF, size: 0x8, addend: 0x0, symName: __ZNKSt3__117__compressed_pairIP5FieldNS_9allocatorIS1_EEE5firstB7v160006Ev, symObjAddr: 0x6C5FC, symBinAddr: 0x100077EF0, symSize: 0x124 }
  - { offsetInCU: 0x31342, offset: 0x3B9E4, size: 0x8, addend: 0x0, symName: __ZNKSt3__122__compressed_pair_elemIP5FieldLi0ELb0EE5__getB7v160006Ev, symObjAddr: 0x6C720, symBinAddr: 0x100078014, symSize: 0xAC }
  - { offsetInCU: 0x31367, offset: 0x3BA09, size: 0x8, addend: 0x0, symName: __ZNSt3__16vectorI5FieldNS_9allocatorIS1_EEE9__end_capB7v160006Ev, symObjAddr: 0x6C7CC, symBinAddr: 0x1000780C0, symSize: 0x100 }
  - { offsetInCU: 0x3138C, offset: 0x3BA2E, size: 0x8, addend: 0x0, symName: __ZNSt3__16vectorI5FieldNS_9allocatorIS1_EEE22__construct_one_at_endB7v160006IJiEEEvDpOT_, symObjAddr: 0x6C8CC, symBinAddr: 0x1000781C0, symSize: 0x550 }
  - { offsetInCU: 0x313E1, offset: 0x3BA83, size: 0x8, addend: 0x0, symName: __ZNSt3__16vectorI5FieldNS_9allocatorIS1_EEE24__emplace_back_slow_pathIJiEEEvDpOT_, symObjAddr: 0x6CE1C, symBinAddr: 0x100078710, symSize: 0x5B0 }
  - { offsetInCU: 0x31448, offset: 0x3BAEA, size: 0x8, addend: 0x0, symName: __ZNSt3__16vectorI5FieldNS_9allocatorIS1_EEE4backB7v160006Ev, symObjAddr: 0x6D3CC, symBinAddr: 0x100078CC0, symSize: 0x18C }
  - { offsetInCU: 0x3146D, offset: 0x3BB0F, size: 0x8, addend: 0x0, symName: __ZNSt3__117__compressed_pairIP5FieldNS_9allocatorIS1_EEE5firstB7v160006Ev, symObjAddr: 0x6D558, symBinAddr: 0x100078E4C, symSize: 0x124 }
  - { offsetInCU: 0x31492, offset: 0x3BB34, size: 0x8, addend: 0x0, symName: __ZNSt3__122__compressed_pair_elemIP5FieldLi0ELb0EE5__getB7v160006Ev, symObjAddr: 0x6D67C, symBinAddr: 0x100078F70, symSize: 0xAC }
  - { offsetInCU: 0x314D0, offset: 0x3BB72, size: 0x8, addend: 0x0, symName: __ZNSt3__16vectorI5FieldNS_9allocatorIS1_EEE21_ConstructTransactionC1B7v160006ERS4_m, symObjAddr: 0x6D728, symBinAddr: 0x10007901C, symSize: 0x88 }
  - { offsetInCU: 0x31516, offset: 0x3BBB8, size: 0x8, addend: 0x0, symName: __ZNSt3__116allocator_traitsINS_9allocatorI5FieldEEE9constructB7v160006IS2_JiEvEEvRS3_PT_DpOT0_, symObjAddr: 0x6D7B0, symBinAddr: 0x1000790A4, symSize: 0x8C }
  - { offsetInCU: 0x3156F, offset: 0x3BC11, size: 0x8, addend: 0x0, symName: __ZNSt3__16vectorI5FieldNS_9allocatorIS1_EEE21_ConstructTransactionD1B7v160006Ev, symObjAddr: 0x6D83C, symBinAddr: 0x100079130, symSize: 0x78 }
  - { offsetInCU: 0x31597, offset: 0x3BC39, size: 0x8, addend: 0x0, symName: __ZNSt3__16vectorI5FieldNS_9allocatorIS1_EEE21_ConstructTransactionC2B7v160006ERS4_m, symObjAddr: 0x6D8B4, symBinAddr: 0x1000791A8, symSize: 0x3D8 }
  - { offsetInCU: 0x315DD, offset: 0x3BC7F, size: 0x8, addend: 0x0, symName: __ZNKSt3__16vectorI5FieldNS_9allocatorIS1_EEE19__annotate_increaseB7v160006Em, symObjAddr: 0x6DC8C, symBinAddr: 0x100079580, symSize: 0x44C }
  - { offsetInCU: 0x31611, offset: 0x3BCB3, size: 0x8, addend: 0x0, symName: __ZNSt3__19allocatorI5FieldE9constructB7v160006IS1_JiEEEvPT_DpOT0_, symObjAddr: 0x6E0D8, symBinAddr: 0x1000799CC, symSize: 0x158 }
  - { offsetInCU: 0x31667, offset: 0x3BD09, size: 0x8, addend: 0x0, symName: __ZNSt3__16vectorI5FieldNS_9allocatorIS1_EEE21_ConstructTransactionD2B7v160006Ev, symObjAddr: 0x6E230, symBinAddr: 0x100079B24, symSize: 0x390 }
  - { offsetInCU: 0x3168F, offset: 0x3BD31, size: 0x8, addend: 0x0, symName: __ZNKSt3__16vectorI5FieldNS_9allocatorIS1_EEE17__annotate_shrinkB7v160006Em, symObjAddr: 0x6E5C0, symBinAddr: 0x100079EB4, symSize: 0x360 }
  - { offsetInCU: 0x316C3, offset: 0x3BD65, size: 0x8, addend: 0x0, symName: __ZNKSt3__16vectorI5FieldNS_9allocatorIS1_EEE11__recommendB7v160006Em, symObjAddr: 0x6E920, symBinAddr: 0x10007A214, symSize: 0x45C }
  - { offsetInCU: 0x3171E, offset: 0x3BDC0, size: 0x8, addend: 0x0, symName: __ZNSt3__114__split_bufferI5FieldRNS_9allocatorIS1_EEEC1EmmS4_, symObjAddr: 0x6ED7C, symBinAddr: 0x10007A670, symSize: 0x90 }
  - { offsetInCU: 0x31773, offset: 0x3BE15, size: 0x8, addend: 0x0, symName: __ZNSt3__114__split_bufferI5FieldRNS_9allocatorIS1_EEED1Ev, symObjAddr: 0x6F670, symBinAddr: 0x10007AF64, symSize: 0x78 }
  - { offsetInCU: 0x3179E, offset: 0x3BE40, size: 0x8, addend: 0x0, symName: __ZNKSt3__16vectorI5FieldNS_9allocatorIS1_EEE8max_sizeEv, symObjAddr: 0x6F6E8, symBinAddr: 0x10007AFDC, symSize: 0x3B8 }
  - { offsetInCU: 0x317C6, offset: 0x3BE68, size: 0x8, addend: 0x0, symName: __ZNKSt3__16vectorI5FieldNS_9allocatorIS1_EEE20__throw_length_errorB7v160006Ev, symObjAddr: 0x6FAA0, symBinAddr: 0x10007B394, symSize: 0x80 }
  - { offsetInCU: 0x317F5, offset: 0x3BE97, size: 0x8, addend: 0x0, symName: __ZNSt3__116allocator_traitsINS_9allocatorI5FieldEEE8max_sizeB7v160006IS3_vEEmRKS3_, symObjAddr: 0x6FB20, symBinAddr: 0x10007B414, symSize: 0x24 }
  - { offsetInCU: 0x31824, offset: 0x3BEC6, size: 0x8, addend: 0x0, symName: __ZNKSt3__16vectorI5FieldNS_9allocatorIS1_EEE7__allocB7v160006Ev, symObjAddr: 0x6FB44, symBinAddr: 0x10007B438, symSize: 0xE4 }
  - { offsetInCU: 0x31849, offset: 0x3BEEB, size: 0x8, addend: 0x0, symName: __ZNKSt3__19allocatorI5FieldE8max_sizeB7v160006Ev, symObjAddr: 0x6FC28, symBinAddr: 0x10007B51C, symSize: 0x4C }
  - { offsetInCU: 0x3186E, offset: 0x3BF10, size: 0x8, addend: 0x0, symName: __ZNKSt3__117__compressed_pairIP5FieldNS_9allocatorIS1_EEE6secondB7v160006Ev, symObjAddr: 0x6FC74, symBinAddr: 0x10007B568, symSize: 0x108 }
  - { offsetInCU: 0x31893, offset: 0x3BF35, size: 0x8, addend: 0x0, symName: __ZNKSt3__122__compressed_pair_elemINS_9allocatorI5FieldEELi1ELb1EE5__getB7v160006Ev, symObjAddr: 0x6FD7C, symBinAddr: 0x10007B670, symSize: 0x74 }
  - { offsetInCU: 0x318B8, offset: 0x3BF5A, size: 0x8, addend: 0x0, symName: __ZNSt3__114__split_bufferI5FieldRNS_9allocatorIS1_EEEC2EmmS4_, symObjAddr: 0x6FDF0, symBinAddr: 0x10007B6E4, symSize: 0x7D8 }
  - { offsetInCU: 0x31933, offset: 0x3BFD5, size: 0x8, addend: 0x0, symName: __ZNSt3__117__compressed_pairIP5FieldRNS_9allocatorIS1_EEEC1B7v160006IDnS5_EEOT_OT0_, symObjAddr: 0x705C8, symBinAddr: 0x10007BEBC, symSize: 0x88 }
  - { offsetInCU: 0x31989, offset: 0x3C02B, size: 0x8, addend: 0x0, symName: __ZNSt3__114__split_bufferI5FieldRNS_9allocatorIS1_EEE7__allocB7v160006Ev, symObjAddr: 0x708DC, symBinAddr: 0x10007C1D0, symSize: 0xE4 }
  - { offsetInCU: 0x319AE, offset: 0x3C050, size: 0x8, addend: 0x0, symName: __ZNSt3__114__split_bufferI5FieldRNS_9allocatorIS1_EEE9__end_capB7v160006Ev, symObjAddr: 0x709C0, symBinAddr: 0x10007C2B4, symSize: 0x100 }
  - { offsetInCU: 0x319D3, offset: 0x3C075, size: 0x8, addend: 0x0, symName: __ZNSt3__117__compressed_pairIP5FieldRNS_9allocatorIS1_EEEC2B7v160006IDnS5_EEOT_OT0_, symObjAddr: 0x70AC0, symBinAddr: 0x10007C3B4, symSize: 0x198 }
  - { offsetInCU: 0x31A29, offset: 0x3C0CB, size: 0x8, addend: 0x0, symName: __ZNSt3__122__compressed_pair_elemIRNS_9allocatorI5FieldEELi1ELb0EEC2B7v160006IS4_vEEOT_, symObjAddr: 0x70C58, symBinAddr: 0x10007C54C, symSize: 0xEC }
  - { offsetInCU: 0x31A6A, offset: 0x3C10C, size: 0x8, addend: 0x0, symName: __ZNSt3__19allocatorI5FieldE8allocateB7v160006Em, symObjAddr: 0x70D44, symBinAddr: 0x10007C638, symSize: 0xCC }
  - { offsetInCU: 0x31A9D, offset: 0x3C13F, size: 0x8, addend: 0x0, symName: __ZNSt3__117__compressed_pairIP5FieldRNS_9allocatorIS1_EEE6secondB7v160006Ev, symObjAddr: 0x70E10, symBinAddr: 0x10007C704, symSize: 0x110 }
  - { offsetInCU: 0x31AC2, offset: 0x3C164, size: 0x8, addend: 0x0, symName: __ZNSt3__122__compressed_pair_elemIRNS_9allocatorI5FieldEELi1ELb0EE5__getB7v160006Ev, symObjAddr: 0x70F20, symBinAddr: 0x10007C814, symSize: 0xD8 }
  - { offsetInCU: 0x31AE7, offset: 0x3C189, size: 0x8, addend: 0x0, symName: __ZNSt3__117__compressed_pairIP5FieldRNS_9allocatorIS1_EEE5firstB7v160006Ev, symObjAddr: 0x70FF8, symBinAddr: 0x10007C8EC, symSize: 0x124 }
  - { offsetInCU: 0x31B0C, offset: 0x3C1AE, size: 0x8, addend: 0x0, symName: __ZNSt3__116reverse_iteratorIP5FieldEC1B7v160006ES2_, symObjAddr: 0x716F4, symBinAddr: 0x10007CFE8, symSize: 0x80 }
  - { offsetInCU: 0x31B42, offset: 0x3C1E4, size: 0x8, addend: 0x0, symName: __ZNKSt3__116reverse_iteratorIP5FieldE4baseB7v160006Ev, symObjAddr: 0x71774, symBinAddr: 0x10007D068, symSize: 0xB0 }
  - { offsetInCU: 0x31B67, offset: 0x3C209, size: 0x8, addend: 0x0, symName: __ZNKSt3__16vectorI5FieldNS_9allocatorIS1_EEE14__annotate_newB7v160006Em, symObjAddr: 0x719E4, symBinAddr: 0x10007D2D8, symSize: 0x360 }
  - { offsetInCU: 0x31B9B, offset: 0x3C23D, size: 0x8, addend: 0x0, symName: __ZNSt3__129_AllocatorDestroyRangeReverseINS_9allocatorI5FieldEENS_16reverse_iteratorIPS2_EEEC1B7v160006ERS3_RS6_S9_, symObjAddr: 0x71F90, symBinAddr: 0x10007D884, symSize: 0x90 }
  - { offsetInCU: 0x31BF0, offset: 0x3C292, size: 0x8, addend: 0x0, symName: __ZNSt3__116allocator_traitsINS_9allocatorI5FieldEEE9constructB7v160006IS2_JS2_EvEEvRS3_PT_DpOT0_, symObjAddr: 0x720BC, symBinAddr: 0x10007D9B0, symSize: 0x8C }
  - { offsetInCU: 0x31C49, offset: 0x3C2EB, size: 0x8, addend: 0x0, symName: __ZNKSt3__116reverse_iteratorIP5FieldEdeB7v160006Ev, symObjAddr: 0x721B4, symBinAddr: 0x10007DAA8, symSize: 0x184 }
  - { offsetInCU: 0x31C7C, offset: 0x3C31E, size: 0x8, addend: 0x0, symName: __ZNSt3__116reverse_iteratorIP5FieldEppB7v160006Ev, symObjAddr: 0x72338, symBinAddr: 0x10007DC2C, symSize: 0x1B0 }
  - { offsetInCU: 0x31CA1, offset: 0x3C343, size: 0x8, addend: 0x0, symName: __ZNSt3__128__exception_guard_exceptionsINS_29_AllocatorDestroyRangeReverseINS_9allocatorI5FieldEENS_16reverse_iteratorIPS3_EEEEE10__completeB7v160006Ev, symObjAddr: 0x724E8, symBinAddr: 0x10007DDDC, symSize: 0xD8 }
  - { offsetInCU: 0x31CC6, offset: 0x3C368, size: 0x8, addend: 0x0, symName: __ZNSt3__128__exception_guard_exceptionsINS_29_AllocatorDestroyRangeReverseINS_9allocatorI5FieldEENS_16reverse_iteratorIPS3_EEEEED1B7v160006Ev, symObjAddr: 0x725C0, symBinAddr: 0x10007DEB4, symSize: 0x78 }
  - { offsetInCU: 0x31CEE, offset: 0x3C390, size: 0x8, addend: 0x0, symName: __ZNSt3__128__exception_guard_exceptionsINS_29_AllocatorDestroyRangeReverseINS_9allocatorI5FieldEENS_16reverse_iteratorIPS3_EEEEEC1B7v160006ES8_, symObjAddr: 0x72638, symBinAddr: 0x10007DF2C, symSize: 0x84 }
  - { offsetInCU: 0x31D25, offset: 0x3C3C7, size: 0x8, addend: 0x0, symName: __ZNSt3__128__exception_guard_exceptionsINS_29_AllocatorDestroyRangeReverseINS_9allocatorI5FieldEENS_16reverse_iteratorIPS3_EEEEEC2B7v160006ES8_, symObjAddr: 0x726BC, symBinAddr: 0x10007DFB0, symSize: 0xF8 }
  - { offsetInCU: 0x31D5C, offset: 0x3C3FE, size: 0x8, addend: 0x0, symName: __ZNSt3__129_AllocatorDestroyRangeReverseINS_9allocatorI5FieldEENS_16reverse_iteratorIPS2_EEEC2B7v160006ERS3_RS6_S9_, symObjAddr: 0x727B4, symBinAddr: 0x10007E0A8, symSize: 0x20C }
  - { offsetInCU: 0x31DB1, offset: 0x3C453, size: 0x8, addend: 0x0, symName: __ZNSt3__19allocatorI5FieldE9constructB7v160006IS1_JS1_EEEvPT_DpOT0_, symObjAddr: 0x729C0, symBinAddr: 0x10007E2B4, symSize: 0xEC }
  - { offsetInCU: 0x31E0C, offset: 0x3C4AE, size: 0x8, addend: 0x0, symName: __ZNSt3__119__to_address_helperINS_16reverse_iteratorIP5FieldEEvE6__callB7v160006ERKS4_, symObjAddr: 0x72AAC, symBinAddr: 0x10007E3A0, symSize: 0x70 }
  - { offsetInCU: 0x31E2F, offset: 0x3C4D1, size: 0x8, addend: 0x0, symName: __ZNKSt3__116reverse_iteratorIP5FieldEptB7v160006Ev, symObjAddr: 0x72B1C, symBinAddr: 0x10007E410, symSize: 0x6C }
  - { offsetInCU: 0x31E54, offset: 0x3C4F6, size: 0x8, addend: 0x0, symName: __ZNSt3__128__exception_guard_exceptionsINS_29_AllocatorDestroyRangeReverseINS_9allocatorI5FieldEENS_16reverse_iteratorIPS3_EEEEED2B7v160006Ev, symObjAddr: 0x72B88, symBinAddr: 0x10007E47C, symSize: 0x17C }
  - { offsetInCU: 0x31E7C, offset: 0x3C51E, size: 0x8, addend: 0x0, symName: __ZNKSt3__129_AllocatorDestroyRangeReverseINS_9allocatorI5FieldEENS_16reverse_iteratorIPS2_EEEclB7v160006Ev, symObjAddr: 0x72D04, symBinAddr: 0x10007E5F8, symSize: 0x418 }
  - { offsetInCU: 0x31EA2, offset: 0x3C544, size: 0x8, addend: 0x0, symName: __ZNSt3__116reverse_iteratorINS0_IP5FieldEEEC1B7v160006ES3_, symObjAddr: 0x732C0, symBinAddr: 0x10007EBB4, symSize: 0x29C }
  - { offsetInCU: 0x31EDD, offset: 0x3C57F, size: 0x8, addend: 0x0, symName: __ZNSt3__116reverse_iteratorINS0_IP5FieldEEEppB7v160006Ev, symObjAddr: 0x738EC, symBinAddr: 0x10007F1E0, symSize: 0x100 }
  - { offsetInCU: 0x31F02, offset: 0x3C5A4, size: 0x8, addend: 0x0, symName: __ZNKSt3__116reverse_iteratorINS0_IP5FieldEEE4baseB7v160006Ev, symObjAddr: 0x739EC, symBinAddr: 0x10007F2E0, symSize: 0x258 }
  - { offsetInCU: 0x31F2D, offset: 0x3C5CF, size: 0x8, addend: 0x0, symName: __ZNSt3__119__to_address_helperINS_16reverse_iteratorINS1_IP5FieldEEEEvE6__callB7v160006ERKS5_, symObjAddr: 0x73C44, symBinAddr: 0x10007F538, symSize: 0x70 }
  - { offsetInCU: 0x31F50, offset: 0x3C5F2, size: 0x8, addend: 0x0, symName: __ZNKSt3__116reverse_iteratorINS0_IP5FieldEEEptB7v160006Ev, symObjAddr: 0x73CB4, symBinAddr: 0x10007F5A8, symSize: 0x6C }
  - { offsetInCU: 0x31F75, offset: 0x3C617, size: 0x8, addend: 0x0, symName: __ZNKSt3__116reverse_iteratorINS0_IP5FieldEEEdeB7v160006Ev, symObjAddr: 0x73D20, symBinAddr: 0x10007F614, symSize: 0x2C4 }
  - { offsetInCU: 0x31FAD, offset: 0x3C64F, size: 0x8, addend: 0x0, symName: __ZNSt3__116reverse_iteratorIP5FieldEmmB7v160006Ev, symObjAddr: 0x73FE4, symBinAddr: 0x10007F8D8, symSize: 0x1B0 }
  - { offsetInCU: 0x31FD2, offset: 0x3C674, size: 0x8, addend: 0x0, symName: __ZNSt3__116reverse_iteratorINS0_IP5FieldEEEC2B7v160006ES3_, symObjAddr: 0x74194, symBinAddr: 0x10007FA88, symSize: 0x284 }
  - { offsetInCU: 0x3200D, offset: 0x3C6AF, size: 0x8, addend: 0x0, symName: __ZNSt3__116reverse_iteratorIP5FieldEC2B7v160006ES2_, symObjAddr: 0x74418, symBinAddr: 0x10007FD0C, symSize: 0x10C }
  - { offsetInCU: 0x32043, offset: 0x3C6E5, size: 0x8, addend: 0x0, symName: __ZNSt3__114__split_bufferI5FieldRNS_9allocatorIS1_EEED2Ev, symObjAddr: 0x74524, symBinAddr: 0x10007FE18, symSize: 0x16C }
  - { offsetInCU: 0x3206E, offset: 0x3C710, size: 0x8, addend: 0x0, symName: __ZNSt3__114__split_bufferI5FieldRNS_9allocatorIS1_EEE5clearB7v160006Ev, symObjAddr: 0x74690, symBinAddr: 0x10007FF84, symSize: 0xB4 }
  - { offsetInCU: 0x32093, offset: 0x3C735, size: 0x8, addend: 0x0, symName: __ZNKSt3__114__split_bufferI5FieldRNS_9allocatorIS1_EEE8capacityB7v160006Ev, symObjAddr: 0x74744, symBinAddr: 0x100080038, symSize: 0x144 }
  - { offsetInCU: 0x320B8, offset: 0x3C75A, size: 0x8, addend: 0x0, symName: __ZNSt3__114__split_bufferI5FieldRNS_9allocatorIS1_EEE17__destruct_at_endB7v160006EPS1_, symObjAddr: 0x74888, symBinAddr: 0x10008017C, symSize: 0x74 }
  - { offsetInCU: 0x320EB, offset: 0x3C78D, size: 0x8, addend: 0x0, symName: __ZNSt3__114__split_bufferI5FieldRNS_9allocatorIS1_EEE17__destruct_at_endB7v160006EPS1_NS_17integral_constantIbLb0EEE, symObjAddr: 0x748FC, symBinAddr: 0x1000801F0, symSize: 0x224 }
  - { offsetInCU: 0x3212B, offset: 0x3C7CD, size: 0x8, addend: 0x0, symName: __ZNKSt3__114__split_bufferI5FieldRNS_9allocatorIS1_EEE9__end_capB7v160006Ev, symObjAddr: 0x74B20, symBinAddr: 0x100080414, symSize: 0x100 }
  - { offsetInCU: 0x32150, offset: 0x3C7F2, size: 0x8, addend: 0x0, symName: __ZNKSt3__117__compressed_pairIP5FieldRNS_9allocatorIS1_EEE5firstB7v160006Ev, symObjAddr: 0x74C20, symBinAddr: 0x100080514, symSize: 0x124 }
  - { offsetInCU: 0x32175, offset: 0x3C817, size: 0x8, addend: 0x0, symName: __ZNSt3__16vectorI5FieldNS_9allocatorIS1_EEE22__construct_one_at_endB7v160006IJdEEEvDpOT_, symObjAddr: 0x74D44, symBinAddr: 0x100080638, symSize: 0x550 }
  - { offsetInCU: 0x321CA, offset: 0x3C86C, size: 0x8, addend: 0x0, symName: __ZNSt3__16vectorI5FieldNS_9allocatorIS1_EEE24__emplace_back_slow_pathIJdEEEvDpOT_, symObjAddr: 0x75294, symBinAddr: 0x100080B88, symSize: 0x5B0 }
  - { offsetInCU: 0x32231, offset: 0x3C8D3, size: 0x8, addend: 0x0, symName: __ZNSt3__116allocator_traitsINS_9allocatorI5FieldEEE9constructB7v160006IS2_JdEvEEvRS3_PT_DpOT0_, symObjAddr: 0x75844, symBinAddr: 0x100081138, symSize: 0x8C }
  - { offsetInCU: 0x3228A, offset: 0x3C92C, size: 0x8, addend: 0x0, symName: __ZNSt3__19allocatorI5FieldE9constructB7v160006IS1_JdEEEvPT_DpOT0_, symObjAddr: 0x758D0, symBinAddr: 0x1000811C4, symSize: 0x130 }
  - { offsetInCU: 0x322E0, offset: 0x3C982, size: 0x8, addend: 0x0, symName: __ZNSt3__16vectorI5FieldNS_9allocatorIS1_EEE22__construct_one_at_endB7v160006IJbEEEvDpOT_, symObjAddr: 0x75A00, symBinAddr: 0x1000812F4, symSize: 0x534 }
  - { offsetInCU: 0x32335, offset: 0x3C9D7, size: 0x8, addend: 0x0, symName: __ZNSt3__16vectorI5FieldNS_9allocatorIS1_EEE24__emplace_back_slow_pathIJbEEEvDpOT_, symObjAddr: 0x75F34, symBinAddr: 0x100081828, symSize: 0x594 }
  - { offsetInCU: 0x3239C, offset: 0x3CA3E, size: 0x8, addend: 0x0, symName: __ZNSt3__116allocator_traitsINS_9allocatorI5FieldEEE9constructB7v160006IS2_JbEvEEvRS3_PT_DpOT0_, symObjAddr: 0x764C8, symBinAddr: 0x100081DBC, symSize: 0x70 }
  - { offsetInCU: 0x323F5, offset: 0x3CA97, size: 0x8, addend: 0x0, symName: __ZNSt3__19allocatorI5FieldE9constructB7v160006IS1_JbEEEvPT_DpOT0_, symObjAddr: 0x76538, symBinAddr: 0x100081E2C, symSize: 0x16C }
  - { offsetInCU: 0x3244B, offset: 0x3CAED, size: 0x8, addend: 0x0, symName: __ZNSt3__16vectorI5FieldNS_9allocatorIS1_EEE22__construct_one_at_endB7v160006IJRNS_12basic_stringIcNS_11char_traitsIcEENS2_IcEEEEEEEvDpOT_, symObjAddr: 0x766A4, symBinAddr: 0x100081F98, symSize: 0x550 }
  - { offsetInCU: 0x324A0, offset: 0x3CB42, size: 0x8, addend: 0x0, symName: __ZNSt3__16vectorI5FieldNS_9allocatorIS1_EEE24__emplace_back_slow_pathIJRNS_12basic_stringIcNS_11char_traitsIcEENS2_IcEEEEEEEvDpOT_, symObjAddr: 0x76BF4, symBinAddr: 0x1000824E8, symSize: 0x5B0 }
  - { offsetInCU: 0x32507, offset: 0x3CBA9, size: 0x8, addend: 0x0, symName: __ZNSt3__116allocator_traitsINS_9allocatorI5FieldEEE9constructB7v160006IS2_JRNS_12basic_stringIcNS_11char_traitsIcEENS1_IcEEEEEvEEvRS3_PT_DpOT0_, symObjAddr: 0x771A4, symBinAddr: 0x100082A98, symSize: 0x8C }
  - { offsetInCU: 0x32560, offset: 0x3CC02, size: 0x8, addend: 0x0, symName: __ZNSt3__19allocatorI5FieldE9constructB7v160006IS1_JRNS_12basic_stringIcNS_11char_traitsIcEENS0_IcEEEEEEEvPT_DpOT0_, symObjAddr: 0x77230, symBinAddr: 0x100082B24, symSize: 0xEC }
  - { offsetInCU: 0x325B6, offset: 0x3CC58, size: 0x8, addend: 0x0, symName: __ZNSt3__16vectorINS0_I5FieldNS_9allocatorIS1_EEEENS2_IS4_EEE11__make_iterB7v160006EPS4_, symObjAddr: 0x7731C, symBinAddr: 0x100082C10, symSize: 0x24C }
  - { offsetInCU: 0x325EC, offset: 0x3CC8E, size: 0x8, addend: 0x0, symName: __ZNSt3__111__wrap_iterIPNS_6vectorI5FieldNS_9allocatorIS2_EEEEEC1B7v160006EPKvS6_, symObjAddr: 0x77568, symBinAddr: 0x100082E5C, symSize: 0x88 }
  - { offsetInCU: 0x32630, offset: 0x3CCD2, size: 0x8, addend: 0x0, symName: __ZNSt3__111__wrap_iterIPNS_6vectorI5FieldNS_9allocatorIS2_EEEEEC2B7v160006EPKvS6_, symObjAddr: 0x775F0, symBinAddr: 0x100082EE4, symSize: 0xCC }
  - { offsetInCU: 0x32674, offset: 0x3CD16, size: 0x8, addend: 0x0, symName: __ZNSt3__19basic_iosIcNS_11char_traitsIcEEEC2B7v160006Ev, symObjAddr: 0x776BC, symBinAddr: 0x100082FB0, symSize: 0x118 }
  - { offsetInCU: 0x3269C, offset: 0x3CD3E, size: 0x8, addend: 0x0, symName: __ZNSt3__113basic_ostreamIcNS_11char_traitsIcEEEC2B7v160006EPNS_15basic_streambufIcS2_EE, symObjAddr: 0x777D4, symBinAddr: 0x1000830C8, symSize: 0x380 }
  - { offsetInCU: 0x326DE, offset: 0x3CD80, size: 0x8, addend: 0x0, symName: __ZNSt3__115basic_stringbufIcNS_11char_traitsIcEENS_9allocatorIcEEEC1B7v160006Ej, symObjAddr: 0x77B54, symBinAddr: 0x100083448, symSize: 0x80 }
  - { offsetInCU: 0x32714, offset: 0x3CDB6, size: 0x8, addend: 0x0, symName: __ZNSt3__18ios_baseC2B7v160006Ev, symObjAddr: 0x77BD4, symBinAddr: 0x1000834C8, symSize: 0xCC }
  - { offsetInCU: 0x3273C, offset: 0x3CDDE, size: 0x8, addend: 0x0, symName: __ZNSt3__19basic_iosIcNS_11char_traitsIcEEE4initB7v160006EPNS_15basic_streambufIcS2_EE, symObjAddr: 0x77CA0, symBinAddr: 0x100083594, symSize: 0x2C8 }
  - { offsetInCU: 0x32772, offset: 0x3CE14, size: 0x8, addend: 0x0, symName: __ZNSt3__115basic_stringbufIcNS_11char_traitsIcEENS_9allocatorIcEEEC2B7v160006Ej, symObjAddr: 0x77F68, symBinAddr: 0x10008385C, symSize: 0x1CC }
  - { offsetInCU: 0x327A8, offset: 0x3CE4A, size: 0x8, addend: 0x0, symName: __ZNKSt3__112__hash_tableINS_17__hash_value_typeImNS_13unordered_mapI5FieldNS_6vectorImNS_9allocatorImEEEENS_4hashIS3_EENS_8equal_toIS3_EENS5_INS_4pairIKS3_S7_EEEEEEEENS_22__unordered_map_hasherImSH_NS8_ImEENSA_ImEELb1EEENS_21__unordered_map_equalImSH_SK_SJ_Lb1EEENS5_ISH_EEE14__count_uniqueImEEmRKT_, symObjAddr: 0x78F70, symBinAddr: 0x100083A28, symSize: 0x350 }
  - { offsetInCU: 0x327E9, offset: 0x3CE8B, size: 0x8, addend: 0x0, symName: __ZNKSt3__112__hash_tableINS_17__hash_value_typeImNS_13unordered_mapI5FieldNS_6vectorImNS_9allocatorImEEEENS_4hashIS3_EENS_8equal_toIS3_EENS5_INS_4pairIKS3_S7_EEEEEEEENS_22__unordered_map_hasherImSH_NS8_ImEENSA_ImEELb1EEENS_21__unordered_map_equalImSH_SK_SJ_Lb1EEENS5_ISH_EEE4findImEENS_21__hash_const_iteratorIPNS_11__hash_nodeISH_PvEEEERKT_, symObjAddr: 0x79384, symBinAddr: 0x100083E3C, symSize: 0x8F4 }
  - { offsetInCU: 0x32870, offset: 0x3CF12, size: 0x8, addend: 0x0, symName: __ZNKSt3__112__hash_tableINS_17__hash_value_typeImNS_13unordered_mapI5FieldNS_6vectorImNS_9allocatorImEEEENS_4hashIS3_EENS_8equal_toIS3_EENS5_INS_4pairIKS3_S7_EEEEEEEENS_22__unordered_map_hasherImSH_NS8_ImEENSA_ImEELb1EEENS_21__unordered_map_equalImSH_SK_SJ_Lb1EEENS5_ISH_EEE3endEv, symObjAddr: 0x79C78, symBinAddr: 0x100084730, symSize: 0x248 }
  - { offsetInCU: 0x32898, offset: 0x3CF3A, size: 0x8, addend: 0x0, symName: __ZNKSt3__112__hash_tableINS_17__hash_value_typeImNS_13unordered_mapI5FieldNS_6vectorImNS_9allocatorImEEEENS_4hashIS3_EENS_8equal_toIS3_EENS5_INS_4pairIKS3_S7_EEEEEEEENS_22__unordered_map_hasherImSH_NS8_ImEENSA_ImEELb1EEENS_21__unordered_map_equalImSH_SK_SJ_Lb1EEENS5_ISH_EEE13hash_functionB7v160006Ev, symObjAddr: 0x79FD4, symBinAddr: 0x100084A8C, symSize: 0xE4 }
  - { offsetInCU: 0x328BD, offset: 0x3CF5F, size: 0x8, addend: 0x0, symName: __ZNKSt3__122__unordered_map_hasherImNS_17__hash_value_typeImNS_13unordered_mapI5FieldNS_6vectorImNS_9allocatorImEEEENS_4hashIS3_EENS_8equal_toIS3_EENS5_INS_4pairIKS3_S7_EEEEEEEENS8_ImEENSA_ImEELb1EEclB7v160006ERKm, symObjAddr: 0x7A0B8, symBinAddr: 0x100084B70, symSize: 0xC8 }
  - { offsetInCU: 0x328F1, offset: 0x3CF93, size: 0x8, addend: 0x0, symName: __ZNKSt3__112__hash_tableINS_17__hash_value_typeImNS_13unordered_mapI5FieldNS_6vectorImNS_9allocatorImEEEENS_4hashIS3_EENS_8equal_toIS3_EENS5_INS_4pairIKS3_S7_EEEEEEEENS_22__unordered_map_hasherImSH_NS8_ImEENSA_ImEELb1EEENS_21__unordered_map_equalImSH_SK_SJ_Lb1EEENS5_ISH_EEE12bucket_countB7v160006Ev, symObjAddr: 0x7A180, symBinAddr: 0x100084C38, symSize: 0xFC }
  - { offsetInCU: 0x32916, offset: 0x3CFB8, size: 0x8, addend: 0x0, symName: __ZNKSt3__110unique_ptrIA_PNS_16__hash_node_baseIPNS_11__hash_nodeINS_17__hash_value_typeImNS_13unordered_mapI5FieldNS_6vectorImNS_9allocatorImEEEENS_4hashIS5_EENS_8equal_toIS5_EENS7_INS_4pairIKS5_S9_EEEEEEEEPvEEEENS_25__bucket_list_deallocatorINS7_ISO_EEEEEixB7v160006Em, symObjAddr: 0x7A27C, symBinAddr: 0x100084D34, symSize: 0x25C }
  - { offsetInCU: 0x3294A, offset: 0x3CFEC, size: 0x8, addend: 0x0, symName: __ZNKSt3__116__hash_node_baseIPNS_11__hash_nodeINS_17__hash_value_typeImNS_13unordered_mapI5FieldNS_6vectorImNS_9allocatorImEEEENS_4hashIS4_EENS_8equal_toIS4_EENS6_INS_4pairIKS4_S8_EEEEEEEEPvEEE6__hashB7v160006Ev, symObjAddr: 0x7A4D8, symBinAddr: 0x100084F90, symSize: 0x180 }
  - { offsetInCU: 0x3296F, offset: 0x3D011, size: 0x8, addend: 0x0, symName: __ZNKSt3__112__hash_tableINS_17__hash_value_typeImNS_13unordered_mapI5FieldNS_6vectorImNS_9allocatorImEEEENS_4hashIS3_EENS_8equal_toIS3_EENS5_INS_4pairIKS3_S7_EEEEEEEENS_22__unordered_map_hasherImSH_NS8_ImEENSA_ImEELb1EEENS_21__unordered_map_equalImSH_SK_SJ_Lb1EEENS5_ISH_EEE6key_eqB7v160006Ev, symObjAddr: 0x7A658, symBinAddr: 0x100085110, symSize: 0xE4 }
  - { offsetInCU: 0x32994, offset: 0x3D036, size: 0x8, addend: 0x0, symName: __ZNKSt3__121__unordered_map_equalImNS_17__hash_value_typeImNS_13unordered_mapI5FieldNS_6vectorImNS_9allocatorImEEEENS_4hashIS3_EENS_8equal_toIS3_EENS5_INS_4pairIKS3_S7_EEEEEEEENSA_ImEENS8_ImEELb1EEclB7v160006ERKSH_RKm, symObjAddr: 0x7A73C, symBinAddr: 0x1000851F4, symSize: 0x190 }
  - { offsetInCU: 0x329D7, offset: 0x3D079, size: 0x8, addend: 0x0, symName: __ZNSt3__121__hash_const_iteratorIPNS_11__hash_nodeINS_17__hash_value_typeImNS_13unordered_mapI5FieldNS_6vectorImNS_9allocatorImEEEENS_4hashIS4_EENS_8equal_toIS4_EENS6_INS_4pairIKS4_S8_EEEEEEEEPvEEEC1B7v160006EPNS_16__hash_node_baseISL_EEPKv, symObjAddr: 0x7A8CC, symBinAddr: 0x100085384, symSize: 0x88 }
  - { offsetInCU: 0x32A1D, offset: 0x3D0BF, size: 0x8, addend: 0x0, symName: __ZNKSt3__117__compressed_pairImNS_22__unordered_map_hasherImNS_17__hash_value_typeImNS_13unordered_mapI5FieldNS_6vectorImNS_9allocatorImEEEENS_4hashIS4_EENS_8equal_toIS4_EENS6_INS_4pairIKS4_S8_EEEEEEEENS9_ImEENSB_ImEELb1EEEE6secondB7v160006Ev, symObjAddr: 0x7A954, symBinAddr: 0x10008540C, symSize: 0x108 }
  - { offsetInCU: 0x32A42, offset: 0x3D0E4, size: 0x8, addend: 0x0, symName: __ZNKSt3__122__compressed_pair_elemINS_22__unordered_map_hasherImNS_17__hash_value_typeImNS_13unordered_mapI5FieldNS_6vectorImNS_9allocatorImEEEENS_4hashIS4_EENS_8equal_toIS4_EENS6_INS_4pairIKS4_S8_EEEEEEEENS9_ImEENSB_ImEELb1EEELi1ELb1EE5__getB7v160006Ev, symObjAddr: 0x7AA5C, symBinAddr: 0x100085514, symSize: 0x74 }
  - { offsetInCU: 0x32A67, offset: 0x3D109, size: 0x8, addend: 0x0, symName: __ZNKSt3__14hashImEclB7v160006Em, symObjAddr: 0x7AAD0, symBinAddr: 0x100085588, symSize: 0x50 }
  - { offsetInCU: 0x32A9B, offset: 0x3D13D, size: 0x8, addend: 0x0, symName: __ZNKSt3__110unique_ptrIA_PNS_16__hash_node_baseIPNS_11__hash_nodeINS_17__hash_value_typeImNS_13unordered_mapI5FieldNS_6vectorImNS_9allocatorImEEEENS_4hashIS5_EENS_8equal_toIS5_EENS7_INS_4pairIKS5_S9_EEEEEEEEPvEEEENS_25__bucket_list_deallocatorINS7_ISO_EEEEE11get_deleterB7v160006Ev, symObjAddr: 0x7AB20, symBinAddr: 0x1000855D8, symSize: 0xF8 }
  - { offsetInCU: 0x32AC0, offset: 0x3D162, size: 0x8, addend: 0x0, symName: __ZNKSt3__125__bucket_list_deallocatorINS_9allocatorIPNS_16__hash_node_baseIPNS_11__hash_nodeINS_17__hash_value_typeImNS_13unordered_mapI5FieldNS_6vectorImNS1_ImEEEENS_4hashIS6_EENS_8equal_toIS6_EENS1_INS_4pairIKS6_S9_EEEEEEEEPvEEEEEEE4sizeB7v160006Ev, symObjAddr: 0x7AC18, symBinAddr: 0x1000856D0, symSize: 0x13C }
  - { offsetInCU: 0x32AE5, offset: 0x3D187, size: 0x8, addend: 0x0, symName: __ZNKSt3__117__compressed_pairIPPNS_16__hash_node_baseIPNS_11__hash_nodeINS_17__hash_value_typeImNS_13unordered_mapI5FieldNS_6vectorImNS_9allocatorImEEEENS_4hashIS5_EENS_8equal_toIS5_EENS7_INS_4pairIKS5_S9_EEEEEEEEPvEEEENS_25__bucket_list_deallocatorINS7_ISO_EEEEE6secondB7v160006Ev, symObjAddr: 0x7AD54, symBinAddr: 0x10008580C, symSize: 0x12C }
  - { offsetInCU: 0x32B0A, offset: 0x3D1AC, size: 0x8, addend: 0x0, symName: __ZNKSt3__122__compressed_pair_elemINS_25__bucket_list_deallocatorINS_9allocatorIPNS_16__hash_node_baseIPNS_11__hash_nodeINS_17__hash_value_typeImNS_13unordered_mapI5FieldNS_6vectorImNS2_ImEEEENS_4hashIS7_EENS_8equal_toIS7_EENS2_INS_4pairIKS7_SA_EEEEEEEEPvEEEEEEEELi1ELb0EE5__getB7v160006Ev, symObjAddr: 0x7AE80, symBinAddr: 0x100085938, symSize: 0xAC }
  - { offsetInCU: 0x32B2F, offset: 0x3D1D1, size: 0x8, addend: 0x0, symName: __ZNKSt3__117__compressed_pairImNS_9allocatorIPNS_16__hash_node_baseIPNS_11__hash_nodeINS_17__hash_value_typeImNS_13unordered_mapI5FieldNS_6vectorImNS1_ImEEEENS_4hashIS6_EENS_8equal_toIS6_EENS1_INS_4pairIKS6_S9_EEEEEEEEPvEEEEEEE5firstB7v160006Ev, symObjAddr: 0x7AF2C, symBinAddr: 0x1000859E4, symSize: 0x124 }
  - { offsetInCU: 0x32B54, offset: 0x3D1F6, size: 0x8, addend: 0x0, symName: __ZNKSt3__117__compressed_pairIPPNS_16__hash_node_baseIPNS_11__hash_nodeINS_17__hash_value_typeImNS_13unordered_mapI5FieldNS_6vectorImNS_9allocatorImEEEENS_4hashIS5_EENS_8equal_toIS5_EENS7_INS_4pairIKS5_S9_EEEEEEEEPvEEEENS_25__bucket_list_deallocatorINS7_ISO_EEEEE5firstB7v160006Ev, symObjAddr: 0x7B050, symBinAddr: 0x100085B08, symSize: 0x124 }
  - { offsetInCU: 0x32B79, offset: 0x3D21B, size: 0x8, addend: 0x0, symName: __ZNKSt3__122__compressed_pair_elemIPPNS_16__hash_node_baseIPNS_11__hash_nodeINS_17__hash_value_typeImNS_13unordered_mapI5FieldNS_6vectorImNS_9allocatorImEEEENS_4hashIS5_EENS_8equal_toIS5_EENS7_INS_4pairIKS5_S9_EEEEEEEEPvEEEELi0ELb0EE5__getB7v160006Ev, symObjAddr: 0x7B174, symBinAddr: 0x100085C2C, symSize: 0xAC }
  - { offsetInCU: 0x32B9E, offset: 0x3D240, size: 0x8, addend: 0x0, symName: __ZNKSt3__117__compressed_pairIfNS_21__unordered_map_equalImNS_17__hash_value_typeImNS_13unordered_mapI5FieldNS_6vectorImNS_9allocatorImEEEENS_4hashIS4_EENS_8equal_toIS4_EENS6_INS_4pairIKS4_S8_EEEEEEEENSB_ImEENS9_ImEELb1EEEE6secondB7v160006Ev, symObjAddr: 0x7B220, symBinAddr: 0x100085CD8, symSize: 0x108 }
  - { offsetInCU: 0x32BC3, offset: 0x3D265, size: 0x8, addend: 0x0, symName: __ZNKSt3__122__compressed_pair_elemINS_21__unordered_map_equalImNS_17__hash_value_typeImNS_13unordered_mapI5FieldNS_6vectorImNS_9allocatorImEEEENS_4hashIS4_EENS_8equal_toIS4_EENS6_INS_4pairIKS4_S8_EEEEEEEENSB_ImEENS9_ImEELb1EEELi1ELb1EE5__getB7v160006Ev, symObjAddr: 0x7B328, symBinAddr: 0x100085DE0, symSize: 0x74 }
  - { offsetInCU: 0x32BE8, offset: 0x3D28A, size: 0x8, addend: 0x0, symName: __ZNKSt3__18equal_toImEclB7v160006ERKmS3_, symObjAddr: 0x7B39C, symBinAddr: 0x100085E54, symSize: 0xEC }
  - { offsetInCU: 0x32C2B, offset: 0x3D2CD, size: 0x8, addend: 0x0, symName: __ZNKSt3__117__hash_value_typeImNS_13unordered_mapI5FieldNS_6vectorImNS_9allocatorImEEEENS_4hashIS2_EENS_8equal_toIS2_EENS4_INS_4pairIKS2_S6_EEEEEEE11__get_valueB7v160006Ev, symObjAddr: 0x7B488, symBinAddr: 0x100085F40, symSize: 0xB4 }
  - { offsetInCU: 0x32C50, offset: 0x3D2F2, size: 0x8, addend: 0x0, symName: __ZNSt3__121__hash_const_iteratorIPNS_11__hash_nodeINS_17__hash_value_typeImNS_13unordered_mapI5FieldNS_6vectorImNS_9allocatorImEEEENS_4hashIS4_EENS_8equal_toIS4_EENS6_INS_4pairIKS4_S8_EEEEEEEEPvEEEC2B7v160006EPNS_16__hash_node_baseISL_EEPKv, symObjAddr: 0x7B574, symBinAddr: 0x10008602C, symSize: 0xCC }
  - { offsetInCU: 0x32C96, offset: 0x3D338, size: 0x8, addend: 0x0, symName: __ZNSt3__112__hash_tableINS_17__hash_value_typeImNS_13unordered_mapI5FieldNS_6vectorImNS_9allocatorImEEEENS_4hashIS3_EENS_8equal_toIS3_EENS5_INS_4pairIKS3_S7_EEEEEEEENS_22__unordered_map_hasherImSH_NS8_ImEENSA_ImEELb1EEENS_21__unordered_map_equalImSH_SK_SJ_Lb1EEENS5_ISH_EEE25__emplace_unique_key_argsImJRKNS_21piecewise_construct_tENS_5tupleIJRKmEEENSU_IJEEEEEENSC_INS_15__hash_iteratorIPNS_11__hash_nodeISH_PvEEEEbEERKT_DpOT0_, symObjAddr: 0x7B640, symBinAddr: 0x1000860F8, symSize: 0x1D00 }
  - { offsetInCU: 0x32DAA, offset: 0x3D44C, size: 0x8, addend: 0x0, symName: __ZNKSt3__115__hash_iteratorIPNS_11__hash_nodeINS_17__hash_value_typeImNS_13unordered_mapI5FieldNS_6vectorImNS_9allocatorImEEEENS_4hashIS4_EENS_8equal_toIS4_EENS6_INS_4pairIKS4_S8_EEEEEEEEPvEEEptB7v160006Ev, symObjAddr: 0x7D584, symBinAddr: 0x10008803C, symSize: 0x190 }
  - { offsetInCU: 0x32DCF, offset: 0x3D471, size: 0x8, addend: 0x0, symName: __ZNSt3__112__hash_tableINS_17__hash_value_typeImNS_13unordered_mapI5FieldNS_6vectorImNS_9allocatorImEEEENS_4hashIS3_EENS_8equal_toIS3_EENS5_INS_4pairIKS3_S7_EEEEEEEENS_22__unordered_map_hasherImSH_NS8_ImEENSA_ImEELb1EEENS_21__unordered_map_equalImSH_SK_SJ_Lb1EEENS5_ISH_EEE13hash_functionB7v160006Ev, symObjAddr: 0x7D714, symBinAddr: 0x1000881CC, symSize: 0xE4 }
  - { offsetInCU: 0x32DF4, offset: 0x3D496, size: 0x8, addend: 0x0, symName: __ZNSt3__112__hash_tableINS_17__hash_value_typeImNS_13unordered_mapI5FieldNS_6vectorImNS_9allocatorImEEEENS_4hashIS3_EENS_8equal_toIS3_EENS5_INS_4pairIKS3_S7_EEEEEEEENS_22__unordered_map_hasherImSH_NS8_ImEENSA_ImEELb1EEENS_21__unordered_map_equalImSH_SK_SJ_Lb1EEENS5_ISH_EEE6key_eqB7v160006Ev, symObjAddr: 0x7D7F8, symBinAddr: 0x1000882B0, symSize: 0xE4 }
  - { offsetInCU: 0x32E19, offset: 0x3D4BB, size: 0x8, addend: 0x0, symName: __ZNSt3__112__hash_tableINS_17__hash_value_typeImNS_13unordered_mapI5FieldNS_6vectorImNS_9allocatorImEEEENS_4hashIS3_EENS_8equal_toIS3_EENS5_INS_4pairIKS3_S7_EEEEEEEENS_22__unordered_map_hasherImSH_NS8_ImEENSA_ImEELb1EEENS_21__unordered_map_equalImSH_SK_SJ_Lb1EEENS5_ISH_EEE21__construct_node_hashIRKNS_21piecewise_construct_tEJNS_5tupleIJRKmEEENSU_IJEEEEEENS_10unique_ptrINS_11__hash_nodeISH_PvEENS_22__hash_node_destructorINS5_IS12_EEEEEEmOT_DpOT0_, symObjAddr: 0x7D8DC, symBinAddr: 0x100088394, symSize: 0x948 }
  - { offsetInCU: 0x32EBC, offset: 0x3D55E, size: 0x8, addend: 0x0, symName: __ZNSt3__112__hash_tableINS_17__hash_value_typeImNS_13unordered_mapI5FieldNS_6vectorImNS_9allocatorImEEEENS_4hashIS3_EENS_8equal_toIS3_EENS5_INS_4pairIKS3_S7_EEEEEEEENS_22__unordered_map_hasherImSH_NS8_ImEENSA_ImEELb1EEENS_21__unordered_map_equalImSH_SK_SJ_Lb1EEENS5_ISH_EEE4sizeB7v160006Ev, symObjAddr: 0x7E224, symBinAddr: 0x100088CDC, symSize: 0x100 }
  - { offsetInCU: 0x32EE1, offset: 0x3D583, size: 0x8, addend: 0x0, symName: __ZNSt3__112__hash_tableINS_17__hash_value_typeImNS_13unordered_mapI5FieldNS_6vectorImNS_9allocatorImEEEENS_4hashIS3_EENS_8equal_toIS3_EENS5_INS_4pairIKS3_S7_EEEEEEEENS_22__unordered_map_hasherImSH_NS8_ImEENSA_ImEELb1EEENS_21__unordered_map_equalImSH_SK_SJ_Lb1EEENS5_ISH_EEE15max_load_factorB7v160006Ev, symObjAddr: 0x7E324, symBinAddr: 0x100088DDC, symSize: 0x100 }
  - { offsetInCU: 0x32F06, offset: 0x3D5A8, size: 0x8, addend: 0x0, symName: __ZNSt3__112__hash_tableINS_17__hash_value_typeImNS_13unordered_mapI5FieldNS_6vectorImNS_9allocatorImEEEENS_4hashIS3_EENS_8equal_toIS3_EENS5_INS_4pairIKS3_S7_EEEEEEEENS_22__unordered_map_hasherImSH_NS8_ImEENSA_ImEELb1EEENS_21__unordered_map_equalImSH_SK_SJ_Lb1EEENS5_ISH_EEE15__rehash_uniqueB7v160006Em, symObjAddr: 0x7E424, symBinAddr: 0x100088EDC, symSize: 0x74 }
  - { offsetInCU: 0x32F3A, offset: 0x3D5DC, size: 0x8, addend: 0x0, symName: __ZNSt3__116__hash_node_baseIPNS_11__hash_nodeINS_17__hash_value_typeImNS_13unordered_mapI5FieldNS_6vectorImNS_9allocatorImEEEENS_4hashIS4_EENS_8equal_toIS4_EENS6_INS_4pairIKS4_S8_EEEEEEEEPvEEE5__ptrB7v160006Ev, symObjAddr: 0x7E498, symBinAddr: 0x100088F50, symSize: 0xB0 }
  - { offsetInCU: 0x32F5F, offset: 0x3D601, size: 0x8, addend: 0x0, symName: __ZNKSt3__110unique_ptrINS_11__hash_nodeINS_17__hash_value_typeImNS_13unordered_mapI5FieldNS_6vectorImNS_9allocatorImEEEENS_4hashIS4_EENS_8equal_toIS4_EENS6_INS_4pairIKS4_S8_EEEEEEEEPvEENS_22__hash_node_destructorINS6_ISK_EEEEEptB7v160006Ev, symObjAddr: 0x7E548, symBinAddr: 0x100089000, symSize: 0x13C }
  - { offsetInCU: 0x32F84, offset: 0x3D626, size: 0x8, addend: 0x0, symName: __ZNKSt3__110unique_ptrINS_11__hash_nodeINS_17__hash_value_typeImNS_13unordered_mapI5FieldNS_6vectorImNS_9allocatorImEEEENS_4hashIS4_EENS_8equal_toIS4_EENS6_INS_4pairIKS4_S8_EEEEEEEEPvEENS_22__hash_node_destructorINS6_ISK_EEEEE3getB7v160006Ev, symObjAddr: 0x7E684, symBinAddr: 0x10008913C, symSize: 0x13C }
  - { offsetInCU: 0x32FA9, offset: 0x3D64B, size: 0x8, addend: 0x0, symName: __ZNSt3__110unique_ptrINS_11__hash_nodeINS_17__hash_value_typeImNS_13unordered_mapI5FieldNS_6vectorImNS_9allocatorImEEEENS_4hashIS4_EENS_8equal_toIS4_EENS6_INS_4pairIKS4_S8_EEEEEEEEPvEENS_22__hash_node_destructorINS6_ISK_EEEEE7releaseB7v160006Ev, symObjAddr: 0x7E7C0, symBinAddr: 0x100089278, symSize: 0x20C }
  - { offsetInCU: 0x32FDD, offset: 0x3D67F, size: 0x8, addend: 0x0, symName: __ZNSt3__110unique_ptrINS_11__hash_nodeINS_17__hash_value_typeImNS_13unordered_mapI5FieldNS_6vectorImNS_9allocatorImEEEENS_4hashIS4_EENS_8equal_toIS4_EENS6_INS_4pairIKS4_S8_EEEEEEEEPvEENS_22__hash_node_destructorINS6_ISK_EEEEED1B7v160006Ev, symObjAddr: 0x7E9CC, symBinAddr: 0x100089484, symSize: 0x78 }
  - { offsetInCU: 0x33005, offset: 0x3D6A7, size: 0x8, addend: 0x0, symName: __ZNSt3__115__hash_iteratorIPNS_11__hash_nodeINS_17__hash_value_typeImNS_13unordered_mapI5FieldNS_6vectorImNS_9allocatorImEEEENS_4hashIS4_EENS_8equal_toIS4_EENS6_INS_4pairIKS4_S8_EEEEEEEEPvEEEC1B7v160006EPNS_16__hash_node_baseISL_EEPKv, symObjAddr: 0x7EA44, symBinAddr: 0x1000894FC, symSize: 0x88 }
  - { offsetInCU: 0x33050, offset: 0x3D6F2, size: 0x8, addend: 0x0, symName: __ZNSt3__14pairINS_15__hash_iteratorIPNS_11__hash_nodeINS_17__hash_value_typeImNS_13unordered_mapI5FieldNS_6vectorImNS_9allocatorImEEEENS_4hashIS5_EENS_8equal_toIS5_EENS7_INS0_IKS5_S9_EEEEEEEEPvEEEEbEC1B7v160006ISM_RbLSJ_0EEEOT_OT0_, symObjAddr: 0x7EACC, symBinAddr: 0x100089584, symSize: 0x88 }
  - { offsetInCU: 0x330AC, offset: 0x3D74E, size: 0x8, addend: 0x0, symName: __ZNSt3__117__compressed_pairImNS_22__unordered_map_hasherImNS_17__hash_value_typeImNS_13unordered_mapI5FieldNS_6vectorImNS_9allocatorImEEEENS_4hashIS4_EENS_8equal_toIS4_EENS6_INS_4pairIKS4_S8_EEEEEEEENS9_ImEENSB_ImEELb1EEEE6secondB7v160006Ev, symObjAddr: 0x7EB54, symBinAddr: 0x10008960C, symSize: 0x108 }
  - { offsetInCU: 0x330D1, offset: 0x3D773, size: 0x8, addend: 0x0, symName: __ZNSt3__122__compressed_pair_elemINS_22__unordered_map_hasherImNS_17__hash_value_typeImNS_13unordered_mapI5FieldNS_6vectorImNS_9allocatorImEEEENS_4hashIS4_EENS_8equal_toIS4_EENS6_INS_4pairIKS4_S8_EEEEEEEENS9_ImEENSB_ImEELb1EEELi1ELb1EE5__getB7v160006Ev, symObjAddr: 0x7EC5C, symBinAddr: 0x100089714, symSize: 0x74 }
  - { offsetInCU: 0x330F6, offset: 0x3D798, size: 0x8, addend: 0x0, symName: __ZNSt3__117__compressed_pairIfNS_21__unordered_map_equalImNS_17__hash_value_typeImNS_13unordered_mapI5FieldNS_6vectorImNS_9allocatorImEEEENS_4hashIS4_EENS_8equal_toIS4_EENS6_INS_4pairIKS4_S8_EEEEEEEENSB_ImEENS9_ImEELb1EEEE6secondB7v160006Ev, symObjAddr: 0x7ECD0, symBinAddr: 0x100089788, symSize: 0x108 }
  - { offsetInCU: 0x3311B, offset: 0x3D7BD, size: 0x8, addend: 0x0, symName: __ZNSt3__122__compressed_pair_elemINS_21__unordered_map_equalImNS_17__hash_value_typeImNS_13unordered_mapI5FieldNS_6vectorImNS_9allocatorImEEEENS_4hashIS4_EENS_8equal_toIS4_EENS6_INS_4pairIKS4_S8_EEEEEEEENSB_ImEENS9_ImEELb1EEELi1ELb1EE5__getB7v160006Ev, symObjAddr: 0x7EDD8, symBinAddr: 0x100089890, symSize: 0x74 }
  - { offsetInCU: 0x33140, offset: 0x3D7E2, size: 0x8, addend: 0x0, symName: __ZNSt3__116allocator_traitsINS_9allocatorINS_11__hash_nodeINS_17__hash_value_typeImNS_13unordered_mapI5FieldNS_6vectorImNS1_ImEEEENS_4hashIS5_EENS_8equal_toIS5_EENS1_INS_4pairIKS5_S8_EEEEEEEEPvEEEEE8allocateB7v160006ERSL_m, symObjAddr: 0x7EE4C, symBinAddr: 0x100089904, symSize: 0x2C }
  - { offsetInCU: 0x33173, offset: 0x3D815, size: 0x8, addend: 0x0, symName: __ZNSt3__122__hash_node_destructorINS_9allocatorINS_11__hash_nodeINS_17__hash_value_typeImNS_13unordered_mapI5FieldNS_6vectorImNS1_ImEEEENS_4hashIS5_EENS_8equal_toIS5_EENS1_INS_4pairIKS5_S8_EEEEEEEEPvEEEEEC1B7v160006ERSL_b, symObjAddr: 0x7EE78, symBinAddr: 0x100089930, symSize: 0xCC }
  - { offsetInCU: 0x331BE, offset: 0x3D860, size: 0x8, addend: 0x0, symName: __ZNSt3__110unique_ptrINS_11__hash_nodeINS_17__hash_value_typeImNS_13unordered_mapI5FieldNS_6vectorImNS_9allocatorImEEEENS_4hashIS4_EENS_8equal_toIS4_EENS6_INS_4pairIKS4_S8_EEEEEEEEPvEENS_22__hash_node_destructorINS6_ISK_EEEEEC1B7v160006ILb1EvEEPSK_NS_16__dependent_typeINS_27__unique_ptr_deleter_sfinaeISN_EEXT_EE20__good_rval_ref_typeE, symObjAddr: 0x7EF44, symBinAddr: 0x1000899FC, symSize: 0x88 }
  - { offsetInCU: 0x3320E, offset: 0x3D8B0, size: 0x8, addend: 0x0, symName: __ZNSt3__116allocator_traitsINS_9allocatorINS_11__hash_nodeINS_17__hash_value_typeImNS_13unordered_mapI5FieldNS_6vectorImNS1_ImEEEENS_4hashIS5_EENS_8equal_toIS5_EENS1_INS_4pairIKS5_S8_EEEEEEEEPvEEEEE9constructB7v160006INSD_IKmSH_EEJRKNS_21piecewise_construct_tENS_5tupleIJRSO_EEENST_IJEEEEvEEvRSL_PT_DpOT0_, symObjAddr: 0x7EFCC, symBinAddr: 0x100089A84, symSize: 0xF4 }
  - { offsetInCU: 0x3328F, offset: 0x3D931, size: 0x8, addend: 0x0, symName: __ZNSt3__110unique_ptrINS_11__hash_nodeINS_17__hash_value_typeImNS_13unordered_mapI5FieldNS_6vectorImNS_9allocatorImEEEENS_4hashIS4_EENS_8equal_toIS4_EENS6_INS_4pairIKS4_S8_EEEEEEEEPvEENS_22__hash_node_destructorINS6_ISK_EEEEE11get_deleterB7v160006Ev, symObjAddr: 0x7F0C0, symBinAddr: 0x100089B78, symSize: 0xF8 }
  - { offsetInCU: 0x332B4, offset: 0x3D956, size: 0x8, addend: 0x0, symName: __ZNSt3__19allocatorINS_11__hash_nodeINS_17__hash_value_typeImNS_13unordered_mapI5FieldNS_6vectorImNS0_ImEEEENS_4hashIS4_EENS_8equal_toIS4_EENS0_INS_4pairIKS4_S7_EEEEEEEEPvEEE8allocateB7v160006Em, symObjAddr: 0x7F1B8, symBinAddr: 0x100089C70, symSize: 0xCC }
  - { offsetInCU: 0x332F1, offset: 0x3D993, size: 0x8, addend: 0x0, symName: __ZNSt3__116allocator_traitsINS_9allocatorINS_11__hash_nodeINS_17__hash_value_typeImNS_13unordered_mapI5FieldNS_6vectorImNS1_ImEEEENS_4hashIS5_EENS_8equal_toIS5_EENS1_INS_4pairIKS5_S8_EEEEEEEEPvEEEEE8max_sizeB7v160006ISL_vEEmRKSL_, symObjAddr: 0x7F284, symBinAddr: 0x100089D3C, symSize: 0x24 }
  - { offsetInCU: 0x33320, offset: 0x3D9C2, size: 0x8, addend: 0x0, symName: __ZNKSt3__19allocatorINS_11__hash_nodeINS_17__hash_value_typeImNS_13unordered_mapI5FieldNS_6vectorImNS0_ImEEEENS_4hashIS4_EENS_8equal_toIS4_EENS0_INS_4pairIKS4_S7_EEEEEEEEPvEEE8max_sizeB7v160006Ev, symObjAddr: 0x7F2A8, symBinAddr: 0x100089D60, symSize: 0x4C }
  - { offsetInCU: 0x33345, offset: 0x3D9E7, size: 0x8, addend: 0x0, symName: __ZNSt3__122__hash_node_destructorINS_9allocatorINS_11__hash_nodeINS_17__hash_value_typeImNS_13unordered_mapI5FieldNS_6vectorImNS1_ImEEEENS_4hashIS5_EENS_8equal_toIS5_EENS1_INS_4pairIKS5_S8_EEEEEEEEPvEEEEEC2B7v160006ERSL_b, symObjAddr: 0x7F2F4, symBinAddr: 0x100089DAC, symSize: 0x1A0 }
  - { offsetInCU: 0x3338B, offset: 0x3DA2D, size: 0x8, addend: 0x0, symName: __ZNSt3__110unique_ptrINS_11__hash_nodeINS_17__hash_value_typeImNS_13unordered_mapI5FieldNS_6vectorImNS_9allocatorImEEEENS_4hashIS4_EENS_8equal_toIS4_EENS6_INS_4pairIKS4_S8_EEEEEEEEPvEENS_22__hash_node_destructorINS6_ISK_EEEEEC2B7v160006ILb1EvEEPSK_NS_16__dependent_typeINS_27__unique_ptr_deleter_sfinaeISN_EEXT_EE20__good_rval_ref_typeE, symObjAddr: 0x7F494, symBinAddr: 0x100089F4C, symSize: 0x2BC }
  - { offsetInCU: 0x333E1, offset: 0x3DA83, size: 0x8, addend: 0x0, symName: __ZNSt3__117__compressed_pairIPNS_11__hash_nodeINS_17__hash_value_typeImNS_13unordered_mapI5FieldNS_6vectorImNS_9allocatorImEEEENS_4hashIS4_EENS_8equal_toIS4_EENS6_INS_4pairIKS4_S8_EEEEEEEEPvEENS_22__hash_node_destructorINS6_ISK_EEEEEC1B7v160006IRSL_SO_EEOT_OT0_, symObjAddr: 0x7F750, symBinAddr: 0x10008A208, symSize: 0x88 }
  - { offsetInCU: 0x33437, offset: 0x3DAD9, size: 0x8, addend: 0x0, symName: __ZNSt3__117__compressed_pairIPNS_11__hash_nodeINS_17__hash_value_typeImNS_13unordered_mapI5FieldNS_6vectorImNS_9allocatorImEEEENS_4hashIS4_EENS_8equal_toIS4_EENS6_INS_4pairIKS4_S8_EEEEEEEEPvEENS_22__hash_node_destructorINS6_ISK_EEEEEC2B7v160006IRSL_SO_EEOT_OT0_, symObjAddr: 0x7F7D8, symBinAddr: 0x10008A290, symSize: 0x1B4 }
  - { offsetInCU: 0x3348D, offset: 0x3DB2F, size: 0x8, addend: 0x0, symName: __ZNSt3__122__compressed_pair_elemIPNS_11__hash_nodeINS_17__hash_value_typeImNS_13unordered_mapI5FieldNS_6vectorImNS_9allocatorImEEEENS_4hashIS4_EENS_8equal_toIS4_EENS6_INS_4pairIKS4_S8_EEEEEEEEPvEELi0ELb0EEC2B7v160006IRSL_vEEOT_, symObjAddr: 0x7F98C, symBinAddr: 0x10008A444, symSize: 0x144 }
  - { offsetInCU: 0x334CE, offset: 0x3DB70, size: 0x8, addend: 0x0, symName: __ZNSt3__122__compressed_pair_elemINS_22__hash_node_destructorINS_9allocatorINS_11__hash_nodeINS_17__hash_value_typeImNS_13unordered_mapI5FieldNS_6vectorImNS2_ImEEEENS_4hashIS6_EENS_8equal_toIS6_EENS2_INS_4pairIKS6_S9_EEEEEEEEPvEEEEEELi1ELb0EEC2B7v160006ISN_vEEOT_, symObjAddr: 0x7FAD0, symBinAddr: 0x10008A588, symSize: 0x84 }
  - { offsetInCU: 0x3350F, offset: 0x3DBB1, size: 0x8, addend: 0x0, symName: __ZNSt3__19allocatorINS_11__hash_nodeINS_17__hash_value_typeImNS_13unordered_mapI5FieldNS_6vectorImNS0_ImEEEENS_4hashIS4_EENS_8equal_toIS4_EENS0_INS_4pairIKS4_S7_EEEEEEEEPvEEE9constructB7v160006INSC_IKmSG_EEJRKNS_21piecewise_construct_tENS_5tupleIJRSM_EEENSR_IJEEEEEEvPT_DpOT0_, symObjAddr: 0x7FB54, symBinAddr: 0x10008A60C, symSize: 0x284 }
  - { offsetInCU: 0x33590, offset: 0x3DC32, size: 0x8, addend: 0x0, symName: __ZNSt3__14pairIKmNS_13unordered_mapI5FieldNS_6vectorImNS_9allocatorImEEEENS_4hashIS3_EENS_8equal_toIS3_EENS5_INS0_IKS3_S7_EEEEEEEC1B7v160006IJRS1_EJEEENS_21piecewise_construct_tENS_5tupleIJDpT_EEENSK_IJDpT0_EEE, symObjAddr: 0x7FDD8, symBinAddr: 0x10008A890, symSize: 0x2A0 }
  - { offsetInCU: 0x33601, offset: 0x3DCA3, size: 0x8, addend: 0x0, symName: __ZNSt3__14pairIKmNS_13unordered_mapI5FieldNS_6vectorImNS_9allocatorImEEEENS_4hashIS3_EENS_8equal_toIS3_EENS5_INS0_IKS3_S7_EEEEEEEC1B7v160006IJRS1_EJEJLm0EEJEEENS_21piecewise_construct_tERNS_5tupleIJDpT_EEERNSK_IJDpT0_EEENS_15__tuple_indicesIJXspT1_EEEENST_IJXspT2_EEEE, symObjAddr: 0x80078, symBinAddr: 0x10008AB30, symSize: 0x88 }
  - { offsetInCU: 0x33694, offset: 0x3DD36, size: 0x8, addend: 0x0, symName: __ZNSt3__14pairIKmNS_13unordered_mapI5FieldNS_6vectorImNS_9allocatorImEEEENS_4hashIS3_EENS_8equal_toIS3_EENS5_INS0_IKS3_S7_EEEEEEEC2B7v160006IJRS1_EJEJLm0EEJEEENS_21piecewise_construct_tERNS_5tupleIJDpT_EEERNSK_IJDpT0_EEENS_15__tuple_indicesIJXspT1_EEEENST_IJXspT2_EEEE, symObjAddr: 0x80100, symBinAddr: 0x10008ABB8, symSize: 0x19C }
  - { offsetInCU: 0x33727, offset: 0x3DDC9, size: 0x8, addend: 0x0, symName: __ZNSt3__113unordered_mapI5FieldNS_6vectorImNS_9allocatorImEEEENS_4hashIS1_EENS_8equal_toIS1_EENS3_INS_4pairIKS1_S5_EEEEEC1B7v160006Ev, symObjAddr: 0x8037C, symBinAddr: 0x10008AE34, symSize: 0x78 }
  - { offsetInCU: 0x3374F, offset: 0x3DDF1, size: 0x8, addend: 0x0, symName: __ZNSt3__112__tuple_leafILm0ERKmLb0EE3getB7v160006Ev, symObjAddr: 0x803F4, symBinAddr: 0x10008AEAC, symSize: 0xF4 }
  - { offsetInCU: 0x33774, offset: 0x3DE16, size: 0x8, addend: 0x0, symName: __ZNSt3__113unordered_mapI5FieldNS_6vectorImNS_9allocatorImEEEENS_4hashIS1_EENS_8equal_toIS1_EENS3_INS_4pairIKS1_S5_EEEEEC2B7v160006Ev, symObjAddr: 0x804E8, symBinAddr: 0x10008AFA0, symSize: 0x94 }
  - { offsetInCU: 0x3379C, offset: 0x3DE3E, size: 0x8, addend: 0x0, symName: __ZNSt3__112__hash_tableINS_17__hash_value_typeI5FieldNS_6vectorImNS_9allocatorImEEEEEENS_22__unordered_map_hasherIS2_S7_NS_4hashIS2_EENS_8equal_toIS2_EELb1EEENS_21__unordered_map_equalIS2_S7_SC_SA_Lb1EEENS4_IS7_EEEC1Ev, symObjAddr: 0x8057C, symBinAddr: 0x10008B034, symSize: 0x78 }
  - { offsetInCU: 0x337C7, offset: 0x3DE69, size: 0x8, addend: 0x0, symName: __ZNSt3__112__hash_tableINS_17__hash_value_typeI5FieldNS_6vectorImNS_9allocatorImEEEEEENS_22__unordered_map_hasherIS2_S7_NS_4hashIS2_EENS_8equal_toIS2_EELb1EEENS_21__unordered_map_equalIS2_S7_SC_SA_Lb1EEENS4_IS7_EEEC2Ev, symObjAddr: 0x80604, symBinAddr: 0x10008B0BC, symSize: 0x3E0 }
  - { offsetInCU: 0x337F3, offset: 0x3DE95, size: 0x8, addend: 0x0, symName: __ZNSt3__110unique_ptrIA_PNS_16__hash_node_baseIPNS_11__hash_nodeINS_17__hash_value_typeI5FieldNS_6vectorImNS_9allocatorImEEEEEEPvEEEENS_25__bucket_list_deallocatorINS6_ISE_EEEEEC1B7v160006ILb1EvEEv, symObjAddr: 0x809E4, symBinAddr: 0x10008B49C, symSize: 0x78 }
  - { offsetInCU: 0x33827, offset: 0x3DEC9, size: 0x8, addend: 0x0, symName: __ZNSt3__117__compressed_pairINS_16__hash_node_baseIPNS_11__hash_nodeINS_17__hash_value_typeI5FieldNS_6vectorImNS_9allocatorImEEEEEEPvEEEENS6_ISB_EEEC1B7v160006ILb1EvEEv, symObjAddr: 0x80A5C, symBinAddr: 0x10008B514, symSize: 0x78 }
  - { offsetInCU: 0x3385B, offset: 0x3DEFD, size: 0x8, addend: 0x0, symName: __ZNSt3__117__compressed_pairImNS_22__unordered_map_hasherI5FieldNS_17__hash_value_typeIS2_NS_6vectorImNS_9allocatorImEEEEEENS_4hashIS2_EENS_8equal_toIS2_EELb1EEEEC1B7v160006IiNS_18__default_init_tagEEEOT_OT0_, symObjAddr: 0x80AD4, symBinAddr: 0x10008B58C, symSize: 0x88 }
  - { offsetInCU: 0x338B1, offset: 0x3DF53, size: 0x8, addend: 0x0, symName: __ZNSt3__117__compressed_pairIfNS_21__unordered_map_equalI5FieldNS_17__hash_value_typeIS2_NS_6vectorImNS_9allocatorImEEEEEENS_8equal_toIS2_EENS_4hashIS2_EELb1EEEEC1B7v160006IfNS_18__default_init_tagEEEOT_OT0_, symObjAddr: 0x80B5C, symBinAddr: 0x10008B614, symSize: 0x88 }
  - { offsetInCU: 0x33907, offset: 0x3DFA9, size: 0x8, addend: 0x0, symName: __ZNSt3__110unique_ptrIA_PNS_16__hash_node_baseIPNS_11__hash_nodeINS_17__hash_value_typeI5FieldNS_6vectorImNS_9allocatorImEEEEEEPvEEEENS_25__bucket_list_deallocatorINS6_ISE_EEEEEC2B7v160006ILb1EvEEv, symObjAddr: 0x80BE4, symBinAddr: 0x10008B69C, symSize: 0x268 }
  - { offsetInCU: 0x3393C, offset: 0x3DFDE, size: 0x8, addend: 0x0, symName: __ZNSt3__117__compressed_pairIPPNS_16__hash_node_baseIPNS_11__hash_nodeINS_17__hash_value_typeI5FieldNS_6vectorImNS_9allocatorImEEEEEEPvEEEENS_25__bucket_list_deallocatorINS6_ISE_EEEEEC1B7v160006INS_16__value_init_tagESL_EEOT_OT0_, symObjAddr: 0x80E4C, symBinAddr: 0x10008B904, symSize: 0x88 }
  - { offsetInCU: 0x33992, offset: 0x3E034, size: 0x8, addend: 0x0, symName: __ZNSt3__117__compressed_pairIPPNS_16__hash_node_baseIPNS_11__hash_nodeINS_17__hash_value_typeI5FieldNS_6vectorImNS_9allocatorImEEEEEEPvEEEENS_25__bucket_list_deallocatorINS6_ISE_EEEEEC2B7v160006INS_16__value_init_tagESL_EEOT_OT0_, symObjAddr: 0x80ED4, symBinAddr: 0x10008B98C, symSize: 0x118 }
  - { offsetInCU: 0x339E8, offset: 0x3E08A, size: 0x8, addend: 0x0, symName: __ZNSt3__122__compressed_pair_elemIPPNS_16__hash_node_baseIPNS_11__hash_nodeINS_17__hash_value_typeI5FieldNS_6vectorImNS_9allocatorImEEEEEEPvEEEELi0ELb0EEC2B7v160006ENS_16__value_init_tagE, symObjAddr: 0x80FEC, symBinAddr: 0x10008BAA4, symSize: 0xB8 }
  - { offsetInCU: 0x33A1B, offset: 0x3E0BD, size: 0x8, addend: 0x0, symName: __ZNSt3__122__compressed_pair_elemINS_25__bucket_list_deallocatorINS_9allocatorIPNS_16__hash_node_baseIPNS_11__hash_nodeINS_17__hash_value_typeI5FieldNS_6vectorImNS2_ImEEEEEEPvEEEEEEEELi1ELb0EEC2B7v160006ENS_16__value_init_tagE, symObjAddr: 0x810A4, symBinAddr: 0x10008BB5C, symSize: 0x78 }
  - { offsetInCU: 0x33A4E, offset: 0x3E0F0, size: 0x8, addend: 0x0, symName: __ZNSt3__125__bucket_list_deallocatorINS_9allocatorIPNS_16__hash_node_baseIPNS_11__hash_nodeINS_17__hash_value_typeI5FieldNS_6vectorImNS1_ImEEEEEEPvEEEEEEEC1B7v160006Ev, symObjAddr: 0x8111C, symBinAddr: 0x10008BBD4, symSize: 0x78 }
  - { offsetInCU: 0x33A76, offset: 0x3E118, size: 0x8, addend: 0x0, symName: __ZNSt3__125__bucket_list_deallocatorINS_9allocatorIPNS_16__hash_node_baseIPNS_11__hash_nodeINS_17__hash_value_typeI5FieldNS_6vectorImNS1_ImEEEEEEPvEEEEEEEC2B7v160006Ev, symObjAddr: 0x81194, symBinAddr: 0x10008BC4C, symSize: 0x2CC }
  - { offsetInCU: 0x33A9F, offset: 0x3E141, size: 0x8, addend: 0x0, symName: __ZNSt3__117__compressed_pairImNS_9allocatorIPNS_16__hash_node_baseIPNS_11__hash_nodeINS_17__hash_value_typeI5FieldNS_6vectorImNS1_ImEEEEEEPvEEEEEEEC1B7v160006IiNS_18__default_init_tagEEEOT_OT0_, symObjAddr: 0x81460, symBinAddr: 0x10008BF18, symSize: 0x88 }
  - { offsetInCU: 0x33AF5, offset: 0x3E197, size: 0x8, addend: 0x0, symName: __ZNSt3__117__compressed_pairImNS_9allocatorIPNS_16__hash_node_baseIPNS_11__hash_nodeINS_17__hash_value_typeI5FieldNS_6vectorImNS1_ImEEEEEEPvEEEEEEEC2B7v160006IiNS_18__default_init_tagEEEOT_OT0_, symObjAddr: 0x814E8, symBinAddr: 0x10008BFA0, symSize: 0x140 }
  - { offsetInCU: 0x33B4B, offset: 0x3E1ED, size: 0x8, addend: 0x0, symName: __ZNSt3__122__compressed_pair_elemINS_9allocatorIPNS_16__hash_node_baseIPNS_11__hash_nodeINS_17__hash_value_typeI5FieldNS_6vectorImNS1_ImEEEEEEPvEEEEEELi1ELb1EEC2B7v160006ENS_18__default_init_tagE, symObjAddr: 0x81628, symBinAddr: 0x10008C0E0, symSize: 0x84 }
  - { offsetInCU: 0x33B7E, offset: 0x3E220, size: 0x8, addend: 0x0, symName: __ZNSt3__19allocatorIPNS_16__hash_node_baseIPNS_11__hash_nodeINS_17__hash_value_typeI5FieldNS_6vectorImNS0_ImEEEEEEPvEEEEEC2B7v160006Ev, symObjAddr: 0x816AC, symBinAddr: 0x10008C164, symSize: 0x84 }
  - { offsetInCU: 0x33BA6, offset: 0x3E248, size: 0x8, addend: 0x0, symName: __ZNSt3__116__non_trivial_ifILb1ENS_9allocatorIPNS_16__hash_node_baseIPNS_11__hash_nodeINS_17__hash_value_typeI5FieldNS_6vectorImNS1_ImEEEEEEPvEEEEEEEC2B7v160006Ev, symObjAddr: 0x81730, symBinAddr: 0x10008C1E8, symSize: 0x54 }
  - { offsetInCU: 0x33BCE, offset: 0x3E270, size: 0x8, addend: 0x0, symName: __ZNSt3__117__compressed_pairINS_16__hash_node_baseIPNS_11__hash_nodeINS_17__hash_value_typeI5FieldNS_6vectorImNS_9allocatorImEEEEEEPvEEEENS6_ISB_EEEC2B7v160006ILb1EvEEv, symObjAddr: 0x81784, symBinAddr: 0x10008C23C, symSize: 0xEC }
  - { offsetInCU: 0x33C02, offset: 0x3E2A4, size: 0x8, addend: 0x0, symName: __ZNSt3__122__compressed_pair_elemINS_16__hash_node_baseIPNS_11__hash_nodeINS_17__hash_value_typeI5FieldNS_6vectorImNS_9allocatorImEEEEEEPvEEEELi0ELb0EEC2B7v160006ENS_16__value_init_tagE, symObjAddr: 0x81870, symBinAddr: 0x10008C328, symSize: 0x78 }
  - { offsetInCU: 0x33C35, offset: 0x3E2D7, size: 0x8, addend: 0x0, symName: __ZNSt3__122__compressed_pair_elemINS_9allocatorINS_11__hash_nodeINS_17__hash_value_typeI5FieldNS_6vectorImNS1_ImEEEEEEPvEEEELi1ELb1EEC2B7v160006ENS_16__value_init_tagE, symObjAddr: 0x818E8, symBinAddr: 0x10008C3A0, symSize: 0x84 }
  - { offsetInCU: 0x33C68, offset: 0x3E30A, size: 0x8, addend: 0x0, symName: __ZNSt3__116__hash_node_baseIPNS_11__hash_nodeINS_17__hash_value_typeI5FieldNS_6vectorImNS_9allocatorImEEEEEEPvEEEC1B7v160006Ev, symObjAddr: 0x8196C, symBinAddr: 0x10008C424, symSize: 0x78 }
  - { offsetInCU: 0x33C90, offset: 0x3E332, size: 0x8, addend: 0x0, symName: __ZNSt3__116__hash_node_baseIPNS_11__hash_nodeINS_17__hash_value_typeI5FieldNS_6vectorImNS_9allocatorImEEEEEEPvEEEC2B7v160006Ev, symObjAddr: 0x819E4, symBinAddr: 0x10008C49C, symSize: 0xB8 }
  - { offsetInCU: 0x33CB8, offset: 0x3E35A, size: 0x8, addend: 0x0, symName: __ZNSt3__19allocatorINS_11__hash_nodeINS_17__hash_value_typeI5FieldNS_6vectorImNS0_ImEEEEEEPvEEEC2B7v160006Ev, symObjAddr: 0x81A9C, symBinAddr: 0x10008C554, symSize: 0x84 }
  - { offsetInCU: 0x33CE0, offset: 0x3E382, size: 0x8, addend: 0x0, symName: __ZNSt3__116__non_trivial_ifILb1ENS_9allocatorINS_11__hash_nodeINS_17__hash_value_typeI5FieldNS_6vectorImNS1_ImEEEEEEPvEEEEEC2B7v160006Ev, symObjAddr: 0x81B20, symBinAddr: 0x10008C5D8, symSize: 0x54 }
  - { offsetInCU: 0x33D08, offset: 0x3E3AA, size: 0x8, addend: 0x0, symName: __ZNSt3__117__compressed_pairImNS_22__unordered_map_hasherI5FieldNS_17__hash_value_typeIS2_NS_6vectorImNS_9allocatorImEEEEEENS_4hashIS2_EENS_8equal_toIS2_EELb1EEEEC2B7v160006IiNS_18__default_init_tagEEEOT_OT0_, symObjAddr: 0x81B74, symBinAddr: 0x10008C62C, symSize: 0x140 }
  - { offsetInCU: 0x33D5E, offset: 0x3E400, size: 0x8, addend: 0x0, symName: __ZNSt3__122__compressed_pair_elemINS_22__unordered_map_hasherI5FieldNS_17__hash_value_typeIS2_NS_6vectorImNS_9allocatorImEEEEEENS_4hashIS2_EENS_8equal_toIS2_EELb1EEELi1ELb1EEC2B7v160006ENS_18__default_init_tagE, symObjAddr: 0x81CB4, symBinAddr: 0x10008C76C, symSize: 0x84 }
  - { offsetInCU: 0x33D91, offset: 0x3E433, size: 0x8, addend: 0x0, symName: __ZNSt3__122__unordered_map_hasherI5FieldNS_17__hash_value_typeIS1_NS_6vectorImNS_9allocatorImEEEEEENS_4hashIS1_EENS_8equal_toIS1_EELb1EEC2B7v160006Ev, symObjAddr: 0x81D38, symBinAddr: 0x10008C7F0, symSize: 0x54 }
  - { offsetInCU: 0x33DB9, offset: 0x3E45B, size: 0x8, addend: 0x0, symName: __ZNSt3__117__compressed_pairIfNS_21__unordered_map_equalI5FieldNS_17__hash_value_typeIS2_NS_6vectorImNS_9allocatorImEEEEEENS_8equal_toIS2_EENS_4hashIS2_EELb1EEEEC2B7v160006IfNS_18__default_init_tagEEEOT_OT0_, symObjAddr: 0x81D8C, symBinAddr: 0x10008C844, symSize: 0x140 }
  - { offsetInCU: 0x33E0F, offset: 0x3E4B1, size: 0x8, addend: 0x0, symName: __ZNSt3__122__compressed_pair_elemINS_21__unordered_map_equalI5FieldNS_17__hash_value_typeIS2_NS_6vectorImNS_9allocatorImEEEEEENS_8equal_toIS2_EENS_4hashIS2_EELb1EEELi1ELb1EEC2B7v160006ENS_18__default_init_tagE, symObjAddr: 0x81ECC, symBinAddr: 0x10008C984, symSize: 0x84 }
  - { offsetInCU: 0x33E42, offset: 0x3E4E4, size: 0x8, addend: 0x0, symName: __ZNSt3__121__unordered_map_equalI5FieldNS_17__hash_value_typeIS1_NS_6vectorImNS_9allocatorImEEEEEENS_8equal_toIS1_EENS_4hashIS1_EELb1EEC2B7v160006Ev, symObjAddr: 0x81F50, symBinAddr: 0x10008CA08, symSize: 0x54 }
  - { offsetInCU: 0x33E6A, offset: 0x3E50C, size: 0x8, addend: 0x0, symName: __ZNSt3__117__compressed_pairIPNS_11__hash_nodeINS_17__hash_value_typeImNS_13unordered_mapI5FieldNS_6vectorImNS_9allocatorImEEEENS_4hashIS4_EENS_8equal_toIS4_EENS6_INS_4pairIKS4_S8_EEEEEEEEPvEENS_22__hash_node_destructorINS6_ISK_EEEEE6secondB7v160006Ev, symObjAddr: 0x81FA4, symBinAddr: 0x10008CA5C, symSize: 0x12C }
  - { offsetInCU: 0x33E8F, offset: 0x3E531, size: 0x8, addend: 0x0, symName: __ZNSt3__122__compressed_pair_elemINS_22__hash_node_destructorINS_9allocatorINS_11__hash_nodeINS_17__hash_value_typeImNS_13unordered_mapI5FieldNS_6vectorImNS2_ImEEEENS_4hashIS6_EENS_8equal_toIS6_EENS2_INS_4pairIKS6_S9_EEEEEEEEPvEEEEEELi1ELb0EE5__getB7v160006Ev, symObjAddr: 0x820D0, symBinAddr: 0x10008CB88, symSize: 0xAC }
  - { offsetInCU: 0x33EB4, offset: 0x3E556, size: 0x8, addend: 0x0, symName: __ZNSt3__117__compressed_pairImNS_22__unordered_map_hasherImNS_17__hash_value_typeImNS_13unordered_mapI5FieldNS_6vectorImNS_9allocatorImEEEENS_4hashIS4_EENS_8equal_toIS4_EENS6_INS_4pairIKS4_S8_EEEEEEEENS9_ImEENSB_ImEELb1EEEE5firstB7v160006Ev, symObjAddr: 0x8217C, symBinAddr: 0x10008CC34, symSize: 0x124 }
  - { offsetInCU: 0x33ED9, offset: 0x3E57B, size: 0x8, addend: 0x0, symName: __ZNSt3__117__compressed_pairIfNS_21__unordered_map_equalImNS_17__hash_value_typeImNS_13unordered_mapI5FieldNS_6vectorImNS_9allocatorImEEEENS_4hashIS4_EENS_8equal_toIS4_EENS6_INS_4pairIKS4_S8_EEEEEEEENSB_ImEENS9_ImEELb1EEEE5firstB7v160006Ev, symObjAddr: 0x822A0, symBinAddr: 0x10008CD58, symSize: 0x124 }
  - { offsetInCU: 0x33EFE, offset: 0x3E5A0, size: 0x8, addend: 0x0, symName: __ZNSt3__112__hash_tableINS_17__hash_value_typeImNS_13unordered_mapI5FieldNS_6vectorImNS_9allocatorImEEEENS_4hashIS3_EENS_8equal_toIS3_EENS5_INS_4pairIKS3_S7_EEEEEEEENS_22__unordered_map_hasherImSH_NS8_ImEENSA_ImEELb1EEENS_21__unordered_map_equalImSH_SK_SJ_Lb1EEENS5_ISH_EEE8__rehashILb1EEEvm, symObjAddr: 0x823C4, symBinAddr: 0x10008CE7C, symSize: 0x9CC }
  - { offsetInCU: 0x33F53, offset: 0x3E5F5, size: 0x8, addend: 0x0, symName: __ZNSt3__112__hash_tableINS_17__hash_value_typeImNS_13unordered_mapI5FieldNS_6vectorImNS_9allocatorImEEEENS_4hashIS3_EENS_8equal_toIS3_EENS5_INS_4pairIKS3_S7_EEEEEEEENS_22__unordered_map_hasherImSH_NS8_ImEENSA_ImEELb1EEENS_21__unordered_map_equalImSH_SK_SJ_Lb1EEENS5_ISH_EEE11__do_rehashILb1EEEvm, symObjAddr: 0x82D90, symBinAddr: 0x10008D848, symSize: 0x108C }
  - { offsetInCU: 0x3403B, offset: 0x3E6DD, size: 0x8, addend: 0x0, symName: __ZNSt3__110unique_ptrIA_PNS_16__hash_node_baseIPNS_11__hash_nodeINS_17__hash_value_typeImNS_13unordered_mapI5FieldNS_6vectorImNS_9allocatorImEEEENS_4hashIS5_EENS_8equal_toIS5_EENS7_INS_4pairIKS5_S9_EEEEEEEEPvEEEENS_25__bucket_list_deallocatorINS7_ISO_EEEEE11get_deleterB7v160006Ev, symObjAddr: 0x83E2C, symBinAddr: 0x10008E8E4, symSize: 0xF8 }
  - { offsetInCU: 0x34060, offset: 0x3E702, size: 0x8, addend: 0x0, symName: __ZNSt3__110unique_ptrIA_PNS_16__hash_node_baseIPNS_11__hash_nodeINS_17__hash_value_typeImNS_13unordered_mapI5FieldNS_6vectorImNS_9allocatorImEEEENS_4hashIS5_EENS_8equal_toIS5_EENS7_INS_4pairIKS5_S9_EEEEEEEEPvEEEENS_25__bucket_list_deallocatorINS7_ISO_EEEEE5resetB7v160006IPSO_EENS_9enable_ifIXsr28_CheckArrayPointerConversionIT_EE5valueEvE4typeESX_, symObjAddr: 0x83F24, symBinAddr: 0x10008E9DC, symSize: 0x2CC }
  - { offsetInCU: 0x340AC, offset: 0x3E74E, size: 0x8, addend: 0x0, symName: __ZNSt3__116allocator_traitsINS_9allocatorIPNS_16__hash_node_baseIPNS_11__hash_nodeINS_17__hash_value_typeImNS_13unordered_mapI5FieldNS_6vectorImNS1_ImEEEENS_4hashIS6_EENS_8equal_toIS6_EENS1_INS_4pairIKS6_S9_EEEEEEEEPvEEEEEEE8allocateB7v160006ERSP_m, symObjAddr: 0x841F0, symBinAddr: 0x10008ECA8, symSize: 0x2C }
  - { offsetInCU: 0x340DF, offset: 0x3E781, size: 0x8, addend: 0x0, symName: __ZNSt3__19allocatorIPNS_16__hash_node_baseIPNS_11__hash_nodeINS_17__hash_value_typeImNS_13unordered_mapI5FieldNS_6vectorImNS0_ImEEEENS_4hashIS5_EENS_8equal_toIS5_EENS0_INS_4pairIKS5_S8_EEEEEEEEPvEEEEE8allocateB7v160006Em, symObjAddr: 0x8421C, symBinAddr: 0x10008ECD4, symSize: 0xCC }
  - { offsetInCU: 0x3411C, offset: 0x3E7BE, size: 0x8, addend: 0x0, symName: __ZNSt3__116allocator_traitsINS_9allocatorIPNS_16__hash_node_baseIPNS_11__hash_nodeINS_17__hash_value_typeImNS_13unordered_mapI5FieldNS_6vectorImNS1_ImEEEENS_4hashIS6_EENS_8equal_toIS6_EENS1_INS_4pairIKS6_S9_EEEEEEEEPvEEEEEEE8max_sizeB7v160006ISP_vEEmRKSP_, symObjAddr: 0x842E8, symBinAddr: 0x10008EDA0, symSize: 0x24 }
  - { offsetInCU: 0x3414B, offset: 0x3E7ED, size: 0x8, addend: 0x0, symName: __ZNKSt3__19allocatorIPNS_16__hash_node_baseIPNS_11__hash_nodeINS_17__hash_value_typeImNS_13unordered_mapI5FieldNS_6vectorImNS0_ImEEEENS_4hashIS5_EENS_8equal_toIS5_EENS0_INS_4pairIKS5_S8_EEEEEEEEPvEEEEE8max_sizeB7v160006Ev, symObjAddr: 0x8430C, symBinAddr: 0x10008EDC4, symSize: 0x4C }
  - { offsetInCU: 0x34170, offset: 0x3E812, size: 0x8, addend: 0x0, symName: __ZNKSt3__117__compressed_pairIPNS_11__hash_nodeINS_17__hash_value_typeImNS_13unordered_mapI5FieldNS_6vectorImNS_9allocatorImEEEENS_4hashIS4_EENS_8equal_toIS4_EENS6_INS_4pairIKS4_S8_EEEEEEEEPvEENS_22__hash_node_destructorINS6_ISK_EEEEE5firstB7v160006Ev, symObjAddr: 0x84358, symBinAddr: 0x10008EE10, symSize: 0x124 }
  - { offsetInCU: 0x34195, offset: 0x3E837, size: 0x8, addend: 0x0, symName: __ZNKSt3__122__compressed_pair_elemIPNS_11__hash_nodeINS_17__hash_value_typeImNS_13unordered_mapI5FieldNS_6vectorImNS_9allocatorImEEEENS_4hashIS4_EENS_8equal_toIS4_EENS6_INS_4pairIKS4_S8_EEEEEEEEPvEELi0ELb0EE5__getB7v160006Ev, symObjAddr: 0x8447C, symBinAddr: 0x10008EF34, symSize: 0xAC }
  - { offsetInCU: 0x341BA, offset: 0x3E85C, size: 0x8, addend: 0x0, symName: __ZNSt3__117__compressed_pairIPNS_11__hash_nodeINS_17__hash_value_typeImNS_13unordered_mapI5FieldNS_6vectorImNS_9allocatorImEEEENS_4hashIS4_EENS_8equal_toIS4_EENS6_INS_4pairIKS4_S8_EEEEEEEEPvEENS_22__hash_node_destructorINS6_ISK_EEEEE5firstB7v160006Ev, symObjAddr: 0x84528, symBinAddr: 0x10008EFE0, symSize: 0x124 }
  - { offsetInCU: 0x341DF, offset: 0x3E881, size: 0x8, addend: 0x0, symName: __ZNSt3__122__compressed_pair_elemIPNS_11__hash_nodeINS_17__hash_value_typeImNS_13unordered_mapI5FieldNS_6vectorImNS_9allocatorImEEEENS_4hashIS4_EENS_8equal_toIS4_EENS6_INS_4pairIKS4_S8_EEEEEEEEPvEELi0ELb0EE5__getB7v160006Ev, symObjAddr: 0x8464C, symBinAddr: 0x10008F104, symSize: 0xAC }
  - { offsetInCU: 0x34204, offset: 0x3E8A6, size: 0x8, addend: 0x0, symName: __ZNSt3__110unique_ptrINS_11__hash_nodeINS_17__hash_value_typeImNS_13unordered_mapI5FieldNS_6vectorImNS_9allocatorImEEEENS_4hashIS4_EENS_8equal_toIS4_EENS6_INS_4pairIKS4_S8_EEEEEEEEPvEENS_22__hash_node_destructorINS6_ISK_EEEEED2B7v160006Ev, symObjAddr: 0x846F8, symBinAddr: 0x10008F1B0, symSize: 0x7C }
  - { offsetInCU: 0x3422C, offset: 0x3E8CE, size: 0x8, addend: 0x0, symName: __ZNSt3__110unique_ptrINS_11__hash_nodeINS_17__hash_value_typeImNS_13unordered_mapI5FieldNS_6vectorImNS_9allocatorImEEEENS_4hashIS4_EENS_8equal_toIS4_EENS6_INS_4pairIKS4_S8_EEEEEEEEPvEENS_22__hash_node_destructorINS6_ISK_EEEEE5resetB7v160006EPSK_, symObjAddr: 0x84774, symBinAddr: 0x10008F22C, symSize: 0x2CC }
  - { offsetInCU: 0x3426F, offset: 0x3E911, size: 0x8, addend: 0x0, symName: __ZNSt3__122__hash_node_destructorINS_9allocatorINS_11__hash_nodeINS_17__hash_value_typeImNS_13unordered_mapI5FieldNS_6vectorImNS1_ImEEEENS_4hashIS5_EENS_8equal_toIS5_EENS1_INS_4pairIKS5_S8_EEEEEEEEPvEEEEEclB7v160006EPSK_, symObjAddr: 0x84A40, symBinAddr: 0x10008F4F8, symSize: 0x2BC }
  - { offsetInCU: 0x342A3, offset: 0x3E945, size: 0x8, addend: 0x0, symName: __ZNSt3__115__hash_iteratorIPNS_11__hash_nodeINS_17__hash_value_typeImNS_13unordered_mapI5FieldNS_6vectorImNS_9allocatorImEEEENS_4hashIS4_EENS_8equal_toIS4_EENS6_INS_4pairIKS4_S8_EEEEEEEEPvEEEC2B7v160006EPNS_16__hash_node_baseISL_EEPKv, symObjAddr: 0x84CFC, symBinAddr: 0x10008F7B4, symSize: 0xCC }
  - { offsetInCU: 0x342E9, offset: 0x3E98B, size: 0x8, addend: 0x0, symName: __ZNSt3__14pairINS_15__hash_iteratorIPNS_11__hash_nodeINS_17__hash_value_typeImNS_13unordered_mapI5FieldNS_6vectorImNS_9allocatorImEEEENS_4hashIS5_EENS_8equal_toIS5_EENS7_INS0_IKS5_S9_EEEEEEEEPvEEEEbEC2B7v160006ISM_RbLSJ_0EEEOT_OT0_, symObjAddr: 0x84DC8, symBinAddr: 0x10008F880, symSize: 0x1C8 }
  - { offsetInCU: 0x34345, offset: 0x3E9E7, size: 0x8, addend: 0x0, symName: __ZNSt3__15tupleIJRKmEEC1B7v160006INS_4_AndELi0EEES2_, symObjAddr: 0x84F90, symBinAddr: 0x10008FA48, symSize: 0x80 }
  - { offsetInCU: 0x3438C, offset: 0x3EA2E, size: 0x8, addend: 0x0, symName: __ZNSt3__15tupleIJRKmEEC2B7v160006INS_4_AndELi0EEES2_, symObjAddr: 0x85010, symBinAddr: 0x10008FAC8, symSize: 0xC8 }
  - { offsetInCU: 0x343D3, offset: 0x3EA75, size: 0x8, addend: 0x0, symName: __ZNSt3__112__tuple_implINS_15__tuple_indicesIJLm0EEEEJRKmEEC1B7v160006IJLm0EEJS4_EJEJEJS4_EEENS1_IJXspT_EEEENS_13__tuple_typesIJDpT0_EEENS1_IJXspT1_EEEENS8_IJDpT2_EEEDpOT3_, symObjAddr: 0x850D8, symBinAddr: 0x10008FB90, symSize: 0x80 }
  - { offsetInCU: 0x3446B, offset: 0x3EB0D, size: 0x8, addend: 0x0, symName: __ZNSt3__112__tuple_implINS_15__tuple_indicesIJLm0EEEEJRKmEEC2B7v160006IJLm0EEJS4_EJEJEJS4_EEENS1_IJXspT_EEEENS_13__tuple_typesIJDpT0_EEENS1_IJXspT1_EEEENS8_IJDpT2_EEEDpOT3_, symObjAddr: 0x85158, symBinAddr: 0x10008FC10, symSize: 0x10C }
  - { offsetInCU: 0x34503, offset: 0x3EBA5, size: 0x8, addend: 0x0, symName: __ZNSt3__112__tuple_leafILm0ERKmLb0EEC2B7v160006IS2_vEEOT_, symObjAddr: 0x85264, symBinAddr: 0x10008FD1C, symSize: 0x108 }
  - { offsetInCU: 0x34545, offset: 0x3EBE7, size: 0x8, addend: 0x0, symName: __ZNSt3__114pointer_traitsIPNS_17__hash_value_typeImNS_13unordered_mapI5FieldNS_6vectorImNS_9allocatorImEEEENS_4hashIS3_EENS_8equal_toIS3_EENS5_INS_4pairIKS3_S7_EEEEEEEEE10pointer_toB7v160006ERSH_, symObjAddr: 0x8536C, symBinAddr: 0x10008FE24, symSize: 0x14 }
  - { offsetInCU: 0x34568, offset: 0x3EC0A, size: 0x8, addend: 0x0, symName: __ZNKSt3__112__hash_tableINS_17__hash_value_typeI5FieldNS_6vectorImNS_9allocatorImEEEEEENS_22__unordered_map_hasherIS2_S7_NS_4hashIS2_EENS_8equal_toIS2_EELb1EEENS_21__unordered_map_equalIS2_S7_SC_SA_Lb1EEENS4_IS7_EEE14__count_uniqueIS2_EEmRKT_, symObjAddr: 0x85380, symBinAddr: 0x10008FE38, symSize: 0x350 }
  - { offsetInCU: 0x345A9, offset: 0x3EC4B, size: 0x8, addend: 0x0, symName: __ZNKSt3__112__hash_tableINS_17__hash_value_typeI5FieldNS_6vectorImNS_9allocatorImEEEEEENS_22__unordered_map_hasherIS2_S7_NS_4hashIS2_EENS_8equal_toIS2_EELb1EEENS_21__unordered_map_equalIS2_S7_SC_SA_Lb1EEENS4_IS7_EEE4findIS2_EENS_21__hash_const_iteratorIPNS_11__hash_nodeIS7_PvEEEERKT_, symObjAddr: 0x85794, symBinAddr: 0x10009024C, symSize: 0x8F4 }
  - { offsetInCU: 0x34630, offset: 0x3ECD2, size: 0x8, addend: 0x0, symName: __ZNKSt3__112__hash_tableINS_17__hash_value_typeI5FieldNS_6vectorImNS_9allocatorImEEEEEENS_22__unordered_map_hasherIS2_S7_NS_4hashIS2_EENS_8equal_toIS2_EELb1EEENS_21__unordered_map_equalIS2_S7_SC_SA_Lb1EEENS4_IS7_EEE3endEv, symObjAddr: 0x86088, symBinAddr: 0x100090B40, symSize: 0x248 }
  - { offsetInCU: 0x34658, offset: 0x3ECFA, size: 0x8, addend: 0x0, symName: __ZNKSt3__112__hash_tableINS_17__hash_value_typeI5FieldNS_6vectorImNS_9allocatorImEEEEEENS_22__unordered_map_hasherIS2_S7_NS_4hashIS2_EENS_8equal_toIS2_EELb1EEENS_21__unordered_map_equalIS2_S7_SC_SA_Lb1EEENS4_IS7_EEE13hash_functionB7v160006Ev, symObjAddr: 0x863E4, symBinAddr: 0x100090E9C, symSize: 0xE4 }
  - { offsetInCU: 0x3467D, offset: 0x3ED1F, size: 0x8, addend: 0x0, symName: __ZNKSt3__122__unordered_map_hasherI5FieldNS_17__hash_value_typeIS1_NS_6vectorImNS_9allocatorImEEEEEENS_4hashIS1_EENS_8equal_toIS1_EELb1EEclB7v160006ERKS1_, symObjAddr: 0x864C8, symBinAddr: 0x100090F80, symSize: 0xC8 }
  - { offsetInCU: 0x346B1, offset: 0x3ED53, size: 0x8, addend: 0x0, symName: __ZNKSt3__112__hash_tableINS_17__hash_value_typeI5FieldNS_6vectorImNS_9allocatorImEEEEEENS_22__unordered_map_hasherIS2_S7_NS_4hashIS2_EENS_8equal_toIS2_EELb1EEENS_21__unordered_map_equalIS2_S7_SC_SA_Lb1EEENS4_IS7_EEE12bucket_countB7v160006Ev, symObjAddr: 0x86590, symBinAddr: 0x100091048, symSize: 0xFC }
  - { offsetInCU: 0x346D6, offset: 0x3ED78, size: 0x8, addend: 0x0, symName: __ZNKSt3__110unique_ptrIA_PNS_16__hash_node_baseIPNS_11__hash_nodeINS_17__hash_value_typeI5FieldNS_6vectorImNS_9allocatorImEEEEEEPvEEEENS_25__bucket_list_deallocatorINS6_ISE_EEEEEixB7v160006Em, symObjAddr: 0x8668C, symBinAddr: 0x100091144, symSize: 0x25C }
  - { offsetInCU: 0x3470A, offset: 0x3EDAC, size: 0x8, addend: 0x0, symName: __ZNKSt3__116__hash_node_baseIPNS_11__hash_nodeINS_17__hash_value_typeI5FieldNS_6vectorImNS_9allocatorImEEEEEEPvEEE6__hashB7v160006Ev, symObjAddr: 0x868E8, symBinAddr: 0x1000913A0, symSize: 0x180 }
  - { offsetInCU: 0x3472F, offset: 0x3EDD1, size: 0x8, addend: 0x0, symName: __ZNKSt3__112__hash_tableINS_17__hash_value_typeI5FieldNS_6vectorImNS_9allocatorImEEEEEENS_22__unordered_map_hasherIS2_S7_NS_4hashIS2_EENS_8equal_toIS2_EELb1EEENS_21__unordered_map_equalIS2_S7_SC_SA_Lb1EEENS4_IS7_EEE6key_eqB7v160006Ev, symObjAddr: 0x86A68, symBinAddr: 0x100091520, symSize: 0xE4 }
  - { offsetInCU: 0x34754, offset: 0x3EDF6, size: 0x8, addend: 0x0, symName: __ZNKSt3__121__unordered_map_equalI5FieldNS_17__hash_value_typeIS1_NS_6vectorImNS_9allocatorImEEEEEENS_8equal_toIS1_EENS_4hashIS1_EELb1EEclB7v160006ERKS7_RKS1_, symObjAddr: 0x86B4C, symBinAddr: 0x100091604, symSize: 0x190 }
  - { offsetInCU: 0x34797, offset: 0x3EE39, size: 0x8, addend: 0x0, symName: __ZNSt3__121__hash_const_iteratorIPNS_11__hash_nodeINS_17__hash_value_typeI5FieldNS_6vectorImNS_9allocatorImEEEEEEPvEEEC1B7v160006EPNS_16__hash_node_baseISB_EEPKv, symObjAddr: 0x86CDC, symBinAddr: 0x100091794, symSize: 0x88 }
  - { offsetInCU: 0x347DD, offset: 0x3EE7F, size: 0x8, addend: 0x0, symName: __ZNKSt3__117__compressed_pairImNS_22__unordered_map_hasherI5FieldNS_17__hash_value_typeIS2_NS_6vectorImNS_9allocatorImEEEEEENS_4hashIS2_EENS_8equal_toIS2_EELb1EEEE6secondB7v160006Ev, symObjAddr: 0x86D64, symBinAddr: 0x10009181C, symSize: 0x108 }
  - { offsetInCU: 0x34802, offset: 0x3EEA4, size: 0x8, addend: 0x0, symName: __ZNKSt3__122__compressed_pair_elemINS_22__unordered_map_hasherI5FieldNS_17__hash_value_typeIS2_NS_6vectorImNS_9allocatorImEEEEEENS_4hashIS2_EENS_8equal_toIS2_EELb1EEELi1ELb1EE5__getB7v160006Ev, symObjAddr: 0x86E6C, symBinAddr: 0x100091924, symSize: 0x74 }
  - { offsetInCU: 0x34827, offset: 0x3EEC9, size: 0x8, addend: 0x0, symName: __ZNKSt3__110unique_ptrIA_PNS_16__hash_node_baseIPNS_11__hash_nodeINS_17__hash_value_typeI5FieldNS_6vectorImNS_9allocatorImEEEEEEPvEEEENS_25__bucket_list_deallocatorINS6_ISE_EEEEE11get_deleterB7v160006Ev, symObjAddr: 0x86EE0, symBinAddr: 0x100091998, symSize: 0xF8 }
  - { offsetInCU: 0x3484C, offset: 0x3EEEE, size: 0x8, addend: 0x0, symName: __ZNKSt3__125__bucket_list_deallocatorINS_9allocatorIPNS_16__hash_node_baseIPNS_11__hash_nodeINS_17__hash_value_typeI5FieldNS_6vectorImNS1_ImEEEEEEPvEEEEEEE4sizeB7v160006Ev, symObjAddr: 0x86FD8, symBinAddr: 0x100091A90, symSize: 0x13C }
  - { offsetInCU: 0x34871, offset: 0x3EF13, size: 0x8, addend: 0x0, symName: __ZNKSt3__117__compressed_pairIPPNS_16__hash_node_baseIPNS_11__hash_nodeINS_17__hash_value_typeI5FieldNS_6vectorImNS_9allocatorImEEEEEEPvEEEENS_25__bucket_list_deallocatorINS6_ISE_EEEEE6secondB7v160006Ev, symObjAddr: 0x87114, symBinAddr: 0x100091BCC, symSize: 0x12C }
  - { offsetInCU: 0x34896, offset: 0x3EF38, size: 0x8, addend: 0x0, symName: __ZNKSt3__122__compressed_pair_elemINS_25__bucket_list_deallocatorINS_9allocatorIPNS_16__hash_node_baseIPNS_11__hash_nodeINS_17__hash_value_typeI5FieldNS_6vectorImNS2_ImEEEEEEPvEEEEEEEELi1ELb0EE5__getB7v160006Ev, symObjAddr: 0x87240, symBinAddr: 0x100091CF8, symSize: 0xAC }
  - { offsetInCU: 0x348BB, offset: 0x3EF5D, size: 0x8, addend: 0x0, symName: __ZNKSt3__117__compressed_pairImNS_9allocatorIPNS_16__hash_node_baseIPNS_11__hash_nodeINS_17__hash_value_typeI5FieldNS_6vectorImNS1_ImEEEEEEPvEEEEEEE5firstB7v160006Ev, symObjAddr: 0x872EC, symBinAddr: 0x100091DA4, symSize: 0x124 }
  - { offsetInCU: 0x348E0, offset: 0x3EF82, size: 0x8, addend: 0x0, symName: __ZNKSt3__117__compressed_pairIPPNS_16__hash_node_baseIPNS_11__hash_nodeINS_17__hash_value_typeI5FieldNS_6vectorImNS_9allocatorImEEEEEEPvEEEENS_25__bucket_list_deallocatorINS6_ISE_EEEEE5firstB7v160006Ev, symObjAddr: 0x87410, symBinAddr: 0x100091EC8, symSize: 0x124 }
  - { offsetInCU: 0x34905, offset: 0x3EFA7, size: 0x8, addend: 0x0, symName: __ZNKSt3__122__compressed_pair_elemIPPNS_16__hash_node_baseIPNS_11__hash_nodeINS_17__hash_value_typeI5FieldNS_6vectorImNS_9allocatorImEEEEEEPvEEEELi0ELb0EE5__getB7v160006Ev, symObjAddr: 0x87534, symBinAddr: 0x100091FEC, symSize: 0xAC }
  - { offsetInCU: 0x3492A, offset: 0x3EFCC, size: 0x8, addend: 0x0, symName: __ZNKSt3__117__compressed_pairIfNS_21__unordered_map_equalI5FieldNS_17__hash_value_typeIS2_NS_6vectorImNS_9allocatorImEEEEEENS_8equal_toIS2_EENS_4hashIS2_EELb1EEEE6secondB7v160006Ev, symObjAddr: 0x875E0, symBinAddr: 0x100092098, symSize: 0x108 }
  - { offsetInCU: 0x3494F, offset: 0x3EFF1, size: 0x8, addend: 0x0, symName: __ZNKSt3__122__compressed_pair_elemINS_21__unordered_map_equalI5FieldNS_17__hash_value_typeIS2_NS_6vectorImNS_9allocatorImEEEEEENS_8equal_toIS2_EENS_4hashIS2_EELb1EEELi1ELb1EE5__getB7v160006Ev, symObjAddr: 0x876E8, symBinAddr: 0x1000921A0, symSize: 0x74 }
  - { offsetInCU: 0x34974, offset: 0x3F016, size: 0x8, addend: 0x0, symName: __ZNKSt3__18equal_toI5FieldEclB7v160006ERKS1_S4_, symObjAddr: 0x8775C, symBinAddr: 0x100092214, symSize: 0xF0 }
  - { offsetInCU: 0x349B7, offset: 0x3F059, size: 0x8, addend: 0x0, symName: __ZNKSt3__117__hash_value_typeI5FieldNS_6vectorImNS_9allocatorImEEEEE11__get_valueB7v160006Ev, symObjAddr: 0x8784C, symBinAddr: 0x100092304, symSize: 0xB4 }
  - { offsetInCU: 0x349DC, offset: 0x3F07E, size: 0x8, addend: 0x0, symName: __ZNSt3__121__hash_const_iteratorIPNS_11__hash_nodeINS_17__hash_value_typeI5FieldNS_6vectorImNS_9allocatorImEEEEEEPvEEEC2B7v160006EPNS_16__hash_node_baseISB_EEPKv, symObjAddr: 0x87938, symBinAddr: 0x1000923F0, symSize: 0xCC }
  - { offsetInCU: 0x34A22, offset: 0x3F0C4, size: 0x8, addend: 0x0, symName: __ZNSt3__112__hash_tableINS_17__hash_value_typeI5FieldNS_6vectorImNS_9allocatorImEEEEEENS_22__unordered_map_hasherIS2_S7_NS_4hashIS2_EENS_8equal_toIS2_EELb1EEENS_21__unordered_map_equalIS2_S7_SC_SA_Lb1EEENS4_IS7_EEE25__emplace_unique_key_argsIS2_JRKNS_21piecewise_construct_tENS_5tupleIJRKS2_EEENSM_IJEEEEEENS_4pairINS_15__hash_iteratorIPNS_11__hash_nodeIS7_PvEEEEbEERKT_DpOT0_, symObjAddr: 0x87A04, symBinAddr: 0x1000924BC, symSize: 0x1D00 }
  - { offsetInCU: 0x34B36, offset: 0x3F1D8, size: 0x8, addend: 0x0, symName: __ZNKSt3__115__hash_iteratorIPNS_11__hash_nodeINS_17__hash_value_typeI5FieldNS_6vectorImNS_9allocatorImEEEEEEPvEEEptB7v160006Ev, symObjAddr: 0x89948, symBinAddr: 0x100094400, symSize: 0x190 }
  - { offsetInCU: 0x34B5B, offset: 0x3F1FD, size: 0x8, addend: 0x0, symName: __ZNSt3__112__hash_tableINS_17__hash_value_typeI5FieldNS_6vectorImNS_9allocatorImEEEEEENS_22__unordered_map_hasherIS2_S7_NS_4hashIS2_EENS_8equal_toIS2_EELb1EEENS_21__unordered_map_equalIS2_S7_SC_SA_Lb1EEENS4_IS7_EEE13hash_functionB7v160006Ev, symObjAddr: 0x89AD8, symBinAddr: 0x100094590, symSize: 0xE4 }
  - { offsetInCU: 0x34B80, offset: 0x3F222, size: 0x8, addend: 0x0, symName: __ZNSt3__112__hash_tableINS_17__hash_value_typeI5FieldNS_6vectorImNS_9allocatorImEEEEEENS_22__unordered_map_hasherIS2_S7_NS_4hashIS2_EENS_8equal_toIS2_EELb1EEENS_21__unordered_map_equalIS2_S7_SC_SA_Lb1EEENS4_IS7_EEE6key_eqB7v160006Ev, symObjAddr: 0x89BBC, symBinAddr: 0x100094674, symSize: 0xE4 }
  - { offsetInCU: 0x34BA5, offset: 0x3F247, size: 0x8, addend: 0x0, symName: __ZNSt3__112__hash_tableINS_17__hash_value_typeI5FieldNS_6vectorImNS_9allocatorImEEEEEENS_22__unordered_map_hasherIS2_S7_NS_4hashIS2_EENS_8equal_toIS2_EELb1EEENS_21__unordered_map_equalIS2_S7_SC_SA_Lb1EEENS4_IS7_EEE21__construct_node_hashIRKNS_21piecewise_construct_tEJNS_5tupleIJRKS2_EEENSM_IJEEEEEENS_10unique_ptrINS_11__hash_nodeIS7_PvEENS_22__hash_node_destructorINS4_ISU_EEEEEEmOT_DpOT0_, symObjAddr: 0x89CA0, symBinAddr: 0x100094758, symSize: 0x948 }
  - { offsetInCU: 0x34C48, offset: 0x3F2EA, size: 0x8, addend: 0x0, symName: __ZNSt3__112__hash_tableINS_17__hash_value_typeI5FieldNS_6vectorImNS_9allocatorImEEEEEENS_22__unordered_map_hasherIS2_S7_NS_4hashIS2_EENS_8equal_toIS2_EELb1EEENS_21__unordered_map_equalIS2_S7_SC_SA_Lb1EEENS4_IS7_EEE4sizeB7v160006Ev, symObjAddr: 0x8A5E8, symBinAddr: 0x1000950A0, symSize: 0x100 }
  - { offsetInCU: 0x34C6D, offset: 0x3F30F, size: 0x8, addend: 0x0, symName: __ZNSt3__112__hash_tableINS_17__hash_value_typeI5FieldNS_6vectorImNS_9allocatorImEEEEEENS_22__unordered_map_hasherIS2_S7_NS_4hashIS2_EENS_8equal_toIS2_EELb1EEENS_21__unordered_map_equalIS2_S7_SC_SA_Lb1EEENS4_IS7_EEE15max_load_factorB7v160006Ev, symObjAddr: 0x8A6E8, symBinAddr: 0x1000951A0, symSize: 0x100 }
  - { offsetInCU: 0x34C92, offset: 0x3F334, size: 0x8, addend: 0x0, symName: __ZNSt3__112__hash_tableINS_17__hash_value_typeI5FieldNS_6vectorImNS_9allocatorImEEEEEENS_22__unordered_map_hasherIS2_S7_NS_4hashIS2_EENS_8equal_toIS2_EELb1EEENS_21__unordered_map_equalIS2_S7_SC_SA_Lb1EEENS4_IS7_EEE15__rehash_uniqueB7v160006Em, symObjAddr: 0x8A7E8, symBinAddr: 0x1000952A0, symSize: 0x74 }
  - { offsetInCU: 0x34CC6, offset: 0x3F368, size: 0x8, addend: 0x0, symName: __ZNSt3__116__hash_node_baseIPNS_11__hash_nodeINS_17__hash_value_typeI5FieldNS_6vectorImNS_9allocatorImEEEEEEPvEEE5__ptrB7v160006Ev, symObjAddr: 0x8A85C, symBinAddr: 0x100095314, symSize: 0xB0 }
  - { offsetInCU: 0x34CEB, offset: 0x3F38D, size: 0x8, addend: 0x0, symName: __ZNKSt3__110unique_ptrINS_11__hash_nodeINS_17__hash_value_typeI5FieldNS_6vectorImNS_9allocatorImEEEEEEPvEENS_22__hash_node_destructorINS5_ISA_EEEEEptB7v160006Ev, symObjAddr: 0x8A90C, symBinAddr: 0x1000953C4, symSize: 0x13C }
  - { offsetInCU: 0x34D10, offset: 0x3F3B2, size: 0x8, addend: 0x0, symName: __ZNKSt3__110unique_ptrINS_11__hash_nodeINS_17__hash_value_typeI5FieldNS_6vectorImNS_9allocatorImEEEEEEPvEENS_22__hash_node_destructorINS5_ISA_EEEEE3getB7v160006Ev, symObjAddr: 0x8AA48, symBinAddr: 0x100095500, symSize: 0x13C }
  - { offsetInCU: 0x34D35, offset: 0x3F3D7, size: 0x8, addend: 0x0, symName: __ZNSt3__110unique_ptrINS_11__hash_nodeINS_17__hash_value_typeI5FieldNS_6vectorImNS_9allocatorImEEEEEEPvEENS_22__hash_node_destructorINS5_ISA_EEEEE7releaseB7v160006Ev, symObjAddr: 0x8AB84, symBinAddr: 0x10009563C, symSize: 0x20C }
  - { offsetInCU: 0x34D69, offset: 0x3F40B, size: 0x8, addend: 0x0, symName: __ZNSt3__110unique_ptrINS_11__hash_nodeINS_17__hash_value_typeI5FieldNS_6vectorImNS_9allocatorImEEEEEEPvEENS_22__hash_node_destructorINS5_ISA_EEEEED1B7v160006Ev, symObjAddr: 0x8AD90, symBinAddr: 0x100095848, symSize: 0x78 }
  - { offsetInCU: 0x34D91, offset: 0x3F433, size: 0x8, addend: 0x0, symName: __ZNSt3__115__hash_iteratorIPNS_11__hash_nodeINS_17__hash_value_typeI5FieldNS_6vectorImNS_9allocatorImEEEEEEPvEEEC1B7v160006EPNS_16__hash_node_baseISB_EEPKv, symObjAddr: 0x8AE08, symBinAddr: 0x1000958C0, symSize: 0x88 }
  - { offsetInCU: 0x34DDC, offset: 0x3F47E, size: 0x8, addend: 0x0, symName: __ZNSt3__14pairINS_15__hash_iteratorIPNS_11__hash_nodeINS_17__hash_value_typeI5FieldNS_6vectorImNS_9allocatorImEEEEEEPvEEEEbEC1B7v160006ISD_RbLSA_0EEEOT_OT0_, symObjAddr: 0x8AE90, symBinAddr: 0x100095948, symSize: 0x88 }
  - { offsetInCU: 0x34E38, offset: 0x3F4DA, size: 0x8, addend: 0x0, symName: __ZNSt3__117__compressed_pairImNS_22__unordered_map_hasherI5FieldNS_17__hash_value_typeIS2_NS_6vectorImNS_9allocatorImEEEEEENS_4hashIS2_EENS_8equal_toIS2_EELb1EEEE6secondB7v160006Ev, symObjAddr: 0x8AF18, symBinAddr: 0x1000959D0, symSize: 0x108 }
  - { offsetInCU: 0x34E5D, offset: 0x3F4FF, size: 0x8, addend: 0x0, symName: __ZNSt3__122__compressed_pair_elemINS_22__unordered_map_hasherI5FieldNS_17__hash_value_typeIS2_NS_6vectorImNS_9allocatorImEEEEEENS_4hashIS2_EENS_8equal_toIS2_EELb1EEELi1ELb1EE5__getB7v160006Ev, symObjAddr: 0x8B020, symBinAddr: 0x100095AD8, symSize: 0x74 }
  - { offsetInCU: 0x34E82, offset: 0x3F524, size: 0x8, addend: 0x0, symName: __ZNSt3__117__compressed_pairIfNS_21__unordered_map_equalI5FieldNS_17__hash_value_typeIS2_NS_6vectorImNS_9allocatorImEEEEEENS_8equal_toIS2_EENS_4hashIS2_EELb1EEEE6secondB7v160006Ev, symObjAddr: 0x8B094, symBinAddr: 0x100095B4C, symSize: 0x108 }
  - { offsetInCU: 0x34EA7, offset: 0x3F549, size: 0x8, addend: 0x0, symName: __ZNSt3__122__compressed_pair_elemINS_21__unordered_map_equalI5FieldNS_17__hash_value_typeIS2_NS_6vectorImNS_9allocatorImEEEEEENS_8equal_toIS2_EENS_4hashIS2_EELb1EEELi1ELb1EE5__getB7v160006Ev, symObjAddr: 0x8B19C, symBinAddr: 0x100095C54, symSize: 0x74 }
  - { offsetInCU: 0x34ECC, offset: 0x3F56E, size: 0x8, addend: 0x0, symName: __ZNSt3__116allocator_traitsINS_9allocatorINS_11__hash_nodeINS_17__hash_value_typeI5FieldNS_6vectorImNS1_ImEEEEEEPvEEEEE8allocateB7v160006ERSB_m, symObjAddr: 0x8B210, symBinAddr: 0x100095CC8, symSize: 0x2C }
  - { offsetInCU: 0x34EFF, offset: 0x3F5A1, size: 0x8, addend: 0x0, symName: __ZNSt3__122__hash_node_destructorINS_9allocatorINS_11__hash_nodeINS_17__hash_value_typeI5FieldNS_6vectorImNS1_ImEEEEEEPvEEEEEC1B7v160006ERSB_b, symObjAddr: 0x8B23C, symBinAddr: 0x100095CF4, symSize: 0xCC }
  - { offsetInCU: 0x34F4A, offset: 0x3F5EC, size: 0x8, addend: 0x0, symName: __ZNSt3__110unique_ptrINS_11__hash_nodeINS_17__hash_value_typeI5FieldNS_6vectorImNS_9allocatorImEEEEEEPvEENS_22__hash_node_destructorINS5_ISA_EEEEEC1B7v160006ILb1EvEEPSA_NS_16__dependent_typeINS_27__unique_ptr_deleter_sfinaeISD_EEXT_EE20__good_rval_ref_typeE, symObjAddr: 0x8B308, symBinAddr: 0x100095DC0, symSize: 0x88 }
  - { offsetInCU: 0x34F9A, offset: 0x3F63C, size: 0x8, addend: 0x0, symName: __ZNSt3__116allocator_traitsINS_9allocatorINS_11__hash_nodeINS_17__hash_value_typeI5FieldNS_6vectorImNS1_ImEEEEEEPvEEEEE9constructB7v160006INS_4pairIKS4_S7_EEJRKNS_21piecewise_construct_tENS_5tupleIJRSF_EEENSK_IJEEEEvEEvRSB_PT_DpOT0_, symObjAddr: 0x8B390, symBinAddr: 0x100095E48, symSize: 0xF4 }
  - { offsetInCU: 0x3501B, offset: 0x3F6BD, size: 0x8, addend: 0x0, symName: __ZNSt3__110unique_ptrINS_11__hash_nodeINS_17__hash_value_typeI5FieldNS_6vectorImNS_9allocatorImEEEEEEPvEENS_22__hash_node_destructorINS5_ISA_EEEEE11get_deleterB7v160006Ev, symObjAddr: 0x8B484, symBinAddr: 0x100095F3C, symSize: 0xF8 }
  - { offsetInCU: 0x35040, offset: 0x3F6E2, size: 0x8, addend: 0x0, symName: __ZNSt3__19allocatorINS_11__hash_nodeINS_17__hash_value_typeI5FieldNS_6vectorImNS0_ImEEEEEEPvEEE8allocateB7v160006Em, symObjAddr: 0x8B57C, symBinAddr: 0x100096034, symSize: 0xD0 }
  - { offsetInCU: 0x3507D, offset: 0x3F71F, size: 0x8, addend: 0x0, symName: __ZNSt3__116allocator_traitsINS_9allocatorINS_11__hash_nodeINS_17__hash_value_typeI5FieldNS_6vectorImNS1_ImEEEEEEPvEEEEE8max_sizeB7v160006ISB_vEEmRKSB_, symObjAddr: 0x8B64C, symBinAddr: 0x100096104, symSize: 0x24 }
  - { offsetInCU: 0x350AC, offset: 0x3F74E, size: 0x8, addend: 0x0, symName: __ZNKSt3__19allocatorINS_11__hash_nodeINS_17__hash_value_typeI5FieldNS_6vectorImNS0_ImEEEEEEPvEEE8max_sizeB7v160006Ev, symObjAddr: 0x8B670, symBinAddr: 0x100096128, symSize: 0x58 }
  - { offsetInCU: 0x350D1, offset: 0x3F773, size: 0x8, addend: 0x0, symName: __ZNSt3__122__hash_node_destructorINS_9allocatorINS_11__hash_nodeINS_17__hash_value_typeI5FieldNS_6vectorImNS1_ImEEEEEEPvEEEEEC2B7v160006ERSB_b, symObjAddr: 0x8B6C8, symBinAddr: 0x100096180, symSize: 0x1A0 }
  - { offsetInCU: 0x35117, offset: 0x3F7B9, size: 0x8, addend: 0x0, symName: __ZNSt3__110unique_ptrINS_11__hash_nodeINS_17__hash_value_typeI5FieldNS_6vectorImNS_9allocatorImEEEEEEPvEENS_22__hash_node_destructorINS5_ISA_EEEEEC2B7v160006ILb1EvEEPSA_NS_16__dependent_typeINS_27__unique_ptr_deleter_sfinaeISD_EEXT_EE20__good_rval_ref_typeE, symObjAddr: 0x8B868, symBinAddr: 0x100096320, symSize: 0x2BC }
  - { offsetInCU: 0x3516D, offset: 0x3F80F, size: 0x8, addend: 0x0, symName: __ZNSt3__117__compressed_pairIPNS_11__hash_nodeINS_17__hash_value_typeI5FieldNS_6vectorImNS_9allocatorImEEEEEEPvEENS_22__hash_node_destructorINS5_ISA_EEEEEC1B7v160006IRSB_SE_EEOT_OT0_, symObjAddr: 0x8BB24, symBinAddr: 0x1000965DC, symSize: 0x88 }
  - { offsetInCU: 0x351C3, offset: 0x3F865, size: 0x8, addend: 0x0, symName: __ZNSt3__117__compressed_pairIPNS_11__hash_nodeINS_17__hash_value_typeI5FieldNS_6vectorImNS_9allocatorImEEEEEEPvEENS_22__hash_node_destructorINS5_ISA_EEEEEC2B7v160006IRSB_SE_EEOT_OT0_, symObjAddr: 0x8BBAC, symBinAddr: 0x100096664, symSize: 0x1B4 }
  - { offsetInCU: 0x35219, offset: 0x3F8BB, size: 0x8, addend: 0x0, symName: __ZNSt3__122__compressed_pair_elemIPNS_11__hash_nodeINS_17__hash_value_typeI5FieldNS_6vectorImNS_9allocatorImEEEEEEPvEELi0ELb0EEC2B7v160006IRSB_vEEOT_, symObjAddr: 0x8BD60, symBinAddr: 0x100096818, symSize: 0x144 }
  - { offsetInCU: 0x3525A, offset: 0x3F8FC, size: 0x8, addend: 0x0, symName: __ZNSt3__122__compressed_pair_elemINS_22__hash_node_destructorINS_9allocatorINS_11__hash_nodeINS_17__hash_value_typeI5FieldNS_6vectorImNS2_ImEEEEEEPvEEEEEELi1ELb0EEC2B7v160006ISD_vEEOT_, symObjAddr: 0x8BEA4, symBinAddr: 0x10009695C, symSize: 0x84 }
  - { offsetInCU: 0x3529B, offset: 0x3F93D, size: 0x8, addend: 0x0, symName: __ZNSt3__19allocatorINS_11__hash_nodeINS_17__hash_value_typeI5FieldNS_6vectorImNS0_ImEEEEEEPvEEE9constructB7v160006INS_4pairIKS3_S6_EEJRKNS_21piecewise_construct_tENS_5tupleIJRSD_EEENSI_IJEEEEEEvPT_DpOT0_, symObjAddr: 0x8BF28, symBinAddr: 0x1000969E0, symSize: 0x284 }
  - { offsetInCU: 0x3531C, offset: 0x3F9BE, size: 0x8, addend: 0x0, symName: __ZNSt3__14pairIK5FieldNS_6vectorImNS_9allocatorImEEEEEC1B7v160006IJRS2_EJEEENS_21piecewise_construct_tENS_5tupleIJDpT_EEENSB_IJDpT0_EEE, symObjAddr: 0x8C1AC, symBinAddr: 0x100096C64, symSize: 0x28C }
  - { offsetInCU: 0x3538D, offset: 0x3FA2F, size: 0x8, addend: 0x0, symName: __ZNSt3__14pairIK5FieldNS_6vectorImNS_9allocatorImEEEEEC1B7v160006IJRS2_EJEJLm0EEJEEENS_21piecewise_construct_tERNS_5tupleIJDpT_EEERNSB_IJDpT0_EEENS_15__tuple_indicesIJXspT1_EEEENSK_IJXspT2_EEEE, symObjAddr: 0x8C438, symBinAddr: 0x100096EF0, symSize: 0x88 }
  - { offsetInCU: 0x35420, offset: 0x3FAC2, size: 0x8, addend: 0x0, symName: __ZNSt3__14pairIK5FieldNS_6vectorImNS_9allocatorImEEEEEC2B7v160006IJRS2_EJEJLm0EEJEEENS_21piecewise_construct_tERNS_5tupleIJDpT_EEERNSB_IJDpT0_EEENS_15__tuple_indicesIJXspT1_EEEENSK_IJXspT2_EEEE, symObjAddr: 0x8C4C0, symBinAddr: 0x100096F78, symSize: 0x124 }
  - { offsetInCU: 0x354B3, offset: 0x3FB55, size: 0x8, addend: 0x0, symName: __ZNSt3__16vectorImNS_9allocatorImEEEC1B7v160006Ev, symObjAddr: 0x8C6C4, symBinAddr: 0x10009717C, symSize: 0x78 }
  - { offsetInCU: 0x354DB, offset: 0x3FB7D, size: 0x8, addend: 0x0, symName: __ZNSt3__112__tuple_leafILm0ERK5FieldLb0EE3getB7v160006Ev, symObjAddr: 0x8C73C, symBinAddr: 0x1000971F4, symSize: 0xF4 }
  - { offsetInCU: 0x35500, offset: 0x3FBA2, size: 0x8, addend: 0x0, symName: __ZNSt3__16vectorImNS_9allocatorImEEEC2B7v160006Ev, symObjAddr: 0x8C830, symBinAddr: 0x1000972E8, symSize: 0x34C }
  - { offsetInCU: 0x35529, offset: 0x3FBCB, size: 0x8, addend: 0x0, symName: __ZNSt3__117__compressed_pairIPmNS_9allocatorImEEEC1B7v160006IDnNS_18__default_init_tagEEEOT_OT0_, symObjAddr: 0x8CB7C, symBinAddr: 0x100097634, symSize: 0x88 }
  - { offsetInCU: 0x3557F, offset: 0x3FC21, size: 0x8, addend: 0x0, symName: __ZNSt3__117__compressed_pairIPmNS_9allocatorImEEEC2B7v160006IDnNS_18__default_init_tagEEEOT_OT0_, symObjAddr: 0x8CC14, symBinAddr: 0x1000976CC, symSize: 0x140 }
  - { offsetInCU: 0x355D5, offset: 0x3FC77, size: 0x8, addend: 0x0, symName: __ZNSt3__122__compressed_pair_elemIPmLi0ELb0EEC2B7v160006IDnvEEOT_, symObjAddr: 0x8CD54, symBinAddr: 0x10009780C, symSize: 0xBC }
  - { offsetInCU: 0x35616, offset: 0x3FCB8, size: 0x8, addend: 0x0, symName: __ZNSt3__122__compressed_pair_elemINS_9allocatorImEELi1ELb1EEC2B7v160006ENS_18__default_init_tagE, symObjAddr: 0x8CE10, symBinAddr: 0x1000978C8, symSize: 0x84 }
  - { offsetInCU: 0x35649, offset: 0x3FCEB, size: 0x8, addend: 0x0, symName: __ZNSt3__19allocatorImEC2B7v160006Ev, symObjAddr: 0x8CE94, symBinAddr: 0x10009794C, symSize: 0x84 }
  - { offsetInCU: 0x35671, offset: 0x3FD13, size: 0x8, addend: 0x0, symName: __ZNSt3__116__non_trivial_ifILb1ENS_9allocatorImEEEC2B7v160006Ev, symObjAddr: 0x8CF18, symBinAddr: 0x1000979D0, symSize: 0x54 }
  - { offsetInCU: 0x35699, offset: 0x3FD3B, size: 0x8, addend: 0x0, symName: __ZNSt3__117__compressed_pairIPNS_11__hash_nodeINS_17__hash_value_typeI5FieldNS_6vectorImNS_9allocatorImEEEEEEPvEENS_22__hash_node_destructorINS5_ISA_EEEEE6secondB7v160006Ev, symObjAddr: 0x8CF6C, symBinAddr: 0x100097A24, symSize: 0x12C }
  - { offsetInCU: 0x356BE, offset: 0x3FD60, size: 0x8, addend: 0x0, symName: __ZNSt3__122__compressed_pair_elemINS_22__hash_node_destructorINS_9allocatorINS_11__hash_nodeINS_17__hash_value_typeI5FieldNS_6vectorImNS2_ImEEEEEEPvEEEEEELi1ELb0EE5__getB7v160006Ev, symObjAddr: 0x8D098, symBinAddr: 0x100097B50, symSize: 0xAC }
  - { offsetInCU: 0x356E3, offset: 0x3FD85, size: 0x8, addend: 0x0, symName: __ZNSt3__117__compressed_pairImNS_22__unordered_map_hasherI5FieldNS_17__hash_value_typeIS2_NS_6vectorImNS_9allocatorImEEEEEENS_4hashIS2_EENS_8equal_toIS2_EELb1EEEE5firstB7v160006Ev, symObjAddr: 0x8D144, symBinAddr: 0x100097BFC, symSize: 0x124 }
  - { offsetInCU: 0x35708, offset: 0x3FDAA, size: 0x8, addend: 0x0, symName: __ZNSt3__117__compressed_pairIfNS_21__unordered_map_equalI5FieldNS_17__hash_value_typeIS2_NS_6vectorImNS_9allocatorImEEEEEENS_8equal_toIS2_EENS_4hashIS2_EELb1EEEE5firstB7v160006Ev, symObjAddr: 0x8D268, symBinAddr: 0x100097D20, symSize: 0x124 }
  - { offsetInCU: 0x3572D, offset: 0x3FDCF, size: 0x8, addend: 0x0, symName: __ZNSt3__112__hash_tableINS_17__hash_value_typeI5FieldNS_6vectorImNS_9allocatorImEEEEEENS_22__unordered_map_hasherIS2_S7_NS_4hashIS2_EENS_8equal_toIS2_EELb1EEENS_21__unordered_map_equalIS2_S7_SC_SA_Lb1EEENS4_IS7_EEE8__rehashILb1EEEvm, symObjAddr: 0x8D38C, symBinAddr: 0x100097E44, symSize: 0x9CC }
  - { offsetInCU: 0x35782, offset: 0x3FE24, size: 0x8, addend: 0x0, symName: __ZNSt3__112__hash_tableINS_17__hash_value_typeI5FieldNS_6vectorImNS_9allocatorImEEEEEENS_22__unordered_map_hasherIS2_S7_NS_4hashIS2_EENS_8equal_toIS2_EELb1EEENS_21__unordered_map_equalIS2_S7_SC_SA_Lb1EEENS4_IS7_EEE11__do_rehashILb1EEEvm, symObjAddr: 0x8DD58, symBinAddr: 0x100098810, symSize: 0x108C }
  - { offsetInCU: 0x3586A, offset: 0x3FF0C, size: 0x8, addend: 0x0, symName: __ZNSt3__110unique_ptrIA_PNS_16__hash_node_baseIPNS_11__hash_nodeINS_17__hash_value_typeI5FieldNS_6vectorImNS_9allocatorImEEEEEEPvEEEENS_25__bucket_list_deallocatorINS6_ISE_EEEEE11get_deleterB7v160006Ev, symObjAddr: 0x8EDF4, symBinAddr: 0x1000998AC, symSize: 0xF8 }
  - { offsetInCU: 0x3588F, offset: 0x3FF31, size: 0x8, addend: 0x0, symName: __ZNSt3__110unique_ptrIA_PNS_16__hash_node_baseIPNS_11__hash_nodeINS_17__hash_value_typeI5FieldNS_6vectorImNS_9allocatorImEEEEEEPvEEEENS_25__bucket_list_deallocatorINS6_ISE_EEEEE5resetB7v160006IPSE_EENS_9enable_ifIXsr28_CheckArrayPointerConversionIT_EE5valueEvE4typeESN_, symObjAddr: 0x8EEEC, symBinAddr: 0x1000999A4, symSize: 0x2CC }
  - { offsetInCU: 0x358DB, offset: 0x3FF7D, size: 0x8, addend: 0x0, symName: __ZNSt3__116allocator_traitsINS_9allocatorIPNS_16__hash_node_baseIPNS_11__hash_nodeINS_17__hash_value_typeI5FieldNS_6vectorImNS1_ImEEEEEEPvEEEEEEE8allocateB7v160006ERSF_m, symObjAddr: 0x8F1B8, symBinAddr: 0x100099C70, symSize: 0x2C }
  - { offsetInCU: 0x3590E, offset: 0x3FFB0, size: 0x8, addend: 0x0, symName: __ZNSt3__19allocatorIPNS_16__hash_node_baseIPNS_11__hash_nodeINS_17__hash_value_typeI5FieldNS_6vectorImNS0_ImEEEEEEPvEEEEE8allocateB7v160006Em, symObjAddr: 0x8F1E4, symBinAddr: 0x100099C9C, symSize: 0xCC }
  - { offsetInCU: 0x3594B, offset: 0x3FFED, size: 0x8, addend: 0x0, symName: __ZNSt3__116allocator_traitsINS_9allocatorIPNS_16__hash_node_baseIPNS_11__hash_nodeINS_17__hash_value_typeI5FieldNS_6vectorImNS1_ImEEEEEEPvEEEEEEE8max_sizeB7v160006ISF_vEEmRKSF_, symObjAddr: 0x8F2B0, symBinAddr: 0x100099D68, symSize: 0x24 }
  - { offsetInCU: 0x3597A, offset: 0x4001C, size: 0x8, addend: 0x0, symName: __ZNKSt3__19allocatorIPNS_16__hash_node_baseIPNS_11__hash_nodeINS_17__hash_value_typeI5FieldNS_6vectorImNS0_ImEEEEEEPvEEEEE8max_sizeB7v160006Ev, symObjAddr: 0x8F2D4, symBinAddr: 0x100099D8C, symSize: 0x4C }
  - { offsetInCU: 0x3599F, offset: 0x40041, size: 0x8, addend: 0x0, symName: __ZNKSt3__117__compressed_pairIPNS_11__hash_nodeINS_17__hash_value_typeI5FieldNS_6vectorImNS_9allocatorImEEEEEEPvEENS_22__hash_node_destructorINS5_ISA_EEEEE5firstB7v160006Ev, symObjAddr: 0x8F320, symBinAddr: 0x100099DD8, symSize: 0x124 }
  - { offsetInCU: 0x359C4, offset: 0x40066, size: 0x8, addend: 0x0, symName: __ZNKSt3__122__compressed_pair_elemIPNS_11__hash_nodeINS_17__hash_value_typeI5FieldNS_6vectorImNS_9allocatorImEEEEEEPvEELi0ELb0EE5__getB7v160006Ev, symObjAddr: 0x8F444, symBinAddr: 0x100099EFC, symSize: 0xAC }
  - { offsetInCU: 0x359E9, offset: 0x4008B, size: 0x8, addend: 0x0, symName: __ZNSt3__117__compressed_pairIPNS_11__hash_nodeINS_17__hash_value_typeI5FieldNS_6vectorImNS_9allocatorImEEEEEEPvEENS_22__hash_node_destructorINS5_ISA_EEEEE5firstB7v160006Ev, symObjAddr: 0x8F4F0, symBinAddr: 0x100099FA8, symSize: 0x124 }
  - { offsetInCU: 0x35A0E, offset: 0x400B0, size: 0x8, addend: 0x0, symName: __ZNSt3__122__compressed_pair_elemIPNS_11__hash_nodeINS_17__hash_value_typeI5FieldNS_6vectorImNS_9allocatorImEEEEEEPvEELi0ELb0EE5__getB7v160006Ev, symObjAddr: 0x8F614, symBinAddr: 0x10009A0CC, symSize: 0xAC }
  - { offsetInCU: 0x35A33, offset: 0x400D5, size: 0x8, addend: 0x0, symName: __ZNSt3__110unique_ptrINS_11__hash_nodeINS_17__hash_value_typeI5FieldNS_6vectorImNS_9allocatorImEEEEEEPvEENS_22__hash_node_destructorINS5_ISA_EEEEED2B7v160006Ev, symObjAddr: 0x8F6C0, symBinAddr: 0x10009A178, symSize: 0x7C }
  - { offsetInCU: 0x35A5B, offset: 0x400FD, size: 0x8, addend: 0x0, symName: __ZNSt3__110unique_ptrINS_11__hash_nodeINS_17__hash_value_typeI5FieldNS_6vectorImNS_9allocatorImEEEEEEPvEENS_22__hash_node_destructorINS5_ISA_EEEEE5resetB7v160006EPSA_, symObjAddr: 0x8F73C, symBinAddr: 0x10009A1F4, symSize: 0x2CC }
  - { offsetInCU: 0x35A9E, offset: 0x40140, size: 0x8, addend: 0x0, symName: __ZNSt3__122__hash_node_destructorINS_9allocatorINS_11__hash_nodeINS_17__hash_value_typeI5FieldNS_6vectorImNS1_ImEEEEEEPvEEEEEclB7v160006EPSA_, symObjAddr: 0x8FA08, symBinAddr: 0x10009A4C0, symSize: 0x2BC }
  - { offsetInCU: 0x35AD2, offset: 0x40174, size: 0x8, addend: 0x0, symName: __ZNSt3__115__hash_iteratorIPNS_11__hash_nodeINS_17__hash_value_typeI5FieldNS_6vectorImNS_9allocatorImEEEEEEPvEEEC2B7v160006EPNS_16__hash_node_baseISB_EEPKv, symObjAddr: 0x8FCC4, symBinAddr: 0x10009A77C, symSize: 0xCC }
  - { offsetInCU: 0x35B18, offset: 0x401BA, size: 0x8, addend: 0x0, symName: __ZNSt3__14pairINS_15__hash_iteratorIPNS_11__hash_nodeINS_17__hash_value_typeI5FieldNS_6vectorImNS_9allocatorImEEEEEEPvEEEEbEC2B7v160006ISD_RbLSA_0EEEOT_OT0_, symObjAddr: 0x8FD90, symBinAddr: 0x10009A848, symSize: 0x1C8 }
  - { offsetInCU: 0x35B74, offset: 0x40216, size: 0x8, addend: 0x0, symName: __ZNSt3__15tupleIJRK5FieldEEC1B7v160006INS_4_AndELi0EEES3_, symObjAddr: 0x8FF58, symBinAddr: 0x10009AA10, symSize: 0x80 }
  - { offsetInCU: 0x35BBB, offset: 0x4025D, size: 0x8, addend: 0x0, symName: __ZNSt3__15tupleIJRK5FieldEEC2B7v160006INS_4_AndELi0EEES3_, symObjAddr: 0x8FFD8, symBinAddr: 0x10009AA90, symSize: 0xC8 }
  - { offsetInCU: 0x35C02, offset: 0x402A4, size: 0x8, addend: 0x0, symName: __ZNSt3__112__tuple_implINS_15__tuple_indicesIJLm0EEEEJRK5FieldEEC1B7v160006IJLm0EEJS5_EJEJEJS5_EEENS1_IJXspT_EEEENS_13__tuple_typesIJDpT0_EEENS1_IJXspT1_EEEENS9_IJDpT2_EEEDpOT3_, symObjAddr: 0x900A0, symBinAddr: 0x10009AB58, symSize: 0x80 }
  - { offsetInCU: 0x35C9A, offset: 0x4033C, size: 0x8, addend: 0x0, symName: __ZNSt3__112__tuple_implINS_15__tuple_indicesIJLm0EEEEJRK5FieldEEC2B7v160006IJLm0EEJS5_EJEJEJS5_EEENS1_IJXspT_EEEENS_13__tuple_typesIJDpT0_EEENS1_IJXspT1_EEEENS9_IJDpT2_EEEDpOT3_, symObjAddr: 0x90120, symBinAddr: 0x10009ABD8, symSize: 0x10C }
  - { offsetInCU: 0x35D32, offset: 0x403D4, size: 0x8, addend: 0x0, symName: __ZNSt3__112__tuple_leafILm0ERK5FieldLb0EEC2B7v160006IS3_vEEOT_, symObjAddr: 0x9022C, symBinAddr: 0x10009ACE4, symSize: 0x108 }
  - { offsetInCU: 0x35D74, offset: 0x40416, size: 0x8, addend: 0x0, symName: __ZNSt3__114pointer_traitsIPNS_17__hash_value_typeI5FieldNS_6vectorImNS_9allocatorImEEEEEEE10pointer_toB7v160006ERS7_, symObjAddr: 0x90334, symBinAddr: 0x10009ADEC, symSize: 0x14 }
  - { offsetInCU: 0x35D97, offset: 0x40439, size: 0x8, addend: 0x0, symName: __ZNSt3__116reverse_iteratorINS_11__wrap_iterIPmEEEC1B7v160006ES3_, symObjAddr: 0x90348, symBinAddr: 0x10009AE00, symSize: 0x28C }
  - { offsetInCU: 0x35DD2, offset: 0x40474, size: 0x8, addend: 0x0, symName: __ZNSt3__116reverse_iteratorINS_11__wrap_iterIPmEEEC2B7v160006ES3_, symObjAddr: 0x905D4, symBinAddr: 0x10009B08C, symSize: 0x274 }
  - { offsetInCU: 0x35E12, offset: 0x404B4, size: 0x8, addend: 0x0, symName: __ZNSt3__116_UnwrapAlgPolicyIRNS_6__lessImmEEE10__get_compB7v160006ES3_, symObjAddr: 0x91E84, symBinAddr: 0x10009C93C, symSize: 0x4C }
  - { offsetInCU: 0x35E35, offset: 0x404D7, size: 0x8, addend: 0x0, symName: __ZNKSt3__116reverse_iteratorINS_11__wrap_iterIPmEEE4baseB7v160006Ev, symObjAddr: 0x946B0, symBinAddr: 0x10009F168, symSize: 0x24C }
  - { offsetInCU: 0x35E5B, offset: 0x404FD, size: 0x8, addend: 0x0, symName: __ZNSt3__116reverse_iteratorINS_11__wrap_iterIPmEEEmmB7v160006Ev, symObjAddr: 0x948FC, symBinAddr: 0x10009F3B4, symSize: 0x100 }
  - { offsetInCU: 0x35E80, offset: 0x40522, size: 0x8, addend: 0x0, symName: __ZNKSt3__116reverse_iteratorINS_11__wrap_iterIPmEEEdeB7v160006Ev, symObjAddr: 0x949FC, symBinAddr: 0x10009F4B4, symSize: 0x2C4 }
  - { offsetInCU: 0x35EB8, offset: 0x4055A, size: 0x8, addend: 0x0, symName: __ZNSt3__18_IterOpsINS_17_ClassicAlgPolicyEE9iter_swapB7v160006IRNS_16reverse_iteratorINS_11__wrap_iterIPmEEEES9_EEvOT_OT0_, symObjAddr: 0x94CC0, symBinAddr: 0x10009F778, symSize: 0x28C }
  - { offsetInCU: 0x35EFD, offset: 0x4059F, size: 0x8, addend: 0x0, symName: __ZNKSt3__116reverse_iteratorINS_11__wrap_iterIPmEEEplB7v160006El, symObjAddr: 0x953A4, symBinAddr: 0x10009FE5C, symSize: 0x35C }
  - { offsetInCU: 0x35F32, offset: 0x405D4, size: 0x8, addend: 0x0, symName: __ZNSt3__116reverse_iteratorINS_11__wrap_iterIPmEEEpLB7v160006El, symObjAddr: 0x97448, symBinAddr: 0x1000A1F00, symSize: 0x110 }
  - { offsetInCU: 0x35F65, offset: 0x40607, size: 0x8, addend: 0x0, symName: __ZNSt3__116reverse_iteratorINS_11__wrap_iterIPmEEEppB7v160006Ev, symObjAddr: 0x9867C, symBinAddr: 0x1000A3134, symSize: 0x100 }
  - { offsetInCU: 0x35F8A, offset: 0x4062C, size: 0x8, addend: 0x0, symName: __ZNSt3__111__wrap_iterIPmEmmB7v160006Ev, symObjAddr: 0x9A92C, symBinAddr: 0x1000A53E4, symSize: 0x1A8 }
  - { offsetInCU: 0x35FAF, offset: 0x40651, size: 0x8, addend: 0x0, symName: __ZNKSt3__111__wrap_iterIPmEmiB7v160006El, symObjAddr: 0x9ADE0, symBinAddr: 0x1000A5898, symSize: 0x2FC }
  - { offsetInCU: 0x35FE4, offset: 0x40686, size: 0x8, addend: 0x0, symName: __ZNKSt3__111__wrap_iterIPmEplB7v160006El, symObjAddr: 0x9B0DC, symBinAddr: 0x1000A5B94, symSize: 0x258 }
  - { offsetInCU: 0x3602B, offset: 0x406CD, size: 0x8, addend: 0x0, symName: __ZNSt3__111__wrap_iterIPmEpLB7v160006El, symObjAddr: 0x9B334, symBinAddr: 0x1000A5DEC, symSize: 0x228 }
  - { offsetInCU: 0x3605E, offset: 0x40700, size: 0x8, addend: 0x0, symName: __ZNSt3__18_IterOpsINS_17_ClassicAlgPolicyEE11__iter_moveB7v160006IRNS_16reverse_iteratorINS_11__wrap_iterIPmEEEEEENS_9enable_ifIXsr12is_referenceIDTdeclsr3stdE7declvalIRT_EEEEE5valueEDTclsr3stdE4movedeclsr3stdE7declvalISC_EEEEE4typeEOSB_, symObjAddr: 0x9BD18, symBinAddr: 0x1000A67D0, symSize: 0xB8 }
  - { offsetInCU: 0x3608A, offset: 0x4072C, size: 0x8, addend: 0x0, symName: __ZNSt3__18_IterOpsINS_17_ClassicAlgPolicyEE25__validate_iter_referenceB7v160006IRNS_16reverse_iteratorINS_11__wrap_iterIPmEEEEEEvv, symObjAddr: 0x9BDD0, symBinAddr: 0x1000A6888, symSize: 0x4 }
  - { offsetInCU: 0x360A8, offset: 0x4074A, size: 0x8, addend: 0x0, symName: __ZNSt3__18_IterOpsINS_17_ClassicAlgPolicyEE4nextB7v160006INS_16reverse_iteratorINS_11__wrap_iterIPmEEEEEET_S9_S9_, symObjAddr: 0x9BDD4, symBinAddr: 0x1000A688C, symSize: 0x2E0 }
  - { offsetInCU: 0x360E7, offset: 0x40789, size: 0x8, addend: 0x0, symName: __ZNSt3__111__wrap_iterIPmEmIB7v160006El, symObjAddr: 0x9FAEC, symBinAddr: 0x1000AA5A4, symSize: 0x134 }
  - { offsetInCU: 0x3611A, offset: 0x407BC, size: 0x8, addend: 0x0, symName: __ZNSt3__118__unwrap_iter_implINS_16reverse_iteratorINS_11__wrap_iterIPmEEEELb0EE8__unwrapB7v160006ES5_, symObjAddr: 0xA0814, symBinAddr: 0x1000AB2CC, symSize: 0x274 }
  - { offsetInCU: 0x36141, offset: 0x407E3, size: 0x8, addend: 0x0, symName: __ZNSt3__16vectorImNS_9allocatorImEEE11__make_iterB7v160006EPm, symObjAddr: 0xA0A88, symBinAddr: 0x1000AB540, symSize: 0x24C }
  - { offsetInCU: 0x36177, offset: 0x40819, size: 0x8, addend: 0x0, symName: __ZNSt3__111__wrap_iterIPmEC1B7v160006EPKvS1_, symObjAddr: 0xA0CD4, symBinAddr: 0x1000AB78C, symSize: 0x88 }
  - { offsetInCU: 0x361BB, offset: 0x4085D, size: 0x8, addend: 0x0, symName: __ZNSt3__111__wrap_iterIPmEC2B7v160006EPKvS1_, symObjAddr: 0xA0D5C, symBinAddr: 0x1000AB814, symSize: 0xCC }
  - { offsetInCU: 0x361FF, offset: 0x408A1, size: 0x8, addend: 0x0, symName: __ZNKSt3__16vectorINS0_I5FieldNS_9allocatorIS1_EEEENS2_IS4_EEE6cbeginB7v160006Ev, symObjAddr: 0xA0EC4, symBinAddr: 0x1000AB97C, symSize: 0x27C }
  - { offsetInCU: 0x36225, offset: 0x408C7, size: 0x8, addend: 0x0, symName: __ZNSt3__16vectorINS0_I5FieldNS_9allocatorIS1_EEEENS2_IS4_EEE17__destruct_at_endB7v160006EPS4_, symObjAddr: 0xA1140, symBinAddr: 0x1000ABBF8, symSize: 0xB0 }
  - { offsetInCU: 0x36268, offset: 0x4090A, size: 0x8, addend: 0x0, symName: __ZNSt3__16vectorINS0_I5FieldNS_9allocatorIS1_EEEENS2_IS4_EEE27__invalidate_iterators_pastB7v160006EPS4_, symObjAddr: 0xA14A4, symBinAddr: 0x1000ABF5C, symSize: 0x64 }
  - { offsetInCU: 0x3629E, offset: 0x40940, size: 0x8, addend: 0x0, symName: __ZNKSt3__111__wrap_iterIPKNS_6vectorI5FieldNS_9allocatorIS2_EEEEE4baseB7v160006Ev, symObjAddr: 0xA1508, symBinAddr: 0x1000ABFC0, symSize: 0xAC }
  - { offsetInCU: 0x362C3, offset: 0x40965, size: 0x8, addend: 0x0, symName: __ZNKSt3__16vectorINS0_I5FieldNS_9allocatorIS1_EEEENS2_IS4_EEE5beginB7v160006Ev, symObjAddr: 0xA15B4, symBinAddr: 0x1000AC06C, symSize: 0x2B0 }
  - { offsetInCU: 0x362EB, offset: 0x4098D, size: 0x8, addend: 0x0, symName: __ZNKSt3__16vectorINS0_I5FieldNS_9allocatorIS1_EEEENS2_IS4_EEE11__make_iterB7v160006EPKS4_, symObjAddr: 0xA1864, symBinAddr: 0x1000AC31C, symSize: 0x24C }
  - { offsetInCU: 0x36321, offset: 0x409C3, size: 0x8, addend: 0x0, symName: __ZNSt3__111__wrap_iterIPKNS_6vectorI5FieldNS_9allocatorIS2_EEEEEC1B7v160006EPKvS7_, symObjAddr: 0xA1AB0, symBinAddr: 0x1000AC568, symSize: 0x88 }
  - { offsetInCU: 0x36365, offset: 0x40A07, size: 0x8, addend: 0x0, symName: __ZNSt3__111__wrap_iterIPKNS_6vectorI5FieldNS_9allocatorIS2_EEEEEC2B7v160006EPKvS7_, symObjAddr: 0xA1B38, symBinAddr: 0x1000AC5F0, symSize: 0xCC }
  - { offsetInCU: 0x363A9, offset: 0x40A4B, size: 0x8, addend: 0x0, symName: __ZNKSt3__16vectorINS0_I5FieldNS_9allocatorIS1_EEEENS2_IS4_EEE17__annotate_shrinkB7v160006Em, symObjAddr: 0xA1C04, symBinAddr: 0x1000AC6BC, symSize: 0x378 }
  - { offsetInCU: 0x36400, offset: 0x40AA2, size: 0x8, addend: 0x0, symName: __ZNKSt3__111__move_loopINS_17_ClassicAlgPolicyEEclB7v160006IPNS_6vectorI5FieldNS_9allocatorIS5_EEEES9_S9_EENS_4pairIT_T1_EESB_T0_SC_, symObjAddr: 0xA2D58, symBinAddr: 0x1000AD810, symSize: 0x63C }
  - { offsetInCU: 0x36474, offset: 0x40B16, size: 0x8, addend: 0x0, symName: __ZNSt3__18_IterOpsINS_17_ClassicAlgPolicyEE11__iter_moveB7v160006IRPNS_6vectorI5FieldNS_9allocatorIS5_EEEEEENS_9enable_ifIXsr12is_referenceIDTdeclsr3stdE7declvalIRT_EEEEE5valueEDTclsr3stdE4movedeclsr3stdE7declvalISD_EEEEE4typeEOSC_, symObjAddr: 0xA36CC, symBinAddr: 0x1000AE184, symSize: 0xF8 }
  - { offsetInCU: 0x364A0, offset: 0x40B42, size: 0x8, addend: 0x0, symName: __ZNSt3__16vectorI5FieldNS_9allocatorIS1_EEEaSB7v160006EOS4_, symObjAddr: 0xA37C4, symBinAddr: 0x1000AE27C, symSize: 0x104 }
  - { offsetInCU: 0x364D6, offset: 0x40B78, size: 0x8, addend: 0x0, symName: __ZNSt3__18_IterOpsINS_17_ClassicAlgPolicyEE25__validate_iter_referenceB7v160006IRPNS_6vectorI5FieldNS_9allocatorIS5_EEEEEEvv, symObjAddr: 0xA38C8, symBinAddr: 0x1000AE380, symSize: 0x4 }
  - { offsetInCU: 0x364F4, offset: 0x40B96, size: 0x8, addend: 0x0, symName: __ZNSt3__16vectorI5FieldNS_9allocatorIS1_EEE13__move_assignERS4_NS_17integral_constantIbLb1EEE, symObjAddr: 0xA38CC, symBinAddr: 0x1000AE384, symSize: 0x51C }
  - { offsetInCU: 0x36536, offset: 0x40BD8, size: 0x8, addend: 0x0, symName: __ZNSt3__16vectorI5FieldNS_9allocatorIS1_EEE13__vdeallocateEv, symObjAddr: 0xA3DE8, symBinAddr: 0x1000AE8A0, symSize: 0x23C }
  - { offsetInCU: 0x3655D, offset: 0x40BFF, size: 0x8, addend: 0x0, symName: __ZNSt3__16vectorI5FieldNS_9allocatorIS1_EEE19__move_assign_allocB7v160006ERS4_, symObjAddr: 0xA4024, symBinAddr: 0x1000AEADC, symSize: 0xBC }
  - { offsetInCU: 0x36591, offset: 0x40C33, size: 0x8, addend: 0x0, symName: __ZNSt3__16vectorI5FieldNS_9allocatorIS1_EEE5clearB7v160006Ev, symObjAddr: 0xA40F4, symBinAddr: 0x1000AEBAC, symSize: 0x90 }
  - { offsetInCU: 0x365C5, offset: 0x40C67, size: 0x8, addend: 0x0, symName: __ZNSt3__16vectorI5FieldNS_9allocatorIS1_EEE19__move_assign_allocB7v160006ERS4_NS_17integral_constantIbLb1EEE, symObjAddr: 0xA4184, symBinAddr: 0x1000AEC3C, symSize: 0xA4 }
  - { offsetInCU: 0x36605, offset: 0x40CA7, size: 0x8, addend: 0x0, symName: __ZNSt3__118__unwrap_iter_implIPNS_6vectorI5FieldNS_9allocatorIS2_EEEELb1EE8__unwrapB7v160006ES6_, symObjAddr: 0xA4228, symBinAddr: 0x1000AECE0, symSize: 0x24 }
  - { offsetInCU: 0x3662D, offset: 0x40CCF, size: 0x8, addend: 0x0, symName: __ZNSt3__14pairIPNS_6vectorI5FieldNS_9allocatorIS2_EEEES6_EC1B7v160006IS6_S6_LPv0EEEOT_OT0_, symObjAddr: 0xA424C, symBinAddr: 0x1000AED04, symSize: 0x88 }
  - { offsetInCU: 0x36689, offset: 0x40D2B, size: 0x8, addend: 0x0, symName: __ZNSt3__14pairIPNS_6vectorI5FieldNS_9allocatorIS2_EEEES6_EC2B7v160006IS6_S6_LPv0EEEOT_OT0_, symObjAddr: 0xA42D4, symBinAddr: 0x1000AED8C, symSize: 0x210 }
  - { offsetInCU: 0x366E5, offset: 0x40D87, size: 0x8, addend: 0x0, symName: __ZNSt3__118__unwrap_iter_implIPNS_6vectorI5FieldNS_9allocatorIS2_EEEELb1EE8__rewrapB7v160006ES6_S6_, symObjAddr: 0xA44E4, symBinAddr: 0x1000AEF9C, symSize: 0x140 }
  - { offsetInCU: 0x36716, offset: 0x40DB8, size: 0x8, addend: 0x0, symName: __ZNSt3__112__hash_tableINS_17__hash_value_typeI5FieldNS_6vectorImNS_9allocatorImEEEEEENS_22__unordered_map_hasherIS2_S7_NS_4hashIS2_EENS_8equal_toIS2_EELb1EEENS_21__unordered_map_equalIS2_S7_SC_SA_Lb1EEENS4_IS7_EEE14__erase_uniqueIS2_EEmRKT_, symObjAddr: 0xA4624, symBinAddr: 0x1000AF0DC, symSize: 0x460 }
  - { offsetInCU: 0x3676A, offset: 0x40E0C, size: 0x8, addend: 0x0, symName: __ZNSt3__112__hash_tableINS_17__hash_value_typeI5FieldNS_6vectorImNS_9allocatorImEEEEEENS_22__unordered_map_hasherIS2_S7_NS_4hashIS2_EENS_8equal_toIS2_EELb1EEENS_21__unordered_map_equalIS2_S7_SC_SA_Lb1EEENS4_IS7_EEE4findIS2_EENS_15__hash_iteratorIPNS_11__hash_nodeIS7_PvEEEERKT_, symObjAddr: 0xA4A84, symBinAddr: 0x1000AF53C, symSize: 0x8EC }
  - { offsetInCU: 0x367F1, offset: 0x40E93, size: 0x8, addend: 0x0, symName: __ZNSt3__112__hash_tableINS_17__hash_value_typeI5FieldNS_6vectorImNS_9allocatorImEEEEEENS_22__unordered_map_hasherIS2_S7_NS_4hashIS2_EENS_8equal_toIS2_EELb1EEENS_21__unordered_map_equalIS2_S7_SC_SA_Lb1EEENS4_IS7_EEE3endEv, symObjAddr: 0xA5484, symBinAddr: 0x1000AFF3C, symSize: 0x248 }
  - { offsetInCU: 0x36819, offset: 0x40EBB, size: 0x8, addend: 0x0, symName: __ZNSt3__112__hash_tableINS_17__hash_value_typeI5FieldNS_6vectorImNS_9allocatorImEEEEEENS_22__unordered_map_hasherIS2_S7_NS_4hashIS2_EENS_8equal_toIS2_EELb1EEENS_21__unordered_map_equalIS2_S7_SC_SA_Lb1EEENS4_IS7_EEE5eraseENS_21__hash_const_iteratorIPNS_11__hash_nodeIS7_PvEEEE, symObjAddr: 0xA56CC, symBinAddr: 0x1000B0184, symSize: 0x3C0 }
  - { offsetInCU: 0x36877, offset: 0x40F19, size: 0x8, addend: 0x0, symName: __ZNSt3__121__hash_const_iteratorIPNS_11__hash_nodeINS_17__hash_value_typeI5FieldNS_6vectorImNS_9allocatorImEEEEEEPvEEEC1B7v160006ERKNS_15__hash_iteratorISB_EE, symObjAddr: 0xA5A8C, symBinAddr: 0x1000B0544, symSize: 0x80 }
  - { offsetInCU: 0x368AE, offset: 0x40F50, size: 0x8, addend: 0x0, symName: __ZNSt3__115__hash_iteratorIPNS_11__hash_nodeINS_17__hash_value_typeI5FieldNS_6vectorImNS_9allocatorImEEEEEEPvEEEppB7v160006Ev, symObjAddr: 0xA5B0C, symBinAddr: 0x1000B05C4, symSize: 0x1F0 }
  - { offsetInCU: 0x368D3, offset: 0x40F75, size: 0x8, addend: 0x0, symName: __ZNSt3__112__hash_tableINS_17__hash_value_typeI5FieldNS_6vectorImNS_9allocatorImEEEEEENS_22__unordered_map_hasherIS2_S7_NS_4hashIS2_EENS_8equal_toIS2_EELb1EEENS_21__unordered_map_equalIS2_S7_SC_SA_Lb1EEENS4_IS7_EEE6removeENS_21__hash_const_iteratorIPNS_11__hash_nodeIS7_PvEEEE, symObjAddr: 0xA5CFC, symBinAddr: 0x1000B07B4, symSize: 0x101C }
  - { offsetInCU: 0x3696D, offset: 0x4100F, size: 0x8, addend: 0x0, symName: __ZNSt3__121__hash_const_iteratorIPNS_11__hash_nodeINS_17__hash_value_typeI5FieldNS_6vectorImNS_9allocatorImEEEEEEPvEEEC2B7v160006ERKNS_15__hash_iteratorISB_EE, symObjAddr: 0xA6D18, symBinAddr: 0x1000B17D0, symSize: 0x12C }
  - { offsetInCU: 0x369B3, offset: 0x41055, size: 0x8, addend: 0x0, symName: '__ZZN8Database14executeCommandEvENK3$_0clERKNSt3__16vectorI5FieldNS1_9allocatorIS3_EEEE', symObjAddr: 0xA71FC, symBinAddr: 0x1000B1CB4, symSize: 0x614 }
  - { offsetInCU: 0x369F9, offset: 0x4109B, size: 0x8, addend: 0x0, symName: __ZNSt3__112__hash_tableINS_17__hash_value_typeImNS_13unordered_mapI5FieldNS_6vectorImNS_9allocatorImEEEENS_4hashIS3_EENS_8equal_toIS3_EENS5_INS_4pairIKS3_S7_EEEEEEEENS_22__unordered_map_hasherImSH_NS8_ImEENSA_ImEELb1EEENS_21__unordered_map_equalImSH_SK_SJ_Lb1EEENS5_ISH_EEE5clearEv, symObjAddr: 0xA7A0C, symBinAddr: 0x1000B24C4, symSize: 0x4D0 }
  - { offsetInCU: 0x36A5C, offset: 0x410FE, size: 0x8, addend: 0x0, symName: __ZNSt3__114pointer_traitsIPNS_4pairIKNS_12basic_stringIcNS_11char_traitsIcEENS_9allocatorIcEEEEP5TableEEE10pointer_toB7v160006ERSB_, symObjAddr: 0xA7EDC, symBinAddr: 0x1000B2994, symSize: 0x14 }
  - { offsetInCU: 0x36A7F, offset: 0x41121, size: 0x8, addend: 0x0, symName: __ZNSt3__112__hash_tableINS_17__hash_value_typeINS_12basic_stringIcNS_11char_traitsIcEENS_9allocatorIcEEEEP5TableEENS_22__unordered_map_hasherIS7_SA_NS_4hashIS7_EENS_8equal_toIS7_EELb1EEENS_21__unordered_map_equalIS7_SA_SF_SD_Lb1EEENS5_ISA_EEE5eraseENS_21__hash_const_iteratorIPNS_11__hash_nodeISA_PvEEEE, symObjAddr: 0xA7EF0, symBinAddr: 0x1000B29A8, symSize: 0x3C0 }
  - { offsetInCU: 0x36ADD, offset: 0x4117F, size: 0x8, addend: 0x0, symName: __ZNSt3__121__hash_const_iteratorIPNS_11__hash_nodeINS_17__hash_value_typeINS_12basic_stringIcNS_11char_traitsIcEENS_9allocatorIcEEEEP5TableEEPvEEEC1B7v160006ERKNS_15__hash_iteratorISE_EE, symObjAddr: 0xA82B0, symBinAddr: 0x1000B2D68, symSize: 0x80 }
  - { offsetInCU: 0x36B14, offset: 0x411B6, size: 0x8, addend: 0x0, symName: __ZNSt3__112__hash_tableINS_17__hash_value_typeINS_12basic_stringIcNS_11char_traitsIcEENS_9allocatorIcEEEEP5TableEENS_22__unordered_map_hasherIS7_SA_NS_4hashIS7_EENS_8equal_toIS7_EELb1EEENS_21__unordered_map_equalIS7_SA_SF_SD_Lb1EEENS5_ISA_EEE6removeENS_21__hash_const_iteratorIPNS_11__hash_nodeISA_PvEEEE, symObjAddr: 0xA8330, symBinAddr: 0x1000B2DE8, symSize: 0x101C }
  - { offsetInCU: 0x36BAE, offset: 0x41250, size: 0x8, addend: 0x0, symName: __ZNSt3__121__hash_const_iteratorIPNS_11__hash_nodeINS_17__hash_value_typeINS_12basic_stringIcNS_11char_traitsIcEENS_9allocatorIcEEEEP5TableEEPvEEEC2B7v160006ERKNS_15__hash_iteratorISE_EE, symObjAddr: 0xA934C, symBinAddr: 0x1000B3E04, symSize: 0x12C }
  - { offsetInCU: 0x36BE5, offset: 0x41287, size: 0x8, addend: 0x0, symName: __ZNSt3__112__hash_tableINS_17__hash_value_typeI5FieldNS_6vectorImNS_9allocatorImEEEEEENS_22__unordered_map_hasherIS2_S7_NS_4hashIS2_EENS_8equal_toIS2_EELb1EEENS_21__unordered_map_equalIS2_S7_SC_SA_Lb1EEENS4_IS7_EEE5clearEv, symObjAddr: 0xA9478, symBinAddr: 0x1000B3F30, symSize: 0x4D0 }
  - { offsetInCU: 0x36C48, offset: 0x412EA, size: 0x8, addend: 0x0, symName: __ZNSt3__16vectorImNS_9allocatorImEEE9__end_capB7v160006Ev, symObjAddr: 0xA9948, symBinAddr: 0x1000B4400, symSize: 0x100 }
  - { offsetInCU: 0x36C6D, offset: 0x4130F, size: 0x8, addend: 0x0, symName: __ZNSt3__16vectorImNS_9allocatorImEEE22__construct_one_at_endB7v160006IJRKmEEEvDpOT_, symObjAddr: 0xA9A48, symBinAddr: 0x1000B4500, symSize: 0x550 }
  - { offsetInCU: 0x36CC2, offset: 0x41364, size: 0x8, addend: 0x0, symName: __ZNSt3__16vectorImNS_9allocatorImEEE21__push_back_slow_pathIRKmEEvOT_, symObjAddr: 0xA9F98, symBinAddr: 0x1000B4A50, symSize: 0x5B0 }
  - { offsetInCU: 0x36D26, offset: 0x413C8, size: 0x8, addend: 0x0, symName: __ZNSt3__117__compressed_pairIPmNS_9allocatorImEEE5firstB7v160006Ev, symObjAddr: 0xAA548, symBinAddr: 0x1000B5000, symSize: 0x124 }
  - { offsetInCU: 0x36D4B, offset: 0x413ED, size: 0x8, addend: 0x0, symName: __ZNSt3__122__compressed_pair_elemIPmLi0ELb0EE5__getB7v160006Ev, symObjAddr: 0xAA66C, symBinAddr: 0x1000B5124, symSize: 0xAC }
  - { offsetInCU: 0x36D89, offset: 0x4142B, size: 0x8, addend: 0x0, symName: __ZNSt3__16vectorImNS_9allocatorImEEE21_ConstructTransactionC1B7v160006ERS3_m, symObjAddr: 0xAA718, symBinAddr: 0x1000B51D0, symSize: 0x88 }
  - { offsetInCU: 0x36DCF, offset: 0x41471, size: 0x8, addend: 0x0, symName: __ZNSt3__116allocator_traitsINS_9allocatorImEEE9constructB7v160006ImJRKmEvEEvRS2_PT_DpOT0_, symObjAddr: 0xAA7A0, symBinAddr: 0x1000B5258, symSize: 0x8C }
  - { offsetInCU: 0x36E28, offset: 0x414CA, size: 0x8, addend: 0x0, symName: __ZNSt3__16vectorImNS_9allocatorImEEE21_ConstructTransactionD1B7v160006Ev, symObjAddr: 0xAA82C, symBinAddr: 0x1000B52E4, symSize: 0x78 }
  - { offsetInCU: 0x36E50, offset: 0x414F2, size: 0x8, addend: 0x0, symName: __ZNSt3__16vectorImNS_9allocatorImEEE21_ConstructTransactionC2B7v160006ERS3_m, symObjAddr: 0xAA8A4, symBinAddr: 0x1000B535C, symSize: 0x3D8 }
  - { offsetInCU: 0x36E96, offset: 0x41538, size: 0x8, addend: 0x0, symName: __ZNKSt3__16vectorImNS_9allocatorImEEE19__annotate_increaseB7v160006Em, symObjAddr: 0xAAC7C, symBinAddr: 0x1000B5734, symSize: 0x44C }
  - { offsetInCU: 0x36ECA, offset: 0x4156C, size: 0x8, addend: 0x0, symName: __ZNSt3__19allocatorImE9constructB7v160006ImJRKmEEEvPT_DpOT0_, symObjAddr: 0xAB0C8, symBinAddr: 0x1000B5B80, symSize: 0x168 }
  - { offsetInCU: 0x36F20, offset: 0x415C2, size: 0x8, addend: 0x0, symName: __ZNSt3__16vectorImNS_9allocatorImEEE21_ConstructTransactionD2B7v160006Ev, symObjAddr: 0xAB230, symBinAddr: 0x1000B5CE8, symSize: 0x390 }
  - { offsetInCU: 0x36F48, offset: 0x415EA, size: 0x8, addend: 0x0, symName: __ZNKSt3__16vectorImNS_9allocatorImEEE17__annotate_shrinkB7v160006Em, symObjAddr: 0xAB5C0, symBinAddr: 0x1000B6078, symSize: 0x360 }
  - { offsetInCU: 0x36F7C, offset: 0x4161E, size: 0x8, addend: 0x0, symName: __ZNKSt3__16vectorImNS_9allocatorImEEE11__recommendB7v160006Em, symObjAddr: 0xAB920, symBinAddr: 0x1000B63D8, symSize: 0x45C }
  - { offsetInCU: 0x36FD7, offset: 0x41679, size: 0x8, addend: 0x0, symName: __ZNSt3__114__split_bufferImRNS_9allocatorImEEEC1EmmS3_, symObjAddr: 0xABD7C, symBinAddr: 0x1000B6834, symSize: 0x90 }
  - { offsetInCU: 0x3702C, offset: 0x416CE, size: 0x8, addend: 0x0, symName: __ZNSt3__114__split_bufferImRNS_9allocatorImEEED1Ev, symObjAddr: 0xAC670, symBinAddr: 0x1000B7128, symSize: 0x78 }
  - { offsetInCU: 0x37057, offset: 0x416F9, size: 0x8, addend: 0x0, symName: __ZNKSt3__16vectorImNS_9allocatorImEEE8max_sizeEv, symObjAddr: 0xAC6E8, symBinAddr: 0x1000B71A0, symSize: 0x3B8 }
  - { offsetInCU: 0x3707F, offset: 0x41721, size: 0x8, addend: 0x0, symName: __ZNKSt3__16vectorImNS_9allocatorImEEE20__throw_length_errorB7v160006Ev, symObjAddr: 0xACAA0, symBinAddr: 0x1000B7558, symSize: 0x80 }
  - { offsetInCU: 0x370AE, offset: 0x41750, size: 0x8, addend: 0x0, symName: __ZNSt3__116allocator_traitsINS_9allocatorImEEE8max_sizeB7v160006IS2_vEEmRKS2_, symObjAddr: 0xACB20, symBinAddr: 0x1000B75D8, symSize: 0x24 }
  - { offsetInCU: 0x370DD, offset: 0x4177F, size: 0x8, addend: 0x0, symName: __ZNKSt3__16vectorImNS_9allocatorImEEE7__allocB7v160006Ev, symObjAddr: 0xACB44, symBinAddr: 0x1000B75FC, symSize: 0xE4 }
  - { offsetInCU: 0x37102, offset: 0x417A4, size: 0x8, addend: 0x0, symName: __ZNKSt3__19allocatorImE8max_sizeB7v160006Ev, symObjAddr: 0xACC28, symBinAddr: 0x1000B76E0, symSize: 0x4C }
  - { offsetInCU: 0x37127, offset: 0x417C9, size: 0x8, addend: 0x0, symName: __ZNKSt3__117__compressed_pairIPmNS_9allocatorImEEE6secondB7v160006Ev, symObjAddr: 0xACC74, symBinAddr: 0x1000B772C, symSize: 0x108 }
  - { offsetInCU: 0x3714C, offset: 0x417EE, size: 0x8, addend: 0x0, symName: __ZNKSt3__122__compressed_pair_elemINS_9allocatorImEELi1ELb1EE5__getB7v160006Ev, symObjAddr: 0xACD7C, symBinAddr: 0x1000B7834, symSize: 0x74 }
  - { offsetInCU: 0x37171, offset: 0x41813, size: 0x8, addend: 0x0, symName: __ZNSt3__114__split_bufferImRNS_9allocatorImEEEC2EmmS3_, symObjAddr: 0xACDF0, symBinAddr: 0x1000B78A8, symSize: 0x7D8 }
  - { offsetInCU: 0x371EC, offset: 0x4188E, size: 0x8, addend: 0x0, symName: __ZNSt3__117__compressed_pairIPmRNS_9allocatorImEEEC1B7v160006IDnS4_EEOT_OT0_, symObjAddr: 0xAD5C8, symBinAddr: 0x1000B8080, symSize: 0x88 }
  - { offsetInCU: 0x37242, offset: 0x418E4, size: 0x8, addend: 0x0, symName: __ZNSt3__114__split_bufferImRNS_9allocatorImEEE7__allocB7v160006Ev, symObjAddr: 0xAD8DC, symBinAddr: 0x1000B8394, symSize: 0xE4 }
  - { offsetInCU: 0x37267, offset: 0x41909, size: 0x8, addend: 0x0, symName: __ZNSt3__114__split_bufferImRNS_9allocatorImEEE9__end_capB7v160006Ev, symObjAddr: 0xAD9C0, symBinAddr: 0x1000B8478, symSize: 0x100 }
  - { offsetInCU: 0x3728C, offset: 0x4192E, size: 0x8, addend: 0x0, symName: __ZNSt3__117__compressed_pairIPmRNS_9allocatorImEEEC2B7v160006IDnS4_EEOT_OT0_, symObjAddr: 0xADAC0, symBinAddr: 0x1000B8578, symSize: 0x198 }
  - { offsetInCU: 0x372E2, offset: 0x41984, size: 0x8, addend: 0x0, symName: __ZNSt3__122__compressed_pair_elemIRNS_9allocatorImEELi1ELb0EEC2B7v160006IS3_vEEOT_, symObjAddr: 0xADC58, symBinAddr: 0x1000B8710, symSize: 0xEC }
  - { offsetInCU: 0x37323, offset: 0x419C5, size: 0x8, addend: 0x0, symName: __ZNSt3__19allocatorImE8allocateB7v160006Em, symObjAddr: 0xADD44, symBinAddr: 0x1000B87FC, symSize: 0xCC }
  - { offsetInCU: 0x37356, offset: 0x419F8, size: 0x8, addend: 0x0, symName: __ZNSt3__117__compressed_pairIPmRNS_9allocatorImEEE6secondB7v160006Ev, symObjAddr: 0xADE10, symBinAddr: 0x1000B88C8, symSize: 0x110 }
  - { offsetInCU: 0x3737B, offset: 0x41A1D, size: 0x8, addend: 0x0, symName: __ZNSt3__122__compressed_pair_elemIRNS_9allocatorImEELi1ELb0EE5__getB7v160006Ev, symObjAddr: 0xADF20, symBinAddr: 0x1000B89D8, symSize: 0xD8 }
  - { offsetInCU: 0x373A0, offset: 0x41A42, size: 0x8, addend: 0x0, symName: __ZNSt3__117__compressed_pairIPmRNS_9allocatorImEEE5firstB7v160006Ev, symObjAddr: 0xADFF8, symBinAddr: 0x1000B8AB0, symSize: 0x124 }
  - { offsetInCU: 0x373C5, offset: 0x41A67, size: 0x8, addend: 0x0, symName: __ZNSt3__116reverse_iteratorIPmEC1B7v160006ES1_, symObjAddr: 0xAE5C4, symBinAddr: 0x1000B907C, symSize: 0x80 }
  - { offsetInCU: 0x373FB, offset: 0x41A9D, size: 0x8, addend: 0x0, symName: __ZNKSt3__116reverse_iteratorIPmE4baseB7v160006Ev, symObjAddr: 0xAE644, symBinAddr: 0x1000B90FC, symSize: 0xB0 }
  - { offsetInCU: 0x37420, offset: 0x41AC2, size: 0x8, addend: 0x0, symName: __ZNKSt3__16vectorImNS_9allocatorImEEE14__annotate_newB7v160006Em, symObjAddr: 0xAE8B4, symBinAddr: 0x1000B936C, symSize: 0x360 }
  - { offsetInCU: 0x3746D, offset: 0x41B0F, size: 0x8, addend: 0x0, symName: __ZNKSt3__111__move_loopINS_17_ClassicAlgPolicyEEclB7v160006INS_16reverse_iteratorIPmEES6_S6_EENS_4pairIT_T1_EES8_T0_S9_, symObjAddr: 0xB05E4, symBinAddr: 0x1000BB09C, symSize: 0x45C }
  - { offsetInCU: 0x374E4, offset: 0x41B86, size: 0x8, addend: 0x0, symName: __ZNSt3__18_IterOpsINS_17_ClassicAlgPolicyEE11__iter_moveB7v160006IRNS_16reverse_iteratorIPmEEEENS_9enable_ifIXsr12is_referenceIDTdeclsr3stdE7declvalIRT_EEEEE5valueEDTclsr3stdE4movedeclsr3stdE7declvalISA_EEEEE4typeEOS9_, symObjAddr: 0xB168C, symBinAddr: 0x1000BC144, symSize: 0xB8 }
  - { offsetInCU: 0x37510, offset: 0x41BB2, size: 0x8, addend: 0x0, symName: __ZNKSt3__116reverse_iteratorIPmEdeB7v160006Ev, symObjAddr: 0xB1744, symBinAddr: 0x1000BC1FC, symSize: 0x184 }
  - { offsetInCU: 0x37543, offset: 0x41BE5, size: 0x8, addend: 0x0, symName: __ZNSt3__116reverse_iteratorIPmEppB7v160006Ev, symObjAddr: 0xB18C8, symBinAddr: 0x1000BC380, symSize: 0x1B0 }
  - { offsetInCU: 0x37568, offset: 0x41C0A, size: 0x8, addend: 0x0, symName: __ZNSt3__18_IterOpsINS_17_ClassicAlgPolicyEE25__validate_iter_referenceB7v160006IRNS_16reverse_iteratorIPmEEEEvv, symObjAddr: 0xB1A78, symBinAddr: 0x1000BC530, symSize: 0x4 }
  - { offsetInCU: 0x37586, offset: 0x41C28, size: 0x8, addend: 0x0, symName: __ZNSt3__118__unwrap_iter_implINS_16reverse_iteratorIPmEELb0EE8__unwrapB7v160006ES3_, symObjAddr: 0xB1A7C, symBinAddr: 0x1000BC534, symSize: 0x274 }
  - { offsetInCU: 0x375B2, offset: 0x41C54, size: 0x8, addend: 0x0, symName: __ZNSt3__14pairINS_16reverse_iteratorIPmEES3_EC1B7v160006IS3_S3_LPv0EEEOT_OT0_, symObjAddr: 0xB1CF0, symBinAddr: 0x1000BC7A8, symSize: 0x88 }
  - { offsetInCU: 0x3760E, offset: 0x41CB0, size: 0x8, addend: 0x0, symName: __ZNSt3__14pairINS_16reverse_iteratorIPmEES3_EC2B7v160006IS3_S3_LPv0EEEOT_OT0_, symObjAddr: 0xB1D78, symBinAddr: 0x1000BC830, symSize: 0xA0 }
  - { offsetInCU: 0x3766A, offset: 0x41D0C, size: 0x8, addend: 0x0, symName: __ZNSt3__118__unwrap_iter_implINS_16reverse_iteratorIPmEELb0EE8__rewrapB7v160006ES3_S3_, symObjAddr: 0xB1E18, symBinAddr: 0x1000BC8D0, symSize: 0x2E0 }
  - { offsetInCU: 0x376A0, offset: 0x41D42, size: 0x8, addend: 0x0, symName: __ZNSt3__116reverse_iteratorIPmEC2B7v160006ES1_, symObjAddr: 0xB20F8, symBinAddr: 0x1000BCBB0, symSize: 0x10C }
  - { offsetInCU: 0x376D6, offset: 0x41D78, size: 0x8, addend: 0x0, symName: __ZNSt3__114__split_bufferImRNS_9allocatorImEEED2Ev, symObjAddr: 0xB2204, symBinAddr: 0x1000BCCBC, symSize: 0x16C }
  - { offsetInCU: 0x37701, offset: 0x41DA3, size: 0x8, addend: 0x0, symName: __ZNSt3__114__split_bufferImRNS_9allocatorImEEE5clearB7v160006Ev, symObjAddr: 0xB2370, symBinAddr: 0x1000BCE28, symSize: 0xB4 }
  - { offsetInCU: 0x37726, offset: 0x41DC8, size: 0x8, addend: 0x0, symName: __ZNKSt3__114__split_bufferImRNS_9allocatorImEEE8capacityB7v160006Ev, symObjAddr: 0xB2424, symBinAddr: 0x1000BCEDC, symSize: 0x144 }
  - { offsetInCU: 0x3774B, offset: 0x41DED, size: 0x8, addend: 0x0, symName: __ZNSt3__114__split_bufferImRNS_9allocatorImEEE17__destruct_at_endB7v160006EPm, symObjAddr: 0xB2568, symBinAddr: 0x1000BD020, symSize: 0x74 }
  - { offsetInCU: 0x3777E, offset: 0x41E20, size: 0x8, addend: 0x0, symName: __ZNSt3__114__split_bufferImRNS_9allocatorImEEE17__destruct_at_endB7v160006EPmNS_17integral_constantIbLb0EEE, symObjAddr: 0xB25DC, symBinAddr: 0x1000BD094, symSize: 0x224 }
  - { offsetInCU: 0x377BE, offset: 0x41E60, size: 0x8, addend: 0x0, symName: __ZNKSt3__114__split_bufferImRNS_9allocatorImEEE9__end_capB7v160006Ev, symObjAddr: 0xB2800, symBinAddr: 0x1000BD2B8, symSize: 0x100 }
  - { offsetInCU: 0x377E3, offset: 0x41E85, size: 0x8, addend: 0x0, symName: __ZNKSt3__117__compressed_pairIPmRNS_9allocatorImEEE5firstB7v160006Ev, symObjAddr: 0xB2900, symBinAddr: 0x1000BD3B8, symSize: 0x124 }
  - { offsetInCU: 0x37808, offset: 0x41EAA, size: 0x8, addend: 0x0, symName: __ZNKSt3__112__hash_tableINS_17__hash_value_typeI5FieldNS_6vectorImNS_9allocatorImEEEEEENS_22__unordered_map_hasherIS2_S7_NS_4hashIS2_EENS_8equal_toIS2_EELb1EEENS_21__unordered_map_equalIS2_S7_SC_SA_Lb1EEENS4_IS7_EEE4sizeB7v160006Ev, symObjAddr: 0xB2A24, symBinAddr: 0x1000BD4DC, symSize: 0x144 }
  - { offsetInCU: 0x3782D, offset: 0x41ECF, size: 0x8, addend: 0x0, symName: __ZNKSt3__117__compressed_pairImNS_22__unordered_map_hasherI5FieldNS_17__hash_value_typeIS2_NS_6vectorImNS_9allocatorImEEEEEENS_4hashIS2_EENS_8equal_toIS2_EELb1EEEE5firstB7v160006Ev, symObjAddr: 0xB2B68, symBinAddr: 0x1000BD620, symSize: 0x124 }
  - { offsetInCU: 0x37852, offset: 0x41EF4, size: 0x8, addend: 0x0, symName: __ZNSt3__16vectorINS_4pairIiNS_12basic_stringIcNS_11char_traitsIcEENS_9allocatorIcEEEEEENS5_IS8_EEEC2B7v160006Ev, symObjAddr: 0xB2C8C, symBinAddr: 0x1000BD744, symSize: 0x34C }
  - { offsetInCU: 0x3787B, offset: 0x41F1D, size: 0x8, addend: 0x0, symName: __ZNSt3__117__compressed_pairIPNS_4pairIiNS_12basic_stringIcNS_11char_traitsIcEENS_9allocatorIcEEEEEENS5_IS8_EEEC1B7v160006IDnNS_18__default_init_tagEEEOT_OT0_, symObjAddr: 0xB2FD8, symBinAddr: 0x1000BDA90, symSize: 0x88 }
  - { offsetInCU: 0x378D1, offset: 0x41F73, size: 0x8, addend: 0x0, symName: __ZNSt3__117__compressed_pairIPNS_4pairIiNS_12basic_stringIcNS_11char_traitsIcEENS_9allocatorIcEEEEEENS5_IS8_EEEC2B7v160006IDnNS_18__default_init_tagEEEOT_OT0_, symObjAddr: 0xB3070, symBinAddr: 0x1000BDB28, symSize: 0x140 }
  - { offsetInCU: 0x37927, offset: 0x41FC9, size: 0x8, addend: 0x0, symName: __ZNSt3__122__compressed_pair_elemIPNS_4pairIiNS_12basic_stringIcNS_11char_traitsIcEENS_9allocatorIcEEEEEELi0ELb0EEC2B7v160006IDnvEEOT_, symObjAddr: 0xB31B0, symBinAddr: 0x1000BDC68, symSize: 0xBC }
  - { offsetInCU: 0x37968, offset: 0x4200A, size: 0x8, addend: 0x0, symName: __ZNSt3__122__compressed_pair_elemINS_9allocatorINS_4pairIiNS_12basic_stringIcNS_11char_traitsIcEENS1_IcEEEEEEEELi1ELb1EEC2B7v160006ENS_18__default_init_tagE, symObjAddr: 0xB326C, symBinAddr: 0x1000BDD24, symSize: 0x84 }
  - { offsetInCU: 0x3799B, offset: 0x4203D, size: 0x8, addend: 0x0, symName: __ZNSt3__19allocatorINS_4pairIiNS_12basic_stringIcNS_11char_traitsIcEENS0_IcEEEEEEEC2B7v160006Ev, symObjAddr: 0xB32F0, symBinAddr: 0x1000BDDA8, symSize: 0x84 }
  - { offsetInCU: 0x379C3, offset: 0x42065, size: 0x8, addend: 0x0, symName: __ZNSt3__116__non_trivial_ifILb1ENS_9allocatorINS_4pairIiNS_12basic_stringIcNS_11char_traitsIcEENS1_IcEEEEEEEEEC2B7v160006Ev, symObjAddr: 0xB3374, symBinAddr: 0x1000BDE2C, symSize: 0x54 }
  - { offsetInCU: 0x379EB, offset: 0x4208D, size: 0x8, addend: 0x0, symName: __ZNSt3__16vectorINS_4pairIiNS_12basic_stringIcNS_11char_traitsIcEENS_9allocatorIcEEEEEENS5_IS8_EEED2B7v160006Ev, symObjAddr: 0xB33C8, symBinAddr: 0x1000BDE80, symSize: 0x298 }
  - { offsetInCU: 0x37A14, offset: 0x420B6, size: 0x8, addend: 0x0, symName: __ZNSt3__16vectorINS_4pairIiNS_12basic_stringIcNS_11char_traitsIcEENS_9allocatorIcEEEEEENS5_IS8_EEE16__destroy_vectorC1ERSA_, symObjAddr: 0xB3660, symBinAddr: 0x1000BE118, symSize: 0x80 }
  - { offsetInCU: 0x37A4B, offset: 0x420ED, size: 0x8, addend: 0x0, symName: __ZNSt3__16vectorINS_4pairIiNS_12basic_stringIcNS_11char_traitsIcEENS_9allocatorIcEEEEEENS5_IS8_EEE16__destroy_vectorclB7v160006Ev, symObjAddr: 0xB36E0, symBinAddr: 0x1000BE198, symSize: 0x478 }
  - { offsetInCU: 0x37A70, offset: 0x42112, size: 0x8, addend: 0x0, symName: __ZNSt3__16vectorINS_4pairIiNS_12basic_stringIcNS_11char_traitsIcEENS_9allocatorIcEEEEEENS5_IS8_EEE16__destroy_vectorC2ERSA_, symObjAddr: 0xB3B58, symBinAddr: 0x1000BE610, symSize: 0x108 }
  - { offsetInCU: 0x37AA7, offset: 0x42149, size: 0x8, addend: 0x0, symName: __ZNKSt3__16vectorINS_4pairIiNS_12basic_stringIcNS_11char_traitsIcEENS_9allocatorIcEEEEEENS5_IS8_EEE17__annotate_deleteB7v160006Ev, symObjAddr: 0xB3C60, symBinAddr: 0x1000BE718, symSize: 0x370 }
  - { offsetInCU: 0x37ACC, offset: 0x4216E, size: 0x8, addend: 0x0, symName: __ZNSt3__16vectorINS_4pairIiNS_12basic_stringIcNS_11char_traitsIcEENS_9allocatorIcEEEEEENS5_IS8_EEE7__clearB7v160006Ev, symObjAddr: 0xB3FE0, symBinAddr: 0x1000BEA98, symSize: 0xB0 }
  - { offsetInCU: 0x37AF1, offset: 0x42193, size: 0x8, addend: 0x0, symName: __ZNSt3__116allocator_traitsINS_9allocatorINS_4pairIiNS_12basic_stringIcNS_11char_traitsIcEENS1_IcEEEEEEEEE10deallocateB7v160006ERS9_PS8_m, symObjAddr: 0xB4090, symBinAddr: 0x1000BEB48, symSize: 0x34 }
  - { offsetInCU: 0x37B33, offset: 0x421D5, size: 0x8, addend: 0x0, symName: __ZNSt3__16vectorINS_4pairIiNS_12basic_stringIcNS_11char_traitsIcEENS_9allocatorIcEEEEEENS5_IS8_EEE7__allocB7v160006Ev, symObjAddr: 0xB40C4, symBinAddr: 0x1000BEB7C, symSize: 0xE4 }
  - { offsetInCU: 0x37B58, offset: 0x421FA, size: 0x8, addend: 0x0, symName: __ZNKSt3__16vectorINS_4pairIiNS_12basic_stringIcNS_11char_traitsIcEENS_9allocatorIcEEEEEENS5_IS8_EEE8capacityB7v160006Ev, symObjAddr: 0xB41A8, symBinAddr: 0x1000BEC60, symSize: 0x144 }
  - { offsetInCU: 0x37B7D, offset: 0x4221F, size: 0x8, addend: 0x0, symName: __ZNKSt3__16vectorINS_4pairIiNS_12basic_stringIcNS_11char_traitsIcEENS_9allocatorIcEEEEEENS5_IS8_EEE31__annotate_contiguous_containerEPKvSC_SC_SC_, symObjAddr: 0xB42EC, symBinAddr: 0x1000BEDA4, symSize: 0x9C }
  - { offsetInCU: 0x37BDE, offset: 0x42280, size: 0x8, addend: 0x0, symName: __ZNKSt3__16vectorINS_4pairIiNS_12basic_stringIcNS_11char_traitsIcEENS_9allocatorIcEEEEEENS5_IS8_EEE4dataB7v160006Ev, symObjAddr: 0xB4388, symBinAddr: 0x1000BEE40, symSize: 0xB0 }
  - { offsetInCU: 0x37C03, offset: 0x422A5, size: 0x8, addend: 0x0, symName: __ZNKSt3__16vectorINS_4pairIiNS_12basic_stringIcNS_11char_traitsIcEENS_9allocatorIcEEEEEENS5_IS8_EEE4sizeB7v160006Ev, symObjAddr: 0xB4438, symBinAddr: 0x1000BEEF0, symSize: 0xF8 }
  - { offsetInCU: 0x37C28, offset: 0x422CA, size: 0x8, addend: 0x0, symName: __ZNSt3__16vectorINS_4pairIiNS_12basic_stringIcNS_11char_traitsIcEENS_9allocatorIcEEEEEENS5_IS8_EEE22__base_destruct_at_endB7v160006EPS8_, symObjAddr: 0xB4544, symBinAddr: 0x1000BEFFC, symSize: 0x1FC }
  - { offsetInCU: 0x37C6B, offset: 0x4230D, size: 0x8, addend: 0x0, symName: __ZNSt3__116allocator_traitsINS_9allocatorINS_4pairIiNS_12basic_stringIcNS_11char_traitsIcEENS1_IcEEEEEEEEE7destroyB7v160006IS8_vEEvRS9_PT_, symObjAddr: 0xB4740, symBinAddr: 0x1000BF1F8, symSize: 0x2C }
  - { offsetInCU: 0x37CA9, offset: 0x4234B, size: 0x8, addend: 0x0, symName: __ZNSt3__19allocatorINS_4pairIiNS_12basic_stringIcNS_11char_traitsIcEENS0_IcEEEEEEE7destroyB7v160006EPS7_, symObjAddr: 0xB476C, symBinAddr: 0x1000BF224, symSize: 0x9C }
  - { offsetInCU: 0x37CDC, offset: 0x4237E, size: 0x8, addend: 0x0, symName: __ZNSt3__14pairIiNS_12basic_stringIcNS_11char_traitsIcEENS_9allocatorIcEEEEED1Ev, symObjAddr: 0xB4808, symBinAddr: 0x1000BF2C0, symSize: 0x78 }
  - { offsetInCU: 0x37D07, offset: 0x423A9, size: 0x8, addend: 0x0, symName: __ZNSt3__14pairIiNS_12basic_stringIcNS_11char_traitsIcEENS_9allocatorIcEEEEED2Ev, symObjAddr: 0xB4880, symBinAddr: 0x1000BF338, symSize: 0x7C }
  - { offsetInCU: 0x37D32, offset: 0x423D4, size: 0x8, addend: 0x0, symName: __ZNSt3__19allocatorINS_4pairIiNS_12basic_stringIcNS_11char_traitsIcEENS0_IcEEEEEEE10deallocateB7v160006EPS7_m, symObjAddr: 0xB48FC, symBinAddr: 0x1000BF3B4, symSize: 0x78 }
  - { offsetInCU: 0x37D73, offset: 0x42415, size: 0x8, addend: 0x0, symName: __ZNSt3__117__compressed_pairIPNS_4pairIiNS_12basic_stringIcNS_11char_traitsIcEENS_9allocatorIcEEEEEENS5_IS8_EEE6secondB7v160006Ev, symObjAddr: 0xB4974, symBinAddr: 0x1000BF42C, symSize: 0x108 }
  - { offsetInCU: 0x37D98, offset: 0x4243A, size: 0x8, addend: 0x0, symName: __ZNSt3__122__compressed_pair_elemINS_9allocatorINS_4pairIiNS_12basic_stringIcNS_11char_traitsIcEENS1_IcEEEEEEEELi1ELb1EE5__getB7v160006Ev, symObjAddr: 0xB4A7C, symBinAddr: 0x1000BF534, symSize: 0x74 }
  - { offsetInCU: 0x37DBD, offset: 0x4245F, size: 0x8, addend: 0x0, symName: __ZNKSt3__16vectorINS_4pairIiNS_12basic_stringIcNS_11char_traitsIcEENS_9allocatorIcEEEEEENS5_IS8_EEE9__end_capB7v160006Ev, symObjAddr: 0xB4AF0, symBinAddr: 0x1000BF5A8, symSize: 0x100 }
  - { offsetInCU: 0x37DE2, offset: 0x42484, size: 0x8, addend: 0x0, symName: __ZNKSt3__117__compressed_pairIPNS_4pairIiNS_12basic_stringIcNS_11char_traitsIcEENS_9allocatorIcEEEEEENS5_IS8_EEE5firstB7v160006Ev, symObjAddr: 0xB4BF0, symBinAddr: 0x1000BF6A8, symSize: 0x124 }
  - { offsetInCU: 0x37E07, offset: 0x424A9, size: 0x8, addend: 0x0, symName: __ZNKSt3__122__compressed_pair_elemIPNS_4pairIiNS_12basic_stringIcNS_11char_traitsIcEENS_9allocatorIcEEEEEELi0ELb0EE5__getB7v160006Ev, symObjAddr: 0xB4D14, symBinAddr: 0x1000BF7CC, symSize: 0xAC }
  - { offsetInCU: 0x37E2C, offset: 0x424CE, size: 0x8, addend: 0x0, symName: __ZNSt3__16vectorINS_4pairIiNS_12basic_stringIcNS_11char_traitsIcEENS_9allocatorIcEEEEEENS5_IS8_EEE9__end_capB7v160006Ev, symObjAddr: 0xB4DC0, symBinAddr: 0x1000BF878, symSize: 0x100 }
  - { offsetInCU: 0x37E51, offset: 0x424F3, size: 0x8, addend: 0x0, symName: __ZNSt3__16vectorINS_4pairIiNS_12basic_stringIcNS_11char_traitsIcEENS_9allocatorIcEEEEEENS5_IS8_EEE22__construct_one_at_endB7v160006IJRiRS7_EEEvDpOT_, symObjAddr: 0xB4EC0, symBinAddr: 0x1000BF978, symSize: 0x5A0 }
  - { offsetInCU: 0x37EBB, offset: 0x4255D, size: 0x8, addend: 0x0, symName: __ZNSt3__16vectorINS_4pairIiNS_12basic_stringIcNS_11char_traitsIcEENS_9allocatorIcEEEEEENS5_IS8_EEE24__emplace_back_slow_pathIJRiRS7_EEEvDpOT_, symObjAddr: 0xB5460, symBinAddr: 0x1000BFF18, symSize: 0x600 }
  - { offsetInCU: 0x37F37, offset: 0x425D9, size: 0x8, addend: 0x0, symName: __ZNSt3__16vectorINS_4pairIiNS_12basic_stringIcNS_11char_traitsIcEENS_9allocatorIcEEEEEENS5_IS8_EEE4backB7v160006Ev, symObjAddr: 0xB5A60, symBinAddr: 0x1000C0518, symSize: 0x18C }
  - { offsetInCU: 0x37F5C, offset: 0x425FE, size: 0x8, addend: 0x0, symName: __ZNSt3__117__compressed_pairIPNS_4pairIiNS_12basic_stringIcNS_11char_traitsIcEENS_9allocatorIcEEEEEENS5_IS8_EEE5firstB7v160006Ev, symObjAddr: 0xB5BEC, symBinAddr: 0x1000C06A4, symSize: 0x124 }
  - { offsetInCU: 0x37F81, offset: 0x42623, size: 0x8, addend: 0x0, symName: __ZNSt3__122__compressed_pair_elemIPNS_4pairIiNS_12basic_stringIcNS_11char_traitsIcEENS_9allocatorIcEEEEEELi0ELb0EE5__getB7v160006Ev, symObjAddr: 0xB5D10, symBinAddr: 0x1000C07C8, symSize: 0xAC }
  - { offsetInCU: 0x37FBF, offset: 0x42661, size: 0x8, addend: 0x0, symName: __ZNSt3__16vectorINS_4pairIiNS_12basic_stringIcNS_11char_traitsIcEENS_9allocatorIcEEEEEENS5_IS8_EEE21_ConstructTransactionC1B7v160006ERSA_m, symObjAddr: 0xB5DBC, symBinAddr: 0x1000C0874, symSize: 0x88 }
  - { offsetInCU: 0x38005, offset: 0x426A7, size: 0x8, addend: 0x0, symName: __ZNSt3__116allocator_traitsINS_9allocatorINS_4pairIiNS_12basic_stringIcNS_11char_traitsIcEENS1_IcEEEEEEEEE9constructB7v160006IS8_JRiRS7_EvEEvRS9_PT_DpOT0_, symObjAddr: 0xB5E44, symBinAddr: 0x1000C08FC, symSize: 0xDC }
  - { offsetInCU: 0x38072, offset: 0x42714, size: 0x8, addend: 0x0, symName: __ZNSt3__16vectorINS_4pairIiNS_12basic_stringIcNS_11char_traitsIcEENS_9allocatorIcEEEEEENS5_IS8_EEE21_ConstructTransactionD1B7v160006Ev, symObjAddr: 0xB5F20, symBinAddr: 0x1000C09D8, symSize: 0x78 }
  - { offsetInCU: 0x3809A, offset: 0x4273C, size: 0x8, addend: 0x0, symName: __ZNSt3__16vectorINS_4pairIiNS_12basic_stringIcNS_11char_traitsIcEENS_9allocatorIcEEEEEENS5_IS8_EEE21_ConstructTransactionC2B7v160006ERSA_m, symObjAddr: 0xB5F98, symBinAddr: 0x1000C0A50, symSize: 0x3D8 }
  - { offsetInCU: 0x380E0, offset: 0x42782, size: 0x8, addend: 0x0, symName: __ZNKSt3__16vectorINS_4pairIiNS_12basic_stringIcNS_11char_traitsIcEENS_9allocatorIcEEEEEENS5_IS8_EEE19__annotate_increaseB7v160006Em, symObjAddr: 0xB6370, symBinAddr: 0x1000C0E28, symSize: 0x44C }
  - { offsetInCU: 0x38114, offset: 0x427B6, size: 0x8, addend: 0x0, symName: __ZNSt3__19allocatorINS_4pairIiNS_12basic_stringIcNS_11char_traitsIcEENS0_IcEEEEEEE9constructB7v160006IS7_JRiRS6_EEEvPT_DpOT0_, symObjAddr: 0xB67BC, symBinAddr: 0x1000C1274, symSize: 0x13C }
  - { offsetInCU: 0x3817D, offset: 0x4281F, size: 0x8, addend: 0x0, symName: __ZNSt3__14pairIiNS_12basic_stringIcNS_11char_traitsIcEENS_9allocatorIcEEEEEC1B7v160006IRiRS6_LPv0EEEOT_OT0_, symObjAddr: 0xB68F8, symBinAddr: 0x1000C13B0, symSize: 0x88 }
  - { offsetInCU: 0x381D9, offset: 0x4287B, size: 0x8, addend: 0x0, symName: __ZNSt3__14pairIiNS_12basic_stringIcNS_11char_traitsIcEENS_9allocatorIcEEEEEC2B7v160006IRiRS6_LPv0EEEOT_OT0_, symObjAddr: 0xB6980, symBinAddr: 0x1000C1438, symSize: 0x1F4 }
  - { offsetInCU: 0x38235, offset: 0x428D7, size: 0x8, addend: 0x0, symName: __ZNSt3__16vectorINS_4pairIiNS_12basic_stringIcNS_11char_traitsIcEENS_9allocatorIcEEEEEENS5_IS8_EEE21_ConstructTransactionD2B7v160006Ev, symObjAddr: 0xB6B74, symBinAddr: 0x1000C162C, symSize: 0x390 }
  - { offsetInCU: 0x3825D, offset: 0x428FF, size: 0x8, addend: 0x0, symName: __ZNKSt3__16vectorINS_4pairIiNS_12basic_stringIcNS_11char_traitsIcEENS_9allocatorIcEEEEEENS5_IS8_EEE17__annotate_shrinkB7v160006Em, symObjAddr: 0xB6F04, symBinAddr: 0x1000C19BC, symSize: 0x360 }
  - { offsetInCU: 0x38291, offset: 0x42933, size: 0x8, addend: 0x0, symName: __ZNKSt3__16vectorINS_4pairIiNS_12basic_stringIcNS_11char_traitsIcEENS_9allocatorIcEEEEEENS5_IS8_EEE11__recommendB7v160006Em, symObjAddr: 0xB7264, symBinAddr: 0x1000C1D1C, symSize: 0x45C }
  - { offsetInCU: 0x382EC, offset: 0x4298E, size: 0x8, addend: 0x0, symName: __ZNSt3__114__split_bufferINS_4pairIiNS_12basic_stringIcNS_11char_traitsIcEENS_9allocatorIcEEEEEERNS5_IS8_EEEC1EmmSA_, symObjAddr: 0xB76C0, symBinAddr: 0x1000C2178, symSize: 0x90 }
  - { offsetInCU: 0x38341, offset: 0x429E3, size: 0x8, addend: 0x0, symName: __ZNSt3__114__split_bufferINS_4pairIiNS_12basic_stringIcNS_11char_traitsIcEENS_9allocatorIcEEEEEERNS5_IS8_EEED1Ev, symObjAddr: 0xB7FB4, symBinAddr: 0x1000C2A6C, symSize: 0x78 }
  - { offsetInCU: 0x3836C, offset: 0x42A0E, size: 0x8, addend: 0x0, symName: __ZNKSt3__16vectorINS_4pairIiNS_12basic_stringIcNS_11char_traitsIcEENS_9allocatorIcEEEEEENS5_IS8_EEE8max_sizeEv, symObjAddr: 0xB802C, symBinAddr: 0x1000C2AE4, symSize: 0x3B8 }
  - { offsetInCU: 0x38394, offset: 0x42A36, size: 0x8, addend: 0x0, symName: __ZNKSt3__16vectorINS_4pairIiNS_12basic_stringIcNS_11char_traitsIcEENS_9allocatorIcEEEEEENS5_IS8_EEE20__throw_length_errorB7v160006Ev, symObjAddr: 0xB83E4, symBinAddr: 0x1000C2E9C, symSize: 0x80 }
  - { offsetInCU: 0x383C3, offset: 0x42A65, size: 0x8, addend: 0x0, symName: __ZNSt3__116allocator_traitsINS_9allocatorINS_4pairIiNS_12basic_stringIcNS_11char_traitsIcEENS1_IcEEEEEEEEE8max_sizeB7v160006IS9_vEEmRKS9_, symObjAddr: 0xB8464, symBinAddr: 0x1000C2F1C, symSize: 0x24 }
  - { offsetInCU: 0x383F2, offset: 0x42A94, size: 0x8, addend: 0x0, symName: __ZNKSt3__16vectorINS_4pairIiNS_12basic_stringIcNS_11char_traitsIcEENS_9allocatorIcEEEEEENS5_IS8_EEE7__allocB7v160006Ev, symObjAddr: 0xB8488, symBinAddr: 0x1000C2F40, symSize: 0xE4 }
  - { offsetInCU: 0x38417, offset: 0x42AB9, size: 0x8, addend: 0x0, symName: __ZNKSt3__19allocatorINS_4pairIiNS_12basic_stringIcNS_11char_traitsIcEENS0_IcEEEEEEE8max_sizeB7v160006Ev, symObjAddr: 0xB856C, symBinAddr: 0x1000C3024, symSize: 0x4C }
  - { offsetInCU: 0x3843C, offset: 0x42ADE, size: 0x8, addend: 0x0, symName: __ZNKSt3__117__compressed_pairIPNS_4pairIiNS_12basic_stringIcNS_11char_traitsIcEENS_9allocatorIcEEEEEENS5_IS8_EEE6secondB7v160006Ev, symObjAddr: 0xB85B8, symBinAddr: 0x1000C3070, symSize: 0x108 }
  - { offsetInCU: 0x38461, offset: 0x42B03, size: 0x8, addend: 0x0, symName: __ZNKSt3__122__compressed_pair_elemINS_9allocatorINS_4pairIiNS_12basic_stringIcNS_11char_traitsIcEENS1_IcEEEEEEEELi1ELb1EE5__getB7v160006Ev, symObjAddr: 0xB86C0, symBinAddr: 0x1000C3178, symSize: 0x74 }
  - { offsetInCU: 0x38486, offset: 0x42B28, size: 0x8, addend: 0x0, symName: __ZNSt3__114__split_bufferINS_4pairIiNS_12basic_stringIcNS_11char_traitsIcEENS_9allocatorIcEEEEEERNS5_IS8_EEEC2EmmSA_, symObjAddr: 0xB8734, symBinAddr: 0x1000C31EC, symSize: 0x7D8 }
  - { offsetInCU: 0x38501, offset: 0x42BA3, size: 0x8, addend: 0x0, symName: __ZNSt3__117__compressed_pairIPNS_4pairIiNS_12basic_stringIcNS_11char_traitsIcEENS_9allocatorIcEEEEEERNS5_IS8_EEEC1B7v160006IDnSB_EEOT_OT0_, symObjAddr: 0xB8F0C, symBinAddr: 0x1000C39C4, symSize: 0x88 }
  - { offsetInCU: 0x38557, offset: 0x42BF9, size: 0x8, addend: 0x0, symName: __ZNSt3__114__split_bufferINS_4pairIiNS_12basic_stringIcNS_11char_traitsIcEENS_9allocatorIcEEEEEERNS5_IS8_EEE7__allocB7v160006Ev, symObjAddr: 0xB9220, symBinAddr: 0x1000C3CD8, symSize: 0xE4 }
  - { offsetInCU: 0x3857C, offset: 0x42C1E, size: 0x8, addend: 0x0, symName: __ZNSt3__114__split_bufferINS_4pairIiNS_12basic_stringIcNS_11char_traitsIcEENS_9allocatorIcEEEEEERNS5_IS8_EEE9__end_capB7v160006Ev, symObjAddr: 0xB9304, symBinAddr: 0x1000C3DBC, symSize: 0x100 }
  - { offsetInCU: 0x385A1, offset: 0x42C43, size: 0x8, addend: 0x0, symName: __ZNSt3__117__compressed_pairIPNS_4pairIiNS_12basic_stringIcNS_11char_traitsIcEENS_9allocatorIcEEEEEERNS5_IS8_EEEC2B7v160006IDnSB_EEOT_OT0_, symObjAddr: 0xB9404, symBinAddr: 0x1000C3EBC, symSize: 0x198 }
  - { offsetInCU: 0x385F7, offset: 0x42C99, size: 0x8, addend: 0x0, symName: __ZNSt3__122__compressed_pair_elemIRNS_9allocatorINS_4pairIiNS_12basic_stringIcNS_11char_traitsIcEENS1_IcEEEEEEEELi1ELb0EEC2B7v160006ISA_vEEOT_, symObjAddr: 0xB959C, symBinAddr: 0x1000C4054, symSize: 0xEC }
  - { offsetInCU: 0x38638, offset: 0x42CDA, size: 0x8, addend: 0x0, symName: __ZNSt3__19allocatorINS_4pairIiNS_12basic_stringIcNS_11char_traitsIcEENS0_IcEEEEEEE8allocateB7v160006Em, symObjAddr: 0xB9688, symBinAddr: 0x1000C4140, symSize: 0xCC }
  - { offsetInCU: 0x3866B, offset: 0x42D0D, size: 0x8, addend: 0x0, symName: __ZNSt3__117__compressed_pairIPNS_4pairIiNS_12basic_stringIcNS_11char_traitsIcEENS_9allocatorIcEEEEEERNS5_IS8_EEE6secondB7v160006Ev, symObjAddr: 0xB9754, symBinAddr: 0x1000C420C, symSize: 0x110 }
  - { offsetInCU: 0x38690, offset: 0x42D32, size: 0x8, addend: 0x0, symName: __ZNSt3__122__compressed_pair_elemIRNS_9allocatorINS_4pairIiNS_12basic_stringIcNS_11char_traitsIcEENS1_IcEEEEEEEELi1ELb0EE5__getB7v160006Ev, symObjAddr: 0xB9864, symBinAddr: 0x1000C431C, symSize: 0xD8 }
  - { offsetInCU: 0x386B5, offset: 0x42D57, size: 0x8, addend: 0x0, symName: __ZNSt3__117__compressed_pairIPNS_4pairIiNS_12basic_stringIcNS_11char_traitsIcEENS_9allocatorIcEEEEEERNS5_IS8_EEE5firstB7v160006Ev, symObjAddr: 0xB993C, symBinAddr: 0x1000C43F4, symSize: 0x124 }
  - { offsetInCU: 0x386DA, offset: 0x42D7C, size: 0x8, addend: 0x0, symName: __ZNSt3__116reverse_iteratorIPNS_4pairIiNS_12basic_stringIcNS_11char_traitsIcEENS_9allocatorIcEEEEEEEC1B7v160006ES9_, symObjAddr: 0xBA038, symBinAddr: 0x1000C4AF0, symSize: 0x80 }
  - { offsetInCU: 0x38710, offset: 0x42DB2, size: 0x8, addend: 0x0, symName: __ZNKSt3__116reverse_iteratorIPNS_4pairIiNS_12basic_stringIcNS_11char_traitsIcEENS_9allocatorIcEEEEEEE4baseB7v160006Ev, symObjAddr: 0xBA0B8, symBinAddr: 0x1000C4B70, symSize: 0xB0 }
  - { offsetInCU: 0x38735, offset: 0x42DD7, size: 0x8, addend: 0x0, symName: __ZNKSt3__16vectorINS_4pairIiNS_12basic_stringIcNS_11char_traitsIcEENS_9allocatorIcEEEEEENS5_IS8_EEE14__annotate_newB7v160006Em, symObjAddr: 0xBA328, symBinAddr: 0x1000C4DE0, symSize: 0x360 }
  - { offsetInCU: 0x38769, offset: 0x42E0B, size: 0x8, addend: 0x0, symName: __ZNSt3__129_AllocatorDestroyRangeReverseINS_9allocatorINS_4pairIiNS_12basic_stringIcNS_11char_traitsIcEENS1_IcEEEEEEEENS_16reverse_iteratorIPS8_EEEC1B7v160006ERS9_RSC_SF_, symObjAddr: 0xBA8D4, symBinAddr: 0x1000C538C, symSize: 0x90 }
  - { offsetInCU: 0x387BE, offset: 0x42E60, size: 0x8, addend: 0x0, symName: __ZNSt3__116allocator_traitsINS_9allocatorINS_4pairIiNS_12basic_stringIcNS_11char_traitsIcEENS1_IcEEEEEEEEE9constructB7v160006IS8_JS8_EvEEvRS9_PT_DpOT0_, symObjAddr: 0xBAA00, symBinAddr: 0x1000C54B8, symSize: 0x8C }
  - { offsetInCU: 0x38817, offset: 0x42EB9, size: 0x8, addend: 0x0, symName: __ZNKSt3__116reverse_iteratorIPNS_4pairIiNS_12basic_stringIcNS_11char_traitsIcEENS_9allocatorIcEEEEEEEdeB7v160006Ev, symObjAddr: 0xBAAF8, symBinAddr: 0x1000C55B0, symSize: 0x184 }
  - { offsetInCU: 0x3884A, offset: 0x42EEC, size: 0x8, addend: 0x0, symName: __ZNSt3__116reverse_iteratorIPNS_4pairIiNS_12basic_stringIcNS_11char_traitsIcEENS_9allocatorIcEEEEEEEppB7v160006Ev, symObjAddr: 0xBAC7C, symBinAddr: 0x1000C5734, symSize: 0x1B0 }
  - { offsetInCU: 0x3886F, offset: 0x42F11, size: 0x8, addend: 0x0, symName: __ZNSt3__128__exception_guard_exceptionsINS_29_AllocatorDestroyRangeReverseINS_9allocatorINS_4pairIiNS_12basic_stringIcNS_11char_traitsIcEENS2_IcEEEEEEEENS_16reverse_iteratorIPS9_EEEEE10__completeB7v160006Ev, symObjAddr: 0xBAE2C, symBinAddr: 0x1000C58E4, symSize: 0xD8 }
  - { offsetInCU: 0x38894, offset: 0x42F36, size: 0x8, addend: 0x0, symName: __ZNSt3__128__exception_guard_exceptionsINS_29_AllocatorDestroyRangeReverseINS_9allocatorINS_4pairIiNS_12basic_stringIcNS_11char_traitsIcEENS2_IcEEEEEEEENS_16reverse_iteratorIPS9_EEEEED1B7v160006Ev, symObjAddr: 0xBAF04, symBinAddr: 0x1000C59BC, symSize: 0x78 }
  - { offsetInCU: 0x388BC, offset: 0x42F5E, size: 0x8, addend: 0x0, symName: __ZNSt3__128__exception_guard_exceptionsINS_29_AllocatorDestroyRangeReverseINS_9allocatorINS_4pairIiNS_12basic_stringIcNS_11char_traitsIcEENS2_IcEEEEEEEENS_16reverse_iteratorIPS9_EEEEEC1B7v160006ESE_, symObjAddr: 0xBAF7C, symBinAddr: 0x1000C5A34, symSize: 0x84 }
  - { offsetInCU: 0x388F3, offset: 0x42F95, size: 0x8, addend: 0x0, symName: __ZNSt3__128__exception_guard_exceptionsINS_29_AllocatorDestroyRangeReverseINS_9allocatorINS_4pairIiNS_12basic_stringIcNS_11char_traitsIcEENS2_IcEEEEEEEENS_16reverse_iteratorIPS9_EEEEEC2B7v160006ESE_, symObjAddr: 0xBB000, symBinAddr: 0x1000C5AB8, symSize: 0xF8 }
  - { offsetInCU: 0x3892A, offset: 0x42FCC, size: 0x8, addend: 0x0, symName: __ZNSt3__129_AllocatorDestroyRangeReverseINS_9allocatorINS_4pairIiNS_12basic_stringIcNS_11char_traitsIcEENS1_IcEEEEEEEENS_16reverse_iteratorIPS8_EEEC2B7v160006ERS9_RSC_SF_, symObjAddr: 0xBB0F8, symBinAddr: 0x1000C5BB0, symSize: 0x20C }
  - { offsetInCU: 0x3897F, offset: 0x43021, size: 0x8, addend: 0x0, symName: __ZNSt3__19allocatorINS_4pairIiNS_12basic_stringIcNS_11char_traitsIcEENS0_IcEEEEEEE9constructB7v160006IS7_JS7_EEEvPT_DpOT0_, symObjAddr: 0xBB304, symBinAddr: 0x1000C5DBC, symSize: 0xEC }
  - { offsetInCU: 0x389D5, offset: 0x43077, size: 0x8, addend: 0x0, symName: __ZNSt3__14pairIiNS_12basic_stringIcNS_11char_traitsIcEENS_9allocatorIcEEEEEC1EOS7_, symObjAddr: 0xBB3F0, symBinAddr: 0x1000C5EA8, symSize: 0x80 }
  - { offsetInCU: 0x38A08, offset: 0x430AA, size: 0x8, addend: 0x0, symName: __ZNSt3__14pairIiNS_12basic_stringIcNS_11char_traitsIcEENS_9allocatorIcEEEEEC2EOS7_, symObjAddr: 0xBB470, symBinAddr: 0x1000C5F28, symSize: 0x280 }
  - { offsetInCU: 0x38A40, offset: 0x430E2, size: 0x8, addend: 0x0, symName: __ZNSt3__119__to_address_helperINS_16reverse_iteratorIPNS_4pairIiNS_12basic_stringIcNS_11char_traitsIcEENS_9allocatorIcEEEEEEEEvE6__callB7v160006ERKSB_, symObjAddr: 0xBB6F0, symBinAddr: 0x1000C61A8, symSize: 0x70 }
  - { offsetInCU: 0x38A63, offset: 0x43105, size: 0x8, addend: 0x0, symName: __ZNKSt3__116reverse_iteratorIPNS_4pairIiNS_12basic_stringIcNS_11char_traitsIcEENS_9allocatorIcEEEEEEEptB7v160006Ev, symObjAddr: 0xBB760, symBinAddr: 0x1000C6218, symSize: 0x6C }
  - { offsetInCU: 0x38A88, offset: 0x4312A, size: 0x8, addend: 0x0, symName: __ZNSt3__128__exception_guard_exceptionsINS_29_AllocatorDestroyRangeReverseINS_9allocatorINS_4pairIiNS_12basic_stringIcNS_11char_traitsIcEENS2_IcEEEEEEEENS_16reverse_iteratorIPS9_EEEEED2B7v160006Ev, symObjAddr: 0xBB7CC, symBinAddr: 0x1000C6284, symSize: 0x17C }
  - { offsetInCU: 0x38AB0, offset: 0x43152, size: 0x8, addend: 0x0, symName: __ZNKSt3__129_AllocatorDestroyRangeReverseINS_9allocatorINS_4pairIiNS_12basic_stringIcNS_11char_traitsIcEENS1_IcEEEEEEEENS_16reverse_iteratorIPS8_EEEclB7v160006Ev, symObjAddr: 0xBB948, symBinAddr: 0x1000C6400, symSize: 0x418 }
  - { offsetInCU: 0x38AD6, offset: 0x43178, size: 0x8, addend: 0x0, symName: __ZNSt3__116reverse_iteratorINS0_IPNS_4pairIiNS_12basic_stringIcNS_11char_traitsIcEENS_9allocatorIcEEEEEEEEEC1B7v160006ESA_, symObjAddr: 0xBBF04, symBinAddr: 0x1000C69BC, symSize: 0x29C }
  - { offsetInCU: 0x38B11, offset: 0x431B3, size: 0x8, addend: 0x0, symName: __ZNSt3__116reverse_iteratorINS0_IPNS_4pairIiNS_12basic_stringIcNS_11char_traitsIcEENS_9allocatorIcEEEEEEEEEppB7v160006Ev, symObjAddr: 0xBC530, symBinAddr: 0x1000C6FE8, symSize: 0x100 }
  - { offsetInCU: 0x38B36, offset: 0x431D8, size: 0x8, addend: 0x0, symName: __ZNKSt3__116reverse_iteratorINS0_IPNS_4pairIiNS_12basic_stringIcNS_11char_traitsIcEENS_9allocatorIcEEEEEEEEE4baseB7v160006Ev, symObjAddr: 0xBC630, symBinAddr: 0x1000C70E8, symSize: 0x258 }
  - { offsetInCU: 0x38B61, offset: 0x43203, size: 0x8, addend: 0x0, symName: __ZNSt3__119__to_address_helperINS_16reverse_iteratorINS1_IPNS_4pairIiNS_12basic_stringIcNS_11char_traitsIcEENS_9allocatorIcEEEEEEEEEEvE6__callB7v160006ERKSC_, symObjAddr: 0xBC888, symBinAddr: 0x1000C7340, symSize: 0x70 }
  - { offsetInCU: 0x38B84, offset: 0x43226, size: 0x8, addend: 0x0, symName: __ZNKSt3__116reverse_iteratorINS0_IPNS_4pairIiNS_12basic_stringIcNS_11char_traitsIcEENS_9allocatorIcEEEEEEEEEptB7v160006Ev, symObjAddr: 0xBC8F8, symBinAddr: 0x1000C73B0, symSize: 0x6C }
  - { offsetInCU: 0x38BA9, offset: 0x4324B, size: 0x8, addend: 0x0, symName: __ZNKSt3__116reverse_iteratorINS0_IPNS_4pairIiNS_12basic_stringIcNS_11char_traitsIcEENS_9allocatorIcEEEEEEEEEdeB7v160006Ev, symObjAddr: 0xBC964, symBinAddr: 0x1000C741C, symSize: 0x2C4 }
  - { offsetInCU: 0x38BE1, offset: 0x43283, size: 0x8, addend: 0x0, symName: __ZNSt3__116reverse_iteratorIPNS_4pairIiNS_12basic_stringIcNS_11char_traitsIcEENS_9allocatorIcEEEEEEEmmB7v160006Ev, symObjAddr: 0xBCC28, symBinAddr: 0x1000C76E0, symSize: 0x1B0 }
  - { offsetInCU: 0x38C06, offset: 0x432A8, size: 0x8, addend: 0x0, symName: __ZNSt3__116reverse_iteratorINS0_IPNS_4pairIiNS_12basic_stringIcNS_11char_traitsIcEENS_9allocatorIcEEEEEEEEEC2B7v160006ESA_, symObjAddr: 0xBCDD8, symBinAddr: 0x1000C7890, symSize: 0x284 }
  - { offsetInCU: 0x38C41, offset: 0x432E3, size: 0x8, addend: 0x0, symName: __ZNSt3__116reverse_iteratorIPNS_4pairIiNS_12basic_stringIcNS_11char_traitsIcEENS_9allocatorIcEEEEEEEC2B7v160006ES9_, symObjAddr: 0xBD05C, symBinAddr: 0x1000C7B14, symSize: 0x10C }
  - { offsetInCU: 0x38C77, offset: 0x43319, size: 0x8, addend: 0x0, symName: __ZNSt3__114__split_bufferINS_4pairIiNS_12basic_stringIcNS_11char_traitsIcEENS_9allocatorIcEEEEEERNS5_IS8_EEED2Ev, symObjAddr: 0xBD168, symBinAddr: 0x1000C7C20, symSize: 0x16C }
  - { offsetInCU: 0x38CA2, offset: 0x43344, size: 0x8, addend: 0x0, symName: __ZNSt3__114__split_bufferINS_4pairIiNS_12basic_stringIcNS_11char_traitsIcEENS_9allocatorIcEEEEEERNS5_IS8_EEE5clearB7v160006Ev, symObjAddr: 0xBD2D4, symBinAddr: 0x1000C7D8C, symSize: 0xB4 }
  - { offsetInCU: 0x38CC7, offset: 0x43369, size: 0x8, addend: 0x0, symName: __ZNKSt3__114__split_bufferINS_4pairIiNS_12basic_stringIcNS_11char_traitsIcEENS_9allocatorIcEEEEEERNS5_IS8_EEE8capacityB7v160006Ev, symObjAddr: 0xBD388, symBinAddr: 0x1000C7E40, symSize: 0x144 }
  - { offsetInCU: 0x38CEC, offset: 0x4338E, size: 0x8, addend: 0x0, symName: __ZNSt3__114__split_bufferINS_4pairIiNS_12basic_stringIcNS_11char_traitsIcEENS_9allocatorIcEEEEEERNS5_IS8_EEE17__destruct_at_endB7v160006EPS8_, symObjAddr: 0xBD4CC, symBinAddr: 0x1000C7F84, symSize: 0x74 }
  - { offsetInCU: 0x38D1F, offset: 0x433C1, size: 0x8, addend: 0x0, symName: __ZNSt3__114__split_bufferINS_4pairIiNS_12basic_stringIcNS_11char_traitsIcEENS_9allocatorIcEEEEEERNS5_IS8_EEE17__destruct_at_endB7v160006EPS8_NS_17integral_constantIbLb0EEE, symObjAddr: 0xBD540, symBinAddr: 0x1000C7FF8, symSize: 0x224 }
  - { offsetInCU: 0x38D5F, offset: 0x43401, size: 0x8, addend: 0x0, symName: __ZNKSt3__114__split_bufferINS_4pairIiNS_12basic_stringIcNS_11char_traitsIcEENS_9allocatorIcEEEEEERNS5_IS8_EEE9__end_capB7v160006Ev, symObjAddr: 0xBD764, symBinAddr: 0x1000C821C, symSize: 0x100 }
  - { offsetInCU: 0x38D84, offset: 0x43426, size: 0x8, addend: 0x0, symName: __ZNKSt3__117__compressed_pairIPNS_4pairIiNS_12basic_stringIcNS_11char_traitsIcEENS_9allocatorIcEEEEEERNS5_IS8_EEE5firstB7v160006Ev, symObjAddr: 0xBD864, symBinAddr: 0x1000C831C, symSize: 0x124 }
  - { offsetInCU: 0x38DA9, offset: 0x4344B, size: 0x8, addend: 0x0, symName: __ZNSt3__16vectorINS_4pairIiNS_12basic_stringIcNS_11char_traitsIcEENS_9allocatorIcEEEEEENS5_IS8_EEE11__make_iterB7v160006EPS8_, symObjAddr: 0xBD988, symBinAddr: 0x1000C8440, symSize: 0x24C }
  - { offsetInCU: 0x38DDF, offset: 0x43481, size: 0x8, addend: 0x0, symName: __ZNSt3__111__wrap_iterIPNS_4pairIiNS_12basic_stringIcNS_11char_traitsIcEENS_9allocatorIcEEEEEEEC1B7v160006EPKvS9_, symObjAddr: 0xBDBD4, symBinAddr: 0x1000C868C, symSize: 0x88 }
  - { offsetInCU: 0x38E23, offset: 0x434C5, size: 0x8, addend: 0x0, symName: __ZNSt3__111__wrap_iterIPNS_4pairIiNS_12basic_stringIcNS_11char_traitsIcEENS_9allocatorIcEEEEEEEC2B7v160006EPKvS9_, symObjAddr: 0xBDC5C, symBinAddr: 0x1000C8714, symSize: 0xCC }
  - { offsetInCU: 0x38E67, offset: 0x43509, size: 0x8, addend: 0x0, symName: __ZNSt3__16vectorINS0_I5FieldNS_9allocatorIS1_EEEENS2_IS4_EEE9__end_capB7v160006Ev, symObjAddr: 0xBDD28, symBinAddr: 0x1000C87E0, symSize: 0x100 }
  - { offsetInCU: 0x38E8C, offset: 0x4352E, size: 0x8, addend: 0x0, symName: __ZNSt3__16vectorINS0_I5FieldNS_9allocatorIS1_EEEENS2_IS4_EEE22__construct_one_at_endB7v160006IJRKS4_EEEvDpOT_, symObjAddr: 0xBDE28, symBinAddr: 0x1000C88E0, symSize: 0x550 }
  - { offsetInCU: 0x38EE1, offset: 0x43583, size: 0x8, addend: 0x0, symName: __ZNSt3__16vectorINS0_I5FieldNS_9allocatorIS1_EEEENS2_IS4_EEE21__push_back_slow_pathIRKS4_EEvOT_, symObjAddr: 0xBE378, symBinAddr: 0x1000C8E30, symSize: 0x5B0 }
  - { offsetInCU: 0x38F45, offset: 0x435E7, size: 0x8, addend: 0x0, symName: __ZNSt3__117__compressed_pairIPNS_6vectorI5FieldNS_9allocatorIS2_EEEENS3_IS5_EEE5firstB7v160006Ev, symObjAddr: 0xBE928, symBinAddr: 0x1000C93E0, symSize: 0x124 }
  - { offsetInCU: 0x38F6A, offset: 0x4360C, size: 0x8, addend: 0x0, symName: __ZNSt3__122__compressed_pair_elemIPNS_6vectorI5FieldNS_9allocatorIS2_EEEELi0ELb0EE5__getB7v160006Ev, symObjAddr: 0xBEA4C, symBinAddr: 0x1000C9504, symSize: 0xAC }
  - { offsetInCU: 0x38FA8, offset: 0x4364A, size: 0x8, addend: 0x0, symName: __ZNSt3__16vectorINS0_I5FieldNS_9allocatorIS1_EEEENS2_IS4_EEE21_ConstructTransactionC1B7v160006ERS6_m, symObjAddr: 0xBEAF8, symBinAddr: 0x1000C95B0, symSize: 0x88 }
  - { offsetInCU: 0x38FEE, offset: 0x43690, size: 0x8, addend: 0x0, symName: __ZNSt3__116allocator_traitsINS_9allocatorINS_6vectorI5FieldNS1_IS3_EEEEEEE9constructB7v160006IS5_JRKS5_EvEEvRS6_PT_DpOT0_, symObjAddr: 0xBEB80, symBinAddr: 0x1000C9638, symSize: 0x8C }
  - { offsetInCU: 0x39047, offset: 0x436E9, size: 0x8, addend: 0x0, symName: __ZNSt3__16vectorINS0_I5FieldNS_9allocatorIS1_EEEENS2_IS4_EEE21_ConstructTransactionD1B7v160006Ev, symObjAddr: 0xBEC0C, symBinAddr: 0x1000C96C4, symSize: 0x78 }
  - { offsetInCU: 0x3906F, offset: 0x43711, size: 0x8, addend: 0x0, symName: __ZNSt3__16vectorINS0_I5FieldNS_9allocatorIS1_EEEENS2_IS4_EEE21_ConstructTransactionC2B7v160006ERS6_m, symObjAddr: 0xBEC84, symBinAddr: 0x1000C973C, symSize: 0x3E0 }
  - { offsetInCU: 0x390B5, offset: 0x43757, size: 0x8, addend: 0x0, symName: __ZNKSt3__16vectorINS0_I5FieldNS_9allocatorIS1_EEEENS2_IS4_EEE19__annotate_increaseB7v160006Em, symObjAddr: 0xBF064, symBinAddr: 0x1000C9B1C, symSize: 0x46C }
  - { offsetInCU: 0x390E9, offset: 0x4378B, size: 0x8, addend: 0x0, symName: __ZNSt3__19allocatorINS_6vectorI5FieldNS0_IS2_EEEEE9constructB7v160006IS4_JRKS4_EEEvPT_DpOT0_, symObjAddr: 0xBF4D0, symBinAddr: 0x1000C9F88, symSize: 0xEC }
  - { offsetInCU: 0x3913F, offset: 0x437E1, size: 0x8, addend: 0x0, symName: __ZNSt3__16vectorI5FieldNS_9allocatorIS1_EEEC1ERKS4_, symObjAddr: 0xBF5BC, symBinAddr: 0x1000CA074, symSize: 0x80 }
  - { offsetInCU: 0x39179, offset: 0x4381B, size: 0x8, addend: 0x0, symName: __ZNSt3__16vectorI5FieldNS_9allocatorIS1_EEEC2ERKS4_, symObjAddr: 0xBF63C, symBinAddr: 0x1000CA0F4, symSize: 0x6A4 }
  - { offsetInCU: 0x391DE, offset: 0x43880, size: 0x8, addend: 0x0, symName: __ZNSt3__116allocator_traitsINS_9allocatorI5FieldEEE37select_on_container_copy_constructionB7v160006IS3_vvEES3_RKS3_, symObjAddr: 0xBFCE0, symBinAddr: 0x1000CA798, symSize: 0x10 }
  - { offsetInCU: 0x39214, offset: 0x438B6, size: 0x8, addend: 0x0, symName: __ZNSt3__117__compressed_pairIP5FieldNS_9allocatorIS1_EEEC1B7v160006IDnS4_EEOT_OT0_, symObjAddr: 0xBFCF0, symBinAddr: 0x1000CA7A8, symSize: 0x88 }
  - { offsetInCU: 0x3926A, offset: 0x4390C, size: 0x8, addend: 0x0, symName: __ZNSt3__16vectorI5FieldNS_9allocatorIS1_EEE11__vallocateB7v160006Em, symObjAddr: 0xC0034, symBinAddr: 0x1000CAAEC, symSize: 0x5E8 }
  - { offsetInCU: 0x392B3, offset: 0x43955, size: 0x8, addend: 0x0, symName: __ZNSt3__16vectorI5FieldNS_9allocatorIS1_EEE18__construct_at_endIPS1_Li0EEEvT_S7_m, symObjAddr: 0xC061C, symBinAddr: 0x1000CB0D4, symSize: 0x494 }
  - { offsetInCU: 0x3932E, offset: 0x439D0, size: 0x8, addend: 0x0, symName: __ZNSt3__128__exception_guard_exceptionsINS_6vectorI5FieldNS_9allocatorIS2_EEE16__destroy_vectorEE10__completeB7v160006Ev, symObjAddr: 0xC0AB0, symBinAddr: 0x1000CB568, symSize: 0xD8 }
  - { offsetInCU: 0x39353, offset: 0x439F5, size: 0x8, addend: 0x0, symName: __ZNSt3__128__exception_guard_exceptionsINS_6vectorI5FieldNS_9allocatorIS2_EEE16__destroy_vectorEED1B7v160006Ev, symObjAddr: 0xC0B88, symBinAddr: 0x1000CB640, symSize: 0x78 }
  - { offsetInCU: 0x3937B, offset: 0x43A1D, size: 0x8, addend: 0x0, symName: __ZNSt3__117__compressed_pairIP5FieldNS_9allocatorIS1_EEEC2B7v160006IDnS4_EEOT_OT0_, symObjAddr: 0xC0C00, symBinAddr: 0x1000CB6B8, symSize: 0x170 }
  - { offsetInCU: 0x393D1, offset: 0x43A73, size: 0x8, addend: 0x0, symName: __ZNSt3__122__compressed_pair_elemINS_9allocatorI5FieldEELi1ELb1EEC2B7v160006IS3_vEEOT_, symObjAddr: 0xC0D70, symBinAddr: 0x1000CB828, symSize: 0x58 }
  - { offsetInCU: 0x39412, offset: 0x43AB4, size: 0x8, addend: 0x0, symName: __ZNSt3__128__exception_guard_exceptionsINS_6vectorI5FieldNS_9allocatorIS2_EEE16__destroy_vectorEEC1B7v160006ES6_, symObjAddr: 0xC0DC8, symBinAddr: 0x1000CB880, symSize: 0x28C }
  - { offsetInCU: 0x3944D, offset: 0x43AEF, size: 0x8, addend: 0x0, symName: __ZNSt3__128__exception_guard_exceptionsINS_6vectorI5FieldNS_9allocatorIS2_EEE16__destroy_vectorEEC2B7v160006ES6_, symObjAddr: 0xC1054, symBinAddr: 0x1000CBB0C, symSize: 0x2BC }
  - { offsetInCU: 0x39488, offset: 0x43B2A, size: 0x8, addend: 0x0, symName: __ZNSt3__129_AllocatorDestroyRangeReverseINS_9allocatorI5FieldEEPS2_EC1B7v160006ERS3_RS4_S7_, symObjAddr: 0xC1C38, symBinAddr: 0x1000CC6F0, symSize: 0x90 }
  - { offsetInCU: 0x394DD, offset: 0x43B7F, size: 0x8, addend: 0x0, symName: __ZNSt3__116allocator_traitsINS_9allocatorI5FieldEEE9constructB7v160006IS2_JRS2_EvEEvRS3_PT_DpOT0_, symObjAddr: 0xC1CC8, symBinAddr: 0x1000CC780, symSize: 0x8C }
  - { offsetInCU: 0x39536, offset: 0x43BD8, size: 0x8, addend: 0x0, symName: __ZNSt3__128__exception_guard_exceptionsINS_29_AllocatorDestroyRangeReverseINS_9allocatorI5FieldEEPS3_EEE10__completeB7v160006Ev, symObjAddr: 0xC1D54, symBinAddr: 0x1000CC80C, symSize: 0xD8 }
  - { offsetInCU: 0x3955B, offset: 0x43BFD, size: 0x8, addend: 0x0, symName: __ZNSt3__128__exception_guard_exceptionsINS_29_AllocatorDestroyRangeReverseINS_9allocatorI5FieldEEPS3_EEED1B7v160006Ev, symObjAddr: 0xC1E2C, symBinAddr: 0x1000CC8E4, symSize: 0x78 }
  - { offsetInCU: 0x39583, offset: 0x43C25, size: 0x8, addend: 0x0, symName: __ZNSt3__128__exception_guard_exceptionsINS_29_AllocatorDestroyRangeReverseINS_9allocatorI5FieldEEPS3_EEEC1B7v160006ES6_, symObjAddr: 0xC1EA4, symBinAddr: 0x1000CC95C, symSize: 0x84 }
  - { offsetInCU: 0x395BA, offset: 0x43C5C, size: 0x8, addend: 0x0, symName: __ZNSt3__128__exception_guard_exceptionsINS_29_AllocatorDestroyRangeReverseINS_9allocatorI5FieldEEPS3_EEEC2B7v160006ES6_, symObjAddr: 0xC1F28, symBinAddr: 0x1000CC9E0, symSize: 0xF8 }
  - { offsetInCU: 0x395F1, offset: 0x43C93, size: 0x8, addend: 0x0, symName: __ZNSt3__129_AllocatorDestroyRangeReverseINS_9allocatorI5FieldEEPS2_EC2B7v160006ERS3_RS4_S7_, symObjAddr: 0xC2020, symBinAddr: 0x1000CCAD8, symSize: 0x20C }
  - { offsetInCU: 0x39646, offset: 0x43CE8, size: 0x8, addend: 0x0, symName: __ZNSt3__19allocatorI5FieldE9constructB7v160006IS1_JRS1_EEEvPT_DpOT0_, symObjAddr: 0xC222C, symBinAddr: 0x1000CCCE4, symSize: 0xEC }
  - { offsetInCU: 0x3969C, offset: 0x43D3E, size: 0x8, addend: 0x0, symName: __ZNSt3__128__exception_guard_exceptionsINS_29_AllocatorDestroyRangeReverseINS_9allocatorI5FieldEEPS3_EEED2B7v160006Ev, symObjAddr: 0xC2318, symBinAddr: 0x1000CCDD0, symSize: 0x17C }
  - { offsetInCU: 0x396C4, offset: 0x43D66, size: 0x8, addend: 0x0, symName: __ZNKSt3__129_AllocatorDestroyRangeReverseINS_9allocatorI5FieldEEPS2_EclB7v160006Ev, symObjAddr: 0xC2494, symBinAddr: 0x1000CCF4C, symSize: 0x40C }
  - { offsetInCU: 0x396EA, offset: 0x43D8C, size: 0x8, addend: 0x0, symName: __ZNSt3__128__exception_guard_exceptionsINS_6vectorI5FieldNS_9allocatorIS2_EEE16__destroy_vectorEED2B7v160006Ev, symObjAddr: 0xC2B7C, symBinAddr: 0x1000CD634, symSize: 0x17C }
  - { offsetInCU: 0x39712, offset: 0x43DB4, size: 0x8, addend: 0x0, symName: __ZNSt3__16vectorINS0_I5FieldNS_9allocatorIS1_EEEENS2_IS4_EEE21_ConstructTransactionD2B7v160006Ev, symObjAddr: 0xC2CF8, symBinAddr: 0x1000CD7B0, symSize: 0x390 }
  - { offsetInCU: 0x3973A, offset: 0x43DDC, size: 0x8, addend: 0x0, symName: __ZNKSt3__16vectorINS0_I5FieldNS_9allocatorIS1_EEEENS2_IS4_EEE11__recommendB7v160006Em, symObjAddr: 0xC3088, symBinAddr: 0x1000CDB40, symSize: 0x45C }
  - { offsetInCU: 0x39795, offset: 0x43E37, size: 0x8, addend: 0x0, symName: __ZNSt3__114__split_bufferINS_6vectorI5FieldNS_9allocatorIS2_EEEERNS3_IS5_EEEC1EmmS7_, symObjAddr: 0xC34E4, symBinAddr: 0x1000CDF9C, symSize: 0x90 }
  - { offsetInCU: 0x397EA, offset: 0x43E8C, size: 0x8, addend: 0x0, symName: __ZNSt3__114__split_bufferINS_6vectorI5FieldNS_9allocatorIS2_EEEERNS3_IS5_EEED1Ev, symObjAddr: 0xC3DD8, symBinAddr: 0x1000CE890, symSize: 0x78 }
  - { offsetInCU: 0x39815, offset: 0x43EB7, size: 0x8, addend: 0x0, symName: __ZNKSt3__16vectorINS0_I5FieldNS_9allocatorIS1_EEEENS2_IS4_EEE8max_sizeEv, symObjAddr: 0xC3E50, symBinAddr: 0x1000CE908, symSize: 0x3B8 }
  - { offsetInCU: 0x3983D, offset: 0x43EDF, size: 0x8, addend: 0x0, symName: __ZNKSt3__16vectorINS0_I5FieldNS_9allocatorIS1_EEEENS2_IS4_EEE20__throw_length_errorB7v160006Ev, symObjAddr: 0xC4208, symBinAddr: 0x1000CECC0, symSize: 0x80 }
  - { offsetInCU: 0x3986C, offset: 0x43F0E, size: 0x8, addend: 0x0, symName: __ZNSt3__116allocator_traitsINS_9allocatorINS_6vectorI5FieldNS1_IS3_EEEEEEE8max_sizeB7v160006IS6_vEEmRKS6_, symObjAddr: 0xC4288, symBinAddr: 0x1000CED40, symSize: 0x24 }
  - { offsetInCU: 0x3989B, offset: 0x43F3D, size: 0x8, addend: 0x0, symName: __ZNKSt3__16vectorINS0_I5FieldNS_9allocatorIS1_EEEENS2_IS4_EEE7__allocB7v160006Ev, symObjAddr: 0xC42AC, symBinAddr: 0x1000CED64, symSize: 0xE4 }
  - { offsetInCU: 0x398C0, offset: 0x43F62, size: 0x8, addend: 0x0, symName: __ZNKSt3__19allocatorINS_6vectorI5FieldNS0_IS2_EEEEE8max_sizeB7v160006Ev, symObjAddr: 0xC4390, symBinAddr: 0x1000CEE48, symSize: 0x50 }
  - { offsetInCU: 0x398E5, offset: 0x43F87, size: 0x8, addend: 0x0, symName: __ZNKSt3__117__compressed_pairIPNS_6vectorI5FieldNS_9allocatorIS2_EEEENS3_IS5_EEE6secondB7v160006Ev, symObjAddr: 0xC43E0, symBinAddr: 0x1000CEE98, symSize: 0x108 }
  - { offsetInCU: 0x3990A, offset: 0x43FAC, size: 0x8, addend: 0x0, symName: __ZNKSt3__122__compressed_pair_elemINS_9allocatorINS_6vectorI5FieldNS1_IS3_EEEEEELi1ELb1EE5__getB7v160006Ev, symObjAddr: 0xC44E8, symBinAddr: 0x1000CEFA0, symSize: 0x74 }
  - { offsetInCU: 0x3992F, offset: 0x43FD1, size: 0x8, addend: 0x0, symName: __ZNSt3__114__split_bufferINS_6vectorI5FieldNS_9allocatorIS2_EEEERNS3_IS5_EEEC2EmmS7_, symObjAddr: 0xC455C, symBinAddr: 0x1000CF014, symSize: 0x7E8 }
  - { offsetInCU: 0x399AA, offset: 0x4404C, size: 0x8, addend: 0x0, symName: __ZNSt3__117__compressed_pairIPNS_6vectorI5FieldNS_9allocatorIS2_EEEERNS3_IS5_EEEC1B7v160006IDnS8_EEOT_OT0_, symObjAddr: 0xC4D44, symBinAddr: 0x1000CF7FC, symSize: 0x88 }
  - { offsetInCU: 0x39A00, offset: 0x440A2, size: 0x8, addend: 0x0, symName: __ZNSt3__114__split_bufferINS_6vectorI5FieldNS_9allocatorIS2_EEEERNS3_IS5_EEE7__allocB7v160006Ev, symObjAddr: 0xC5058, symBinAddr: 0x1000CFB10, symSize: 0xE4 }
  - { offsetInCU: 0x39A25, offset: 0x440C7, size: 0x8, addend: 0x0, symName: __ZNSt3__114__split_bufferINS_6vectorI5FieldNS_9allocatorIS2_EEEERNS3_IS5_EEE9__end_capB7v160006Ev, symObjAddr: 0xC513C, symBinAddr: 0x1000CFBF4, symSize: 0x100 }
  - { offsetInCU: 0x39A4A, offset: 0x440EC, size: 0x8, addend: 0x0, symName: __ZNSt3__117__compressed_pairIPNS_6vectorI5FieldNS_9allocatorIS2_EEEERNS3_IS5_EEEC2B7v160006IDnS8_EEOT_OT0_, symObjAddr: 0xC523C, symBinAddr: 0x1000CFCF4, symSize: 0x198 }
  - { offsetInCU: 0x39AA0, offset: 0x44142, size: 0x8, addend: 0x0, symName: __ZNSt3__122__compressed_pair_elemIRNS_9allocatorINS_6vectorI5FieldNS1_IS3_EEEEEELi1ELb0EEC2B7v160006IS7_vEEOT_, symObjAddr: 0xC53D4, symBinAddr: 0x1000CFE8C, symSize: 0xEC }
  - { offsetInCU: 0x39AE1, offset: 0x44183, size: 0x8, addend: 0x0, symName: __ZNSt3__19allocatorINS_6vectorI5FieldNS0_IS2_EEEEE8allocateB7v160006Em, symObjAddr: 0xC54C0, symBinAddr: 0x1000CFF78, symSize: 0xD0 }
  - { offsetInCU: 0x39B14, offset: 0x441B6, size: 0x8, addend: 0x0, symName: __ZNSt3__117__compressed_pairIPNS_6vectorI5FieldNS_9allocatorIS2_EEEERNS3_IS5_EEE6secondB7v160006Ev, symObjAddr: 0xC5590, symBinAddr: 0x1000D0048, symSize: 0x110 }
  - { offsetInCU: 0x39B39, offset: 0x441DB, size: 0x8, addend: 0x0, symName: __ZNSt3__122__compressed_pair_elemIRNS_9allocatorINS_6vectorI5FieldNS1_IS3_EEEEEELi1ELb0EE5__getB7v160006Ev, symObjAddr: 0xC56A0, symBinAddr: 0x1000D0158, symSize: 0xD8 }
  - { offsetInCU: 0x39B5E, offset: 0x44200, size: 0x8, addend: 0x0, symName: __ZNSt3__117__compressed_pairIPNS_6vectorI5FieldNS_9allocatorIS2_EEEERNS3_IS5_EEE5firstB7v160006Ev, symObjAddr: 0xC5778, symBinAddr: 0x1000D0230, symSize: 0x124 }
  - { offsetInCU: 0x39B83, offset: 0x44225, size: 0x8, addend: 0x0, symName: __ZNSt3__116reverse_iteratorIPNS_6vectorI5FieldNS_9allocatorIS2_EEEEEC1B7v160006ES6_, symObjAddr: 0xC5E74, symBinAddr: 0x1000D092C, symSize: 0x80 }
  - { offsetInCU: 0x39BB9, offset: 0x4425B, size: 0x8, addend: 0x0, symName: __ZNKSt3__116reverse_iteratorIPNS_6vectorI5FieldNS_9allocatorIS2_EEEEE4baseB7v160006Ev, symObjAddr: 0xC5EF4, symBinAddr: 0x1000D09AC, symSize: 0xB0 }
  - { offsetInCU: 0x39BDE, offset: 0x44280, size: 0x8, addend: 0x0, symName: __ZNKSt3__16vectorINS0_I5FieldNS_9allocatorIS1_EEEENS2_IS4_EEE14__annotate_newB7v160006Em, symObjAddr: 0xC6164, symBinAddr: 0x1000D0C1C, symSize: 0x378 }
  - { offsetInCU: 0x39C12, offset: 0x442B4, size: 0x8, addend: 0x0, symName: __ZNSt3__129_AllocatorDestroyRangeReverseINS_9allocatorINS_6vectorI5FieldNS1_IS3_EEEEEENS_16reverse_iteratorIPS5_EEEC1B7v160006ERS6_RS9_SC_, symObjAddr: 0xC6728, symBinAddr: 0x1000D11E0, symSize: 0x90 }
  - { offsetInCU: 0x39C67, offset: 0x44309, size: 0x8, addend: 0x0, symName: __ZNSt3__116allocator_traitsINS_9allocatorINS_6vectorI5FieldNS1_IS3_EEEEEEE9constructB7v160006IS5_JS5_EvEEvRS6_PT_DpOT0_, symObjAddr: 0xC6854, symBinAddr: 0x1000D130C, symSize: 0x8C }
  - { offsetInCU: 0x39CC0, offset: 0x44362, size: 0x8, addend: 0x0, symName: __ZNKSt3__116reverse_iteratorIPNS_6vectorI5FieldNS_9allocatorIS2_EEEEEdeB7v160006Ev, symObjAddr: 0xC694C, symBinAddr: 0x1000D1404, symSize: 0x184 }
  - { offsetInCU: 0x39CF3, offset: 0x44395, size: 0x8, addend: 0x0, symName: __ZNSt3__116reverse_iteratorIPNS_6vectorI5FieldNS_9allocatorIS2_EEEEEppB7v160006Ev, symObjAddr: 0xC6AD0, symBinAddr: 0x1000D1588, symSize: 0x1B0 }
  - { offsetInCU: 0x39D18, offset: 0x443BA, size: 0x8, addend: 0x0, symName: __ZNSt3__128__exception_guard_exceptionsINS_29_AllocatorDestroyRangeReverseINS_9allocatorINS_6vectorI5FieldNS2_IS4_EEEEEENS_16reverse_iteratorIPS6_EEEEE10__completeB7v160006Ev, symObjAddr: 0xC6C80, symBinAddr: 0x1000D1738, symSize: 0xD8 }
  - { offsetInCU: 0x39D3D, offset: 0x443DF, size: 0x8, addend: 0x0, symName: __ZNSt3__128__exception_guard_exceptionsINS_29_AllocatorDestroyRangeReverseINS_9allocatorINS_6vectorI5FieldNS2_IS4_EEEEEENS_16reverse_iteratorIPS6_EEEEED1B7v160006Ev, symObjAddr: 0xC6D58, symBinAddr: 0x1000D1810, symSize: 0x78 }
  - { offsetInCU: 0x39D65, offset: 0x44407, size: 0x8, addend: 0x0, symName: __ZNSt3__128__exception_guard_exceptionsINS_29_AllocatorDestroyRangeReverseINS_9allocatorINS_6vectorI5FieldNS2_IS4_EEEEEENS_16reverse_iteratorIPS6_EEEEEC1B7v160006ESB_, symObjAddr: 0xC6DD0, symBinAddr: 0x1000D1888, symSize: 0x84 }
  - { offsetInCU: 0x39D9C, offset: 0x4443E, size: 0x8, addend: 0x0, symName: __ZNSt3__128__exception_guard_exceptionsINS_29_AllocatorDestroyRangeReverseINS_9allocatorINS_6vectorI5FieldNS2_IS4_EEEEEENS_16reverse_iteratorIPS6_EEEEEC2B7v160006ESB_, symObjAddr: 0xC6E54, symBinAddr: 0x1000D190C, symSize: 0xF8 }
  - { offsetInCU: 0x39DD3, offset: 0x44475, size: 0x8, addend: 0x0, symName: __ZNSt3__129_AllocatorDestroyRangeReverseINS_9allocatorINS_6vectorI5FieldNS1_IS3_EEEEEENS_16reverse_iteratorIPS5_EEEC2B7v160006ERS6_RS9_SC_, symObjAddr: 0xC6F4C, symBinAddr: 0x1000D1A04, symSize: 0x20C }
  - { offsetInCU: 0x39E28, offset: 0x444CA, size: 0x8, addend: 0x0, symName: __ZNSt3__19allocatorINS_6vectorI5FieldNS0_IS2_EEEEE9constructB7v160006IS4_JS4_EEEvPT_DpOT0_, symObjAddr: 0xC7158, symBinAddr: 0x1000D1C10, symSize: 0xEC }
  - { offsetInCU: 0x39E7E, offset: 0x44520, size: 0x8, addend: 0x0, symName: __ZNSt3__16vectorI5FieldNS_9allocatorIS1_EEEC1B7v160006EOS4_, symObjAddr: 0xC7244, symBinAddr: 0x1000D1CFC, symSize: 0x80 }
  - { offsetInCU: 0x39EB8, offset: 0x4455A, size: 0x8, addend: 0x0, symName: __ZNSt3__16vectorI5FieldNS_9allocatorIS1_EEEC2B7v160006EOS4_, symObjAddr: 0xC72C4, symBinAddr: 0x1000D1D7C, symSize: 0x790 }
  - { offsetInCU: 0x39EF9, offset: 0x4459B, size: 0x8, addend: 0x0, symName: __ZNSt3__119__to_address_helperINS_16reverse_iteratorIPNS_6vectorI5FieldNS_9allocatorIS3_EEEEEEvE6__callB7v160006ERKS8_, symObjAddr: 0xC7A54, symBinAddr: 0x1000D250C, symSize: 0x70 }
  - { offsetInCU: 0x39F1C, offset: 0x445BE, size: 0x8, addend: 0x0, symName: __ZNKSt3__116reverse_iteratorIPNS_6vectorI5FieldNS_9allocatorIS2_EEEEEptB7v160006Ev, symObjAddr: 0xC7AC4, symBinAddr: 0x1000D257C, symSize: 0x6C }
  - { offsetInCU: 0x39F41, offset: 0x445E3, size: 0x8, addend: 0x0, symName: __ZNSt3__128__exception_guard_exceptionsINS_29_AllocatorDestroyRangeReverseINS_9allocatorINS_6vectorI5FieldNS2_IS4_EEEEEENS_16reverse_iteratorIPS6_EEEEED2B7v160006Ev, symObjAddr: 0xC7B30, symBinAddr: 0x1000D25E8, symSize: 0x17C }
  - { offsetInCU: 0x39F69, offset: 0x4460B, size: 0x8, addend: 0x0, symName: __ZNKSt3__129_AllocatorDestroyRangeReverseINS_9allocatorINS_6vectorI5FieldNS1_IS3_EEEEEENS_16reverse_iteratorIPS5_EEEclB7v160006Ev, symObjAddr: 0xC7CAC, symBinAddr: 0x1000D2764, symSize: 0x418 }
  - { offsetInCU: 0x39F8F, offset: 0x44631, size: 0x8, addend: 0x0, symName: __ZNSt3__116reverse_iteratorINS0_IPNS_6vectorI5FieldNS_9allocatorIS2_EEEEEEEC1B7v160006ES7_, symObjAddr: 0xC8268, symBinAddr: 0x1000D2D20, symSize: 0x29C }
  - { offsetInCU: 0x39FCA, offset: 0x4466C, size: 0x8, addend: 0x0, symName: __ZNSt3__116reverse_iteratorINS0_IPNS_6vectorI5FieldNS_9allocatorIS2_EEEEEEEppB7v160006Ev, symObjAddr: 0xC8894, symBinAddr: 0x1000D334C, symSize: 0x100 }
  - { offsetInCU: 0x39FEF, offset: 0x44691, size: 0x8, addend: 0x0, symName: __ZNKSt3__116reverse_iteratorINS0_IPNS_6vectorI5FieldNS_9allocatorIS2_EEEEEEE4baseB7v160006Ev, symObjAddr: 0xC8994, symBinAddr: 0x1000D344C, symSize: 0x258 }
  - { offsetInCU: 0x3A01A, offset: 0x446BC, size: 0x8, addend: 0x0, symName: __ZNSt3__119__to_address_helperINS_16reverse_iteratorINS1_IPNS_6vectorI5FieldNS_9allocatorIS3_EEEEEEEEvE6__callB7v160006ERKS9_, symObjAddr: 0xC8BEC, symBinAddr: 0x1000D36A4, symSize: 0x70 }
  - { offsetInCU: 0x3A03D, offset: 0x446DF, size: 0x8, addend: 0x0, symName: __ZNKSt3__116reverse_iteratorINS0_IPNS_6vectorI5FieldNS_9allocatorIS2_EEEEEEEptB7v160006Ev, symObjAddr: 0xC8C5C, symBinAddr: 0x1000D3714, symSize: 0x6C }
  - { offsetInCU: 0x3A062, offset: 0x44704, size: 0x8, addend: 0x0, symName: __ZNKSt3__116reverse_iteratorINS0_IPNS_6vectorI5FieldNS_9allocatorIS2_EEEEEEEdeB7v160006Ev, symObjAddr: 0xC8CC8, symBinAddr: 0x1000D3780, symSize: 0x2C4 }
  - { offsetInCU: 0x3A09A, offset: 0x4473C, size: 0x8, addend: 0x0, symName: __ZNSt3__116reverse_iteratorIPNS_6vectorI5FieldNS_9allocatorIS2_EEEEEmmB7v160006Ev, symObjAddr: 0xC8F8C, symBinAddr: 0x1000D3A44, symSize: 0x1B0 }
  - { offsetInCU: 0x3A0BF, offset: 0x44761, size: 0x8, addend: 0x0, symName: __ZNSt3__116reverse_iteratorINS0_IPNS_6vectorI5FieldNS_9allocatorIS2_EEEEEEEC2B7v160006ES7_, symObjAddr: 0xC913C, symBinAddr: 0x1000D3BF4, symSize: 0x284 }
  - { offsetInCU: 0x3A0FA, offset: 0x4479C, size: 0x8, addend: 0x0, symName: __ZNSt3__116reverse_iteratorIPNS_6vectorI5FieldNS_9allocatorIS2_EEEEEC2B7v160006ES6_, symObjAddr: 0xC93C0, symBinAddr: 0x1000D3E78, symSize: 0x10C }
  - { offsetInCU: 0x3A130, offset: 0x447D2, size: 0x8, addend: 0x0, symName: __ZNSt3__114__split_bufferINS_6vectorI5FieldNS_9allocatorIS2_EEEERNS3_IS5_EEED2Ev, symObjAddr: 0xC94CC, symBinAddr: 0x1000D3F84, symSize: 0x16C }
  - { offsetInCU: 0x3A15B, offset: 0x447FD, size: 0x8, addend: 0x0, symName: __ZNSt3__114__split_bufferINS_6vectorI5FieldNS_9allocatorIS2_EEEERNS3_IS5_EEE5clearB7v160006Ev, symObjAddr: 0xC9638, symBinAddr: 0x1000D40F0, symSize: 0xB4 }
  - { offsetInCU: 0x3A180, offset: 0x44822, size: 0x8, addend: 0x0, symName: __ZNKSt3__114__split_bufferINS_6vectorI5FieldNS_9allocatorIS2_EEEERNS3_IS5_EEE8capacityB7v160006Ev, symObjAddr: 0xC96EC, symBinAddr: 0x1000D41A4, symSize: 0x144 }
  - { offsetInCU: 0x3A1A5, offset: 0x44847, size: 0x8, addend: 0x0, symName: __ZNSt3__114__split_bufferINS_6vectorI5FieldNS_9allocatorIS2_EEEERNS3_IS5_EEE17__destruct_at_endB7v160006EPS5_, symObjAddr: 0xC9830, symBinAddr: 0x1000D42E8, symSize: 0x74 }
  - { offsetInCU: 0x3A1D8, offset: 0x4487A, size: 0x8, addend: 0x0, symName: __ZNSt3__114__split_bufferINS_6vectorI5FieldNS_9allocatorIS2_EEEERNS3_IS5_EEE17__destruct_at_endB7v160006EPS5_NS_17integral_constantIbLb0EEE, symObjAddr: 0xC98A4, symBinAddr: 0x1000D435C, symSize: 0x224 }
  - { offsetInCU: 0x3A218, offset: 0x448BA, size: 0x8, addend: 0x0, symName: __ZNKSt3__114__split_bufferINS_6vectorI5FieldNS_9allocatorIS2_EEEERNS3_IS5_EEE9__end_capB7v160006Ev, symObjAddr: 0xC9AC8, symBinAddr: 0x1000D4580, symSize: 0x100 }
  - { offsetInCU: 0x3A23D, offset: 0x448DF, size: 0x8, addend: 0x0, symName: __ZNKSt3__117__compressed_pairIPNS_6vectorI5FieldNS_9allocatorIS2_EEEERNS3_IS5_EEE5firstB7v160006Ev, symObjAddr: 0xC9BC8, symBinAddr: 0x1000D4680, symSize: 0x124 }
...
